ARM GAS  C:\Users\atsu\AppData\Local\Temp\ccuXWmG2.s 			page 1


   1              		.cpu cortex-m0
   2              		.fpu softvfp
   3              		.eabi_attribute 20, 1
   4              		.eabi_attribute 21, 1
   5              		.eabi_attribute 23, 3
   6              		.eabi_attribute 24, 1
   7              		.eabi_attribute 25, 1
   8              		.eabi_attribute 26, 1
   9              		.eabi_attribute 30, 4
  10              		.eabi_attribute 34, 0
  11              		.eabi_attribute 18, 4
  12              		.code	16
  13              		.file	"device_depend.c"
  14              		.text
  15              	.Ltext0:
  16              		.cfi_sections	.debug_frame
  17              		.section	.text.hardware_init,"ax",%progbits
  18              		.align	1
  19              		.global	hardware_init
  20              		.code	16
  21              		.thumb_func
  22              		.type	hardware_init, %function
  23              	hardware_init:
  24              	.LFB33:
  25              		.file 1 ".\\device_depend.c"
   1:.\device_depend.c **** /* ========================================
   2:.\device_depend.c ****  *
   3:.\device_depend.c ****  * Copyright YOUR COMPANY, THE YEAR
   4:.\device_depend.c ****  * All Rights Reserved
   5:.\device_depend.c ****  * UNPUBLISHED, LICENSED SOFTWARE.
   6:.\device_depend.c ****  *
   7:.\device_depend.c ****  * CONFIDENTIAL AND PROPRIETARY INFORMATION
   8:.\device_depend.c ****  * WHICH IS THE PROPERTY OF your company.
   9:.\device_depend.c ****  *
  10:.\device_depend.c ****  * ========================================
  11:.\device_depend.c **** */
  12:.\device_depend.c **** #include "device_depend.h"
  13:.\device_depend.c **** #include <project.h>
  14:.\device_depend.c **** 
  15:.\device_depend.c **** void hardware_init(void){
  26              		.loc 1 15 0
  27              		.cfi_startproc
  28 0000 08B5     		push	{r3, lr}
  29              	.LCFI0:
  30              		.cfi_def_cfa_offset 8
  31              		.cfi_offset 3, -8
  32              		.cfi_offset 14, -4
  33              	.LBB4:
  34              	.LBB5:
  16:.\device_depend.c **** 	uart_init();
  17:.\device_depend.c **** 	SPI_CS_Write(1);
  18:.\device_depend.c **** }
  19:.\device_depend.c **** 
  20:.\device_depend.c **** void uart_init(void){
  21:.\device_depend.c **** 	UART_1_Start();
  35              		.loc 1 21 0
  36 0002 FFF7FEFF 		bl	UART_1_Start
ARM GAS  C:\Users\atsu\AppData\Local\Temp\ccuXWmG2.s 			page 2


  37              	.LVL0:
  38              	.LBE5:
  39              	.LBE4:
  17:.\device_depend.c **** 	SPI_CS_Write(1);
  40              		.loc 1 17 0
  41 0006 0120     		mov	r0, #1
  42 0008 FFF7FEFF 		bl	SPI_CS_Write
  43              	.LVL1:
  18:.\device_depend.c **** }
  44              		.loc 1 18 0
  45              		@ sp needed for prologue
  46 000c 08BD     		pop	{r3, pc}
  47              		.cfi_endproc
  48              	.LFE33:
  49              		.size	hardware_init, .-hardware_init
  50              		.section	.text.uart_init,"ax",%progbits
  51              		.align	1
  52              		.global	uart_init
  53              		.code	16
  54              		.thumb_func
  55              		.type	uart_init, %function
  56              	uart_init:
  57              	.LFB34:
  20:.\device_depend.c **** void uart_init(void){
  58              		.loc 1 20 0
  59              		.cfi_startproc
  60 0000 08B5     		push	{r3, lr}
  61              	.LCFI1:
  62              		.cfi_def_cfa_offset 8
  63              		.cfi_offset 3, -8
  64              		.cfi_offset 14, -4
  65              		.loc 1 21 0
  66 0002 FFF7FEFF 		bl	UART_1_Start
  67              	.LVL2:
  22:.\device_depend.c **** }
  68              		.loc 1 22 0
  69              		@ sp needed for prologue
  70 0006 08BD     		pop	{r3, pc}
  71              		.cfi_endproc
  72              	.LFE34:
  73              		.size	uart_init, .-uart_init
  74              		.section	.text.uart_print,"ax",%progbits
  75              		.align	1
  76              		.global	uart_print
  77              		.code	16
  78              		.thumb_func
  79              		.type	uart_print, %function
  80              	uart_print:
  81              	.LFB35:
  23:.\device_depend.c **** 
  24:.\device_depend.c **** void uart_print(char *ss){
  82              		.loc 1 24 0
  83              		.cfi_startproc
  84              	.LVL3:
  85 0000 08B5     		push	{r3, lr}
  86              	.LCFI2:
  87              		.cfi_def_cfa_offset 8
ARM GAS  C:\Users\atsu\AppData\Local\Temp\ccuXWmG2.s 			page 3


  88              		.cfi_offset 3, -8
  89              		.cfi_offset 14, -4
  25:.\device_depend.c **** 	UART_1_UartPutString(ss);
  90              		.loc 1 25 0
  91 0002 FFF7FEFF 		bl	UART_1_UartPutString
  92              	.LVL4:
  26:.\device_depend.c **** }
  93              		.loc 1 26 0
  94              		@ sp needed for prologue
  95 0006 08BD     		pop	{r3, pc}
  96              		.cfi_endproc
  97              	.LFE35:
  98              		.size	uart_print, .-uart_print
  99              		.section	.text.spi_master_init,"ax",%progbits
 100              		.align	1
 101              		.global	spi_master_init
 102              		.code	16
 103              		.thumb_func
 104              		.type	spi_master_init, %function
 105              	spi_master_init:
 106              	.LFB36:
  27:.\device_depend.c **** 
  28:.\device_depend.c **** void spi_master_init(void){
 107              		.loc 1 28 0
 108              		.cfi_startproc
 109 0000 08B5     		push	{r3, lr}
 110              	.LCFI3:
 111              		.cfi_def_cfa_offset 8
 112              		.cfi_offset 3, -8
 113              		.cfi_offset 14, -4
  29:.\device_depend.c **** 	SPI_Start();
 114              		.loc 1 29 0
 115 0002 FFF7FEFF 		bl	SPI_Start
 116              	.LVL5:
  30:.\device_depend.c **** }
 117              		.loc 1 30 0
 118              		@ sp needed for prologue
 119 0006 08BD     		pop	{r3, pc}
 120              		.cfi_endproc
 121              	.LFE36:
 122              		.size	spi_master_init, .-spi_master_init
 123              		.section	.text.spi_master_send,"ax",%progbits
 124              		.align	1
 125              		.global	spi_master_send
 126              		.code	16
 127              		.thumb_func
 128              		.type	spi_master_send, %function
 129              	spi_master_send:
 130              	.LFB37:
  31:.\device_depend.c **** 
  32:.\device_depend.c **** char spi_master_send(char send_data){
 131              		.loc 1 32 0
 132              		.cfi_startproc
 133              	.LVL6:
 134 0000 08B5     		push	{r3, lr}
 135              	.LCFI4:
 136              		.cfi_def_cfa_offset 8
ARM GAS  C:\Users\atsu\AppData\Local\Temp\ccuXWmG2.s 			page 4


 137              		.cfi_offset 3, -8
 138              		.cfi_offset 14, -4
  33:.\device_depend.c **** 	SPI_SpiUartWriteTxData(send_data);
 139              		.loc 1 33 0
 140 0002 FFF7FEFF 		bl	SPI_SpiUartWriteTxData
 141              	.LVL7:
 142              	.L6:
  34:.\device_depend.c **** 	while( !SPI_SpiUartGetRxBufferSize() );
 143              		.loc 1 34 0 discriminator 1
 144 0006 FFF7FEFF 		bl	SPI_SpiUartGetRxBufferSize
 145              	.LVL8:
 146 000a 0028     		cmp	r0, #0
 147 000c FBD0     		beq	.L6
  35:.\device_depend.c **** 	
  36:.\device_depend.c **** 	return ((char)SPI_SpiUartReadRxData());
 148              		.loc 1 36 0
 149 000e FFF7FEFF 		bl	SPI_SpiUartReadRxData
 150              	.LVL9:
  37:.\device_depend.c **** }
 151              		.loc 1 37 0
 152              		@ sp needed for prologue
  36:.\device_depend.c **** 	return ((char)SPI_SpiUartReadRxData());
 153              		.loc 1 36 0
 154 0012 C0B2     		uxtb	r0, r0
 155              		.loc 1 37 0
 156 0014 08BD     		pop	{r3, pc}
 157              		.cfi_endproc
 158              	.LFE37:
 159              		.size	spi_master_send, .-spi_master_send
 160              		.section	.text.spi_cs_low,"ax",%progbits
 161              		.align	1
 162              		.global	spi_cs_low
 163              		.code	16
 164              		.thumb_func
 165              		.type	spi_cs_low, %function
 166              	spi_cs_low:
 167              	.LFB38:
  38:.\device_depend.c **** 
  39:.\device_depend.c **** void spi_cs_low(void){
 168              		.loc 1 39 0
 169              		.cfi_startproc
 170 0000 08B5     		push	{r3, lr}
 171              	.LCFI5:
 172              		.cfi_def_cfa_offset 8
 173              		.cfi_offset 3, -8
 174              		.cfi_offset 14, -4
  40:.\device_depend.c **** 	SPI_CS_Write(0);
 175              		.loc 1 40 0
 176 0002 0020     		mov	r0, #0
 177 0004 FFF7FEFF 		bl	SPI_CS_Write
 178              	.LVL10:
  41:.\device_depend.c **** }
 179              		.loc 1 41 0
 180              		@ sp needed for prologue
 181 0008 08BD     		pop	{r3, pc}
 182              		.cfi_endproc
 183              	.LFE38:
ARM GAS  C:\Users\atsu\AppData\Local\Temp\ccuXWmG2.s 			page 5


 184              		.size	spi_cs_low, .-spi_cs_low
 185              		.section	.text.spi_cs_high,"ax",%progbits
 186              		.align	1
 187              		.global	spi_cs_high
 188              		.code	16
 189              		.thumb_func
 190              		.type	spi_cs_high, %function
 191              	spi_cs_high:
 192              	.LFB39:
  42:.\device_depend.c **** 
  43:.\device_depend.c **** void spi_cs_high(void){
 193              		.loc 1 43 0
 194              		.cfi_startproc
 195 0000 08B5     		push	{r3, lr}
 196              	.LCFI6:
 197              		.cfi_def_cfa_offset 8
 198              		.cfi_offset 3, -8
 199              		.cfi_offset 14, -4
  44:.\device_depend.c **** 	SPI_CS_Write(1);
 200              		.loc 1 44 0
 201 0002 0120     		mov	r0, #1
 202 0004 FFF7FEFF 		bl	SPI_CS_Write
 203              	.LVL11:
  45:.\device_depend.c **** }
 204              		.loc 1 45 0
 205              		@ sp needed for prologue
 206 0008 08BD     		pop	{r3, pc}
 207              		.cfi_endproc
 208              	.LFE39:
 209              		.size	spi_cs_high, .-spi_cs_high
 210              		.section	.text.wait_delay_ms,"ax",%progbits
 211              		.align	1
 212              		.global	wait_delay_ms
 213              		.code	16
 214              		.thumb_func
 215              		.type	wait_delay_ms, %function
 216              	wait_delay_ms:
 217              	.LFB40:
  46:.\device_depend.c **** 
  47:.\device_depend.c **** void wait_delay_ms(int time){
 218              		.loc 1 47 0
 219              		.cfi_startproc
 220              	.LVL12:
 221 0000 08B5     		push	{r3, lr}
 222              	.LCFI7:
 223              		.cfi_def_cfa_offset 8
 224              		.cfi_offset 3, -8
 225              		.cfi_offset 14, -4
  48:.\device_depend.c **** 	CyDelay(time);
 226              		.loc 1 48 0
 227 0002 FFF7FEFF 		bl	CyDelay
 228              	.LVL13:
  49:.\device_depend.c **** }
 229              		.loc 1 49 0
 230              		@ sp needed for prologue
 231 0006 08BD     		pop	{r3, pc}
 232              		.cfi_endproc
ARM GAS  C:\Users\atsu\AppData\Local\Temp\ccuXWmG2.s 			page 6


 233              	.LFE40:
 234              		.size	wait_delay_ms, .-wait_delay_ms
 235              		.text
 236              	.Letext0:
 237              		.file 2 "./Generated_Source/PSoC4/Cytypes.h"
 238              		.file 3 "./Generated_Source/PSoC4/UART_1.h"
 239              		.file 4 "./Generated_Source/PSoC4/SPI_CS.h"
 240              		.file 5 "./Generated_Source/PSoC4/UART_1_SPI_UART.h"
 241              		.file 6 "./Generated_Source/PSoC4/SPI.h"
 242              		.file 7 "./Generated_Source/PSoC4/SPI_SPI_UART.h"
 243              		.file 8 "./Generated_Source/PSoC4/CyLib.h"