ARM GAS  C:\Users\atsu\AppData\Local\Temp\ccgaVhv8.s 			page 1


   1              		.cpu cortex-m0
   2              		.fpu softvfp
   3              		.eabi_attribute 20, 1
   4              		.eabi_attribute 21, 1
   5              		.eabi_attribute 23, 3
   6              		.eabi_attribute 24, 1
   7              		.eabi_attribute 25, 1
   8              		.eabi_attribute 26, 1
   9              		.eabi_attribute 30, 4
  10              		.eabi_attribute 34, 0
  11              		.eabi_attribute 18, 4
  12              		.code	16
  13              		.file	"main.c"
  14              		.text
  15              	.Ltext0:
  16              		.cfi_sections	.debug_frame
  17              		.section	.text.WIZ_Config,"ax",%progbits
  18              		.align	1
  19              		.global	WIZ_Config
  20              		.code	16
  21              		.thumb_func
  22              		.type	WIZ_Config, %function
  23              	WIZ_Config:
  24              	.LFB0:
  25              		.file 1 ".\\main.c"
   1:.\main.c      **** #include "stdio.h"
   2:.\main.c      **** #include "config.h"
   3:.\main.c      **** #include "util.h"
   4:.\main.c      **** #include "w5200.h"
   5:.\main.c      **** #include "socket.h"
   6:.\main.c      **** #include "device_depend.h"
   7:.\main.c      **** #include "loopback.h"
   8:.\main.c      **** 
   9:.\main.c      **** #include <string.h>
  10:.\main.c      **** #include <stdlib.h>
  11:.\main.c      **** 
  12:.\main.c      **** /* Private typedef -----------------------------------------------------------*/
  13:.\main.c      **** /* Private define ------------------------------------------------------------*/
  14:.\main.c      **** /* Private macro -------------------------------------------------------------*/
  15:.\main.c      **** /* Private variables ---------------------------------------------------------*/
  16:.\main.c      **** 
  17:.\main.c      **** CONFIG_MSG Config_Msg;
  18:.\main.c      **** CHCONFIG_TYPE_DEF Chconfig_Type_Def; 
  19:.\main.c      **** 
  20:.\main.c      **** // Configuration Network Information of W5200
  21:.\main.c      **** uint8_t Enable_DHCP = OFF;
  22:.\main.c      **** uint8_t MAC[6] = {0x00, 0x50, 0xC2, 0x97, 0x29, 0x04};//MAC Address
  23:.\main.c      **** uint8_t IP[4] = {192, 168, 1, 70};//IP Address
  24:.\main.c      **** uint8_t GateWay[4] = {192, 168, 1, 121};//Gateway Address
  25:.\main.c      **** uint8_t SubNet[4] = {255, 255, 255, 0};//SubnetMask Address
  26:.\main.c      **** 
  27:.\main.c      **** //TX MEM SIZE- SOCKET 0:8KB, SOCKET 1:2KB, SOCKET2-7:1KB
  28:.\main.c      **** //RX MEM SIZE- SOCKET 0:8KB, SOCKET 1:2KB, SOCKET2-7:1KB
  29:.\main.c      **** uint8_t txsize[MAX_SOCK_NUM] = {2,2,2,2};
  30:.\main.c      **** uint8_t rxsize[MAX_SOCK_NUM] = {2,2,2,2};
  31:.\main.c      **** 
  32:.\main.c      **** //FOR TCP Client
ARM GAS  C:\Users\atsu\AppData\Local\Temp\ccgaVhv8.s 			page 2


  33:.\main.c      **** //Configuration Network Information of TEST PC
  34:.\main.c      **** uint8_t Dest_IP[4] = {192, 168, 1, 100}; //DST_IP Address 
  35:.\main.c      **** uint16_t Dest_PORT = 3000; //DST_IP port
  36:.\main.c      **** 
  37:.\main.c      **** uint8_t ch_status[MAX_SOCK_NUM] = { 0, };	/** 0:close, 1:ready, 2:connected */
  38:.\main.c      **** 
  39:.\main.c      **** uint8_t TX_BUF[TX_RX_MAX_BUF_SIZE]; // TX Buffer for applications
  40:.\main.c      **** uint8_t RX_BUF[TX_RX_MAX_BUF_SIZE]; // RX Buffer for applications
  41:.\main.c      ****    
  42:.\main.c      **** void WIZ_Config(void)
  43:.\main.c      **** {
  26              		.loc 1 43 0
  27              		.cfi_startproc
  28 0000 08B5     		push	{r3, lr}
  29              	.LCFI0:
  30              		.cfi_def_cfa_offset 8
  31              		.cfi_offset 3, -8
  32              		.cfi_offset 14, -4
  44:.\main.c      ****   // Call Set_network(): Set network configuration, Init. TX/RX MEM SIZE., and  Set RTR/RCR
  45:.\main.c      ****   Set_network(); // at util.c
  33              		.loc 1 45 0
  34 0002 FFF7FEFF 		bl	Set_network
  35              	.LVL0:
  46:.\main.c      **** }       
  36              		.loc 1 46 0
  37              		@ sp needed for prologue
  38 0006 08BD     		pop	{r3, pc}
  39              		.cfi_endproc
  40              	.LFE0:
  41              		.size	WIZ_Config, .-WIZ_Config
  42              		.section	.text.startup.main,"ax",%progbits
  43              		.align	1
  44              		.global	main
  45              		.code	16
  46              		.thumb_func
  47              		.type	main, %function
  48              	main:
  49              	.LFB1:
  47:.\main.c      **** //__IO uint32_t Timer2_Counter;
  48:.\main.c      **** 
  49:.\main.c      **** uint32_t my_time;
  50:.\main.c      **** uint32_t presentTime;
  51:.\main.c      **** 
  52:.\main.c      **** /* Private function prototypes -----------------------------------------------*/
  53:.\main.c      **** void RCC_Configuration(void);
  54:.\main.c      **** void NVIC_Configuration(void);
  55:.\main.c      **** void GPIO_Configuration(void);
  56:.\main.c      **** void Timer_Configuration(void);
  57:.\main.c      **** 
  58:.\main.c      **** 
  59:.\main.c      **** /* Private functions ---------------------------------------------------------*/
  60:.\main.c      **** 
  61:.\main.c      **** //void Timer2_ISR(void)
  62:.\main.c      **** //{
  63:.\main.c      **** //	if (Timer2_Counter++ > 1000) { // 1m x 1000 = 1sec
  64:.\main.c      **** //		Timer2_Counter = 0;
  65:.\main.c      **** //		my_time++;
ARM GAS  C:\Users\atsu\AppData\Local\Temp\ccgaVhv8.s 			page 3


  66:.\main.c      **** //		
  67:.\main.c      **** //	}
  68:.\main.c      **** //	
  69:.\main.c      **** //}
  70:.\main.c      **** 
  71:.\main.c      **** 
  72:.\main.c      **** /*******************************************************************************
  73:.\main.c      **** * Function Name  : main
  74:.\main.c      **** * Description    : Main program.
  75:.\main.c      **** * Input          : None
  76:.\main.c      **** * Output         : None
  77:.\main.c      **** * Return         : None
  78:.\main.c      **** *******************************************************************************/
  79:.\main.c      **** int main(void)
  80:.\main.c      **** {  
  50              		.loc 1 80 0
  51              		.cfi_startproc
  52 0000 08B5     		push	{r3, lr}
  53              	.LCFI1:
  54              		.cfi_def_cfa_offset 8
  55              		.cfi_offset 3, -8
  56              		.cfi_offset 14, -4
  81:.\main.c      **** 	//	RCC_Configuration(); // Configure the system clocks
  82:.\main.c      **** 	//	NVIC_Configuration(); // NVIC Configuration
  83:.\main.c      **** 	//	GPIO_Configuration();
  84:.\main.c      **** 	//	USART1_Init();
  85:.\main.c      **** 	//	Timer_Configuration();
  86:.\main.c      **** 
  87:.\main.c      **** 	Reset_W5200();
  57              		.loc 1 87 0
  58 0002 FFF7FEFF 		bl	Reset_W5200
  59              	.LVL1:
  88:.\main.c      **** 	spi_master_init();	
  60              		.loc 1 88 0
  61 0006 FFF7FEFF 		bl	spi_master_init
  62              	.LVL2:
  63              	.LBB4:
  64              	.LBB5:
  45:.\main.c      ****   Set_network(); // at util.c
  65              		.loc 1 45 0
  66 000a FFF7FEFF 		bl	Set_network
  67              	.LVL3:
  68              	.LBE5:
  69              	.LBE4:
  89:.\main.c      **** 	WIZ_Config(); // network config & Call Set_network ();      
  90:.\main.c      **** 
  91:.\main.c      **** 	// LED3 and LED4 On!
  92:.\main.c      **** 	//LED3_onoff(ON);
  93:.\main.c      **** 	//LED4_onoff(ON);
  94:.\main.c      **** 
  95:.\main.c      **** 	presentTime = my_time; // For TCP client's connection request delay
  70              		.loc 1 95 0
  71 000e 044B     		ldr	r3, .L5
  72 0010 0448     		ldr	r0, .L5+4
  73 0012 1A68     		ldr	r2, [r3]
  74 0014 0260     		str	r2, [r0]
  75              	.L3:
ARM GAS  C:\Users\atsu\AppData\Local\Temp\ccgaVhv8.s 			page 4


  96:.\main.c      **** 
  97:.\main.c      **** 	// Start Application         
  98:.\main.c      **** 	// printf("\r\n\r\n------------------------------------------- \r\n");
  99:.\main.c      **** 	// printf("TCP Server Loopback using W5200\r\n");  
 100:.\main.c      **** 	// printf("------------------------------------------- ");
 101:.\main.c      **** 	while(1) {
 102:.\main.c      **** 		loopback_tcps(0, 23);
  76              		.loc 1 102 0 discriminator 1
  77 0016 0020     		mov	r0, #0
  78 0018 1721     		mov	r1, #23
  79 001a FFF7FEFF 		bl	loopback_tcps
  80              	.LVL4:
  81 001e FAE7     		b	.L3
  82              	.L6:
  83              		.align	2
  84              	.L5:
  85 0020 00000000 		.word	my_time
  86 0024 00000000 		.word	presentTime
  87              		.cfi_endproc
  88              	.LFE1:
  89              		.size	main, .-main
  90              		.section	.text.GPIO_Configuration,"ax",%progbits
  91              		.align	1
  92              		.global	GPIO_Configuration
  93              		.code	16
  94              		.thumb_func
  95              		.type	GPIO_Configuration, %function
  96              	GPIO_Configuration:
  97              	.LFB2:
 103:.\main.c      **** 		//		loopback_tcps(1, 5001);
 104:.\main.c      **** 		//		loopback_tcps(2, 5002);
 105:.\main.c      **** 		//		loopback_tcps(3, 5003);		
 106:.\main.c      **** 		//                loopback_tcpc(4, 5004);              
 107:.\main.c      **** 		//		loopback_udp(5, 3000);
 108:.\main.c      **** 		//		loopback_udp(6, 3001);
 109:.\main.c      **** 		//		loopback_udp(7, 3002);                
 110:.\main.c      **** 	}
 111:.\main.c      ****         
 112:.\main.c      **** }
 113:.\main.c      **** 
 114:.\main.c      **** void GPIO_Configuration(void)
 115:.\main.c      **** {
  98              		.loc 1 115 0
  99              		.cfi_startproc
 116:.\main.c      **** //	GPIO_InitTypeDef GPIO_InitStructure;
 117:.\main.c      **** //
 118:.\main.c      **** //    // Port A output
 119:.\main.c      **** //    GPIO_InitStructure.GPIO_Pin = WIZ_SCS | LED3 | LED4; 
 120:.\main.c      **** //    GPIO_InitStructure.GPIO_Speed = GPIO_Speed_50MHz;
 121:.\main.c      **** //    GPIO_InitStructure.GPIO_Mode = GPIO_Mode_Out_PP;
 122:.\main.c      **** //    GPIO_Init(GPIOA, &GPIO_InitStructure);
 123:.\main.c      **** //    GPIO_SetBits(GPIOA, WIZ_SCS);
 124:.\main.c      **** //    GPIO_SetBits(GPIOA, LED3); // led off
 125:.\main.c      **** //    GPIO_SetBits(GPIOA, LED4); // led off
 126:.\main.c      **** //	
 127:.\main.c      **** //
 128:.\main.c      **** //    // Configure the GPIO ports( USART1 Transmit and Receive Lines)
ARM GAS  C:\Users\atsu\AppData\Local\Temp\ccgaVhv8.s 			page 5


 129:.\main.c      **** //    // Configure the USART1_Tx as Alternate function Push-Pull 
 130:.\main.c      **** //    GPIO_InitStructure.GPIO_Mode = GPIO_Mode_AF_PP;
 131:.\main.c      **** //    GPIO_InitStructure.GPIO_Pin =  USART1_TX;
 132:.\main.c      **** //    GPIO_InitStructure.GPIO_Speed = GPIO_Speed_50MHz;
 133:.\main.c      **** //    GPIO_Init(GPIOA, &GPIO_InitStructure);
 134:.\main.c      **** //    
 135:.\main.c      **** //    // Configure the USART1_Rx as input floating
 136:.\main.c      **** //    GPIO_InitStructure.GPIO_Mode = GPIO_Mode_IN_FLOATING;
 137:.\main.c      **** //    GPIO_InitStructure.GPIO_Pin = USART1_RX;
 138:.\main.c      **** //    GPIO_Init(GPIOA, &GPIO_InitStructure);
 139:.\main.c      **** //  
 140:.\main.c      **** //    // SPI 1
 141:.\main.c      **** //    /* Configure SPIy pins: SCK, MISO and MOSI */
 142:.\main.c      **** //    GPIO_InitStructure.GPIO_Pin = WIZ_SCLK | WIZ_MISO | WIZ_MOSI;
 143:.\main.c      **** //    GPIO_InitStructure.GPIO_Speed = GPIO_Speed_50MHz;
 144:.\main.c      **** //    GPIO_InitStructure.GPIO_Mode = GPIO_Mode_AF_PP;
 145:.\main.c      **** //    GPIO_Init(GPIOA, &GPIO_InitStructure);
 146:.\main.c      **** //
 147:.\main.c      **** //
 148:.\main.c      **** //    // Port B
 149:.\main.c      **** //    GPIO_InitStructure.GPIO_Pin = WIZ_RESET|WIZ_PWDN; 
 150:.\main.c      **** //    GPIO_InitStructure.GPIO_Speed = GPIO_Speed_50MHz;
 151:.\main.c      **** //    GPIO_InitStructure.GPIO_Mode = GPIO_Mode_Out_PP;
 152:.\main.c      **** //    GPIO_Init(GPIOB, &GPIO_InitStructure);
 153:.\main.c      **** //    GPIO_SetBits(GPIOB, WIZ_RESET);
 154:.\main.c      **** //    GPIO_ResetBits(GPIOB, WIZ_PWDN); 
 155:.\main.c      **** //
 156:.\main.c      **** //    // Port B input
 157:.\main.c      **** //    GPIO_InitStructure.GPIO_Pin = WIZ_INT;
 158:.\main.c      **** //    GPIO_InitStructure.GPIO_Speed = GPIO_Speed_50MHz;
 159:.\main.c      **** //    GPIO_InitStructure.GPIO_Mode = GPIO_Mode_IPU;
 160:.\main.c      **** //    GPIO_Init(GPIOB, &GPIO_InitStructure);
 161:.\main.c      **** 
 162:.\main.c      **** }
 100              		.loc 1 162 0
 101              		@ sp needed for prologue
 102 0000 7047     		bx	lr
 103              		.cfi_endproc
 104              	.LFE2:
 105              		.size	GPIO_Configuration, .-GPIO_Configuration
 106              		.section	.text.RCC_Configuration,"ax",%progbits
 107              		.align	1
 108              		.global	RCC_Configuration
 109              		.code	16
 110              		.thumb_func
 111              		.type	RCC_Configuration, %function
 112              	RCC_Configuration:
 113              	.LFB3:
 163:.\main.c      **** 
 164:.\main.c      **** 
 165:.\main.c      **** /*******************************************************************************
 166:.\main.c      **** * Function Name  : RCC_Configuration
 167:.\main.c      **** * Description    : Configures the different system clocks.
 168:.\main.c      **** * Input          : None
 169:.\main.c      **** * Output         : None
 170:.\main.c      **** * Return         : None
 171:.\main.c      **** *******************************************************************************/
ARM GAS  C:\Users\atsu\AppData\Local\Temp\ccgaVhv8.s 			page 6


 172:.\main.c      **** void RCC_Configuration(void)
 173:.\main.c      **** {
 114              		.loc 1 173 0
 115              		.cfi_startproc
 174:.\main.c      **** //ErrorStatus HSEStartUpStatus;
 175:.\main.c      **** //  
 176:.\main.c      **** // /* RCC system reset(for debug purpose) */
 177:.\main.c      **** //  RCC_DeInit();
 178:.\main.c      **** //
 179:.\main.c      **** //  /* Enable HSE */
 180:.\main.c      **** //  RCC_HSEConfig(RCC_HSE_ON);
 181:.\main.c      **** //
 182:.\main.c      **** //  /* Wait till HSE is ready */
 183:.\main.c      **** //  HSEStartUpStatus = RCC_WaitForHSEStartUp();
 184:.\main.c      **** //
 185:.\main.c      **** //  if(HSEStartUpStatus == SUCCESS)
 186:.\main.c      **** //  {
 187:.\main.c      **** //    /* Enable Prefetch Buffer */
 188:.\main.c      **** //    FLASH_PrefetchBufferCmd(FLASH_PrefetchBuffer_Enable);
 189:.\main.c      **** //
 190:.\main.c      **** //    /* Flash 2 wait state */
 191:.\main.c      **** //    FLASH_SetLatency(FLASH_Latency_2);
 192:.\main.c      **** // 
 193:.\main.c      **** //    /* HCLK = SYSCLK */
 194:.\main.c      **** //    RCC_HCLKConfig(RCC_SYSCLK_Div1); 
 195:.\main.c      **** //  
 196:.\main.c      **** //    /* PCLK2 = HCLK */
 197:.\main.c      **** //    RCC_PCLK2Config(RCC_HCLK_Div1); 
 198:.\main.c      **** //
 199:.\main.c      **** //    /* PCLK1 = HCLK/2 */
 200:.\main.c      **** //    RCC_PCLK1Config(RCC_HCLK_Div2);
 201:.\main.c      **** //
 202:.\main.c      **** //    /* PLLCLK = 8MHz * 9 = 72 MHz */
 203:.\main.c      **** //    RCC_PLLConfig(RCC_PLLSource_HSE_Div1, RCC_PLLMul_9);
 204:.\main.c      **** //
 205:.\main.c      **** //    /* Enable PLL */ 
 206:.\main.c      **** //    RCC_PLLCmd(ENABLE);
 207:.\main.c      **** //
 208:.\main.c      **** //    /* Wait till PLL is ready */
 209:.\main.c      **** //    while(RCC_GetFlagStatus(RCC_FLAG_PLLRDY) == RESET)
 210:.\main.c      **** //    {
 211:.\main.c      **** //    }
 212:.\main.c      **** //
 213:.\main.c      **** //    /* Select PLL as system clock source */
 214:.\main.c      **** //    RCC_SYSCLKConfig(RCC_SYSCLKSource_PLLCLK);
 215:.\main.c      **** //
 216:.\main.c      **** //    /* Wait till PLL is used as system clock source */
 217:.\main.c      **** //    while(RCC_GetSYSCLKSource() != 0x08)
 218:.\main.c      **** //    {
 219:.\main.c      **** //    }
 220:.\main.c      **** //  }
 221:.\main.c      **** //   
 222:.\main.c      **** //  /* TIM2 clock enable */
 223:.\main.c      **** //  RCC_APB1PeriphClockCmd(RCC_APB1Periph_TIM2, ENABLE);
 224:.\main.c      **** //
 225:.\main.c      **** //  RCC_APB2PeriphClockCmd(RCC_APB2Periph_GPIOA | RCC_APB2Periph_SPI1 | RCC_APB2Periph_GPIOB |RCC_A
 226:.\main.c      **** //  											|RCC_APB2Periph_AFIO  | RCC_APB2Periph_USART1, ENABLE);
ARM GAS  C:\Users\atsu\AppData\Local\Temp\ccgaVhv8.s 			page 7


 227:.\main.c      **** //
 228:.\main.c      **** 
 229:.\main.c      **** 
 230:.\main.c      **** }
 116              		.loc 1 230 0
 117              		@ sp needed for prologue
 118 0000 7047     		bx	lr
 119              		.cfi_endproc
 120              	.LFE3:
 121              		.size	RCC_Configuration, .-RCC_Configuration
 122              		.comm	presentTime,4,4
 123              		.comm	my_time,4,4
 124              		.comm	RX_BUF,2048,1
 125              		.comm	TX_BUF,2048,1
 126              		.global	ch_status
 127              		.global	Dest_PORT
 128              		.global	Dest_IP
 129              		.global	rxsize
 130              		.global	txsize
 131              		.global	SubNet
 132              		.global	GateWay
 133              		.global	IP
 134              		.global	MAC
 135              		.global	Enable_DHCP
 136              		.comm	Chconfig_Type_Def,6,2
 137              		.comm	Config_Msg,23,1
 138              		.data
 139              		.align	1
 140              		.type	Dest_PORT, %object
 141              		.size	Dest_PORT, 2
 142              	Dest_PORT:
 143 0000 B80B     		.short	3000
 144              		.type	Dest_IP, %object
 145              		.size	Dest_IP, 4
 146              	Dest_IP:
 147 0002 C0       		.byte	-64
 148 0003 A8       		.byte	-88
 149 0004 01       		.byte	1
 150 0005 64       		.byte	100
 151              		.type	rxsize, %object
 152              		.size	rxsize, 4
 153              	rxsize:
 154 0006 02       		.byte	2
 155 0007 02       		.byte	2
 156 0008 02       		.byte	2
 157 0009 02       		.byte	2
 158              		.type	txsize, %object
 159              		.size	txsize, 4
 160              	txsize:
 161 000a 02       		.byte	2
 162 000b 02       		.byte	2
 163 000c 02       		.byte	2
 164 000d 02       		.byte	2
 165              		.type	SubNet, %object
 166              		.size	SubNet, 4
 167              	SubNet:
 168 000e FF       		.byte	-1
ARM GAS  C:\Users\atsu\AppData\Local\Temp\ccgaVhv8.s 			page 8


 169 000f FF       		.byte	-1
 170 0010 FF       		.byte	-1
 171 0011 00       		.byte	0
 172              		.type	GateWay, %object
 173              		.size	GateWay, 4
 174              	GateWay:
 175 0012 C0       		.byte	-64
 176 0013 A8       		.byte	-88
 177 0014 01       		.byte	1
 178 0015 79       		.byte	121
 179              		.type	IP, %object
 180              		.size	IP, 4
 181              	IP:
 182 0016 C0       		.byte	-64
 183 0017 A8       		.byte	-88
 184 0018 01       		.byte	1
 185 0019 46       		.byte	70
 186              		.type	MAC, %object
 187              		.size	MAC, 6
 188              	MAC:
 189 001a 00       		.byte	0
 190 001b 50       		.byte	80
 191 001c C2       		.byte	-62
 192 001d 97       		.byte	-105
 193 001e 29       		.byte	41
 194 001f 04       		.byte	4
 195              		.bss
 196              		.type	ch_status, %object
 197              		.size	ch_status, 4
 198              	ch_status:
 199 0000 00000000 		.space	4
 200              		.type	Enable_DHCP, %object
 201              		.size	Enable_DHCP, 1
 202              	Enable_DHCP:
 203 0004 00       		.space	1
 204              		.text
 205              	.Letext0:
 206              		.file 2 "c:\\program files (x86)\\cypress\\psoc creator\\3.0\\psoc creator\\import\\gnu_cs\\arm\\4
 207              		.file 3 ".\\util.h"
 208              		.file 4 ".\\config.h"
 209              		.file 5 ".\\device_depend.h"
 210              		.file 6 ".\\loopback.h"