ARM GAS  C:\Users\atsu\AppData\Local\Temp\ccFWVBKl.s 			page 1


   1              		.cpu cortex-m0
   2              		.fpu softvfp
   3              		.eabi_attribute 20, 1
   4              		.eabi_attribute 21, 1
   5              		.eabi_attribute 23, 3
   6              		.eabi_attribute 24, 1
   7              		.eabi_attribute 25, 1
   8              		.eabi_attribute 26, 1
   9              		.eabi_attribute 30, 4
  10              		.eabi_attribute 34, 0
  11              		.eabi_attribute 18, 4
  12              		.code	16
  13              		.file	"md5.c"
  14              		.text
  15              	.Ltext0:
  16              		.cfi_sections	.debug_frame
  17              		.section	.text.md5_encode,"ax",%progbits
  18              		.align	1
  19              		.code	16
  20              		.thumb_func
  21              		.type	md5_encode, %function
  22              	md5_encode:
  23              	.LFB8:
  24              		.file 1 ".\\md5.c"
   1:.\md5.c       **** /**
   2:.\md5.c       ****  @file		md5.c
   3:.\md5.c       ****  @brief 		support MD5 for PPPoE CHAP mode
   4:.\md5.c       **** 
   5:.\md5.c       ****  taken from RFC-1321/Appendix A.3
   6:.\md5.c       ****  MD5C.C - RSA Data Security, Inc., MD5 message-digest algorithm
   7:.\md5.c       ****  */
   8:.\md5.c       **** 
   9:.\md5.c       **** 
  10:.\md5.c       **** #include <string.h>
  11:.\md5.c       **** #include "md5.h"
  12:.\md5.c       **** 
  13:.\md5.c       **** // Constants for Transform routine.
  14:.\md5.c       **** #define S11    7
  15:.\md5.c       **** #define S12   12
  16:.\md5.c       **** #define S13   17
  17:.\md5.c       **** #define S14   22
  18:.\md5.c       **** #define S21    5
  19:.\md5.c       **** #define S22    9
  20:.\md5.c       **** #define S23   14
  21:.\md5.c       **** #define S24   20
  22:.\md5.c       **** #define S31    4
  23:.\md5.c       **** #define S32   11
  24:.\md5.c       **** #define S33   16
  25:.\md5.c       **** #define S34   23
  26:.\md5.c       **** #define S41    6
  27:.\md5.c       **** #define S42   10
  28:.\md5.c       **** #define S43   15
  29:.\md5.c       **** #define S44   21
  30:.\md5.c       **** 
  31:.\md5.c       **** static void md5_transform (uint32_t[4], uint8_t [64]);
  32:.\md5.c       **** static void md5_encode    (uint8_t *, uint32_t *, uint32_t);
  33:.\md5.c       **** static void md5_decode    (uint32_t *, uint8_t *, uint32_t);
ARM GAS  C:\Users\atsu\AppData\Local\Temp\ccFWVBKl.s 			page 2


  34:.\md5.c       **** 
  35:.\md5.c       **** static uint8_t padding[64] = {
  36:.\md5.c       **** 	0x80, 0, 0, 0, 0, 0, 0, 0, 0, 0, 0, 0, 0, 0, 0, 0, 0, 0, 0, 0,
  37:.\md5.c       **** 	0, 0, 0, 0, 0, 0, 0, 0, 0, 0, 0, 0, 0, 0, 0, 0, 0, 0, 0, 0, 0,
  38:.\md5.c       **** 	0, 0, 0, 0, 0, 0, 0, 0, 0, 0, 0, 0, 0, 0, 0, 0, 0, 0, 0, 0, 0,
  39:.\md5.c       **** 	0, 0
  40:.\md5.c       **** };
  41:.\md5.c       **** 
  42:.\md5.c       **** // F, G, H and I are basic md5 functions.
  43:.\md5.c       **** #define F(x, y, z) (((x) & (y)) | ((~x) & (z)))
  44:.\md5.c       **** #define G(x, y, z) (((x) & (z)) | ((y) & (~z)))
  45:.\md5.c       **** #define H(x, y, z) ((x) ^ (y) ^ (z))
  46:.\md5.c       **** #define I(x, y, z) ((y) ^ ((x) | (~z)))
  47:.\md5.c       **** 
  48:.\md5.c       **** /**
  49:.\md5.c       ****  @brief ROTATE_LEFT rotates x left n bits.
  50:.\md5.c       ****  */
  51:.\md5.c       **** #define ROTATE_LEFT(x, n) (((x) << (n)) | ((x) >> (32-(n))))
  52:.\md5.c       **** 	
  53:.\md5.c       **** 
  54:.\md5.c       **** 	uint32_t FF(uint32_t a, uint32_t b, uint32_t c, uint32_t d, uint32_t x, uint32_t s, uint32_t ac)
  55:.\md5.c       **** 	{
  56:.\md5.c       **** 		a += F (b, c, d) + x + (uint32_t)(ac);
  57:.\md5.c       **** 		a = ROTATE_LEFT (a, s);
  58:.\md5.c       **** 		a += b;
  59:.\md5.c       **** 		return a;
  60:.\md5.c       **** 	}
  61:.\md5.c       **** 	uint32_t GG(uint32_t a, uint32_t b, uint32_t c, uint32_t d, uint32_t x, uint32_t s, uint32_t ac)
  62:.\md5.c       **** 	{
  63:.\md5.c       **** 		a += G (b, c, d) + x + (uint32_t)(ac);
  64:.\md5.c       **** 		a = ROTATE_LEFT (a, s);
  65:.\md5.c       **** 		a += b;
  66:.\md5.c       **** 		return a;
  67:.\md5.c       **** 	}
  68:.\md5.c       **** 	
  69:.\md5.c       **** 	uint32_t HH(uint32_t a, uint32_t b, uint32_t c, uint32_t d, uint32_t x, uint32_t s, uint32_t ac)
  70:.\md5.c       **** 	{
  71:.\md5.c       **** 		a += H (b, c, d) + x + (uint32_t)(ac);
  72:.\md5.c       **** 		a = ROTATE_LEFT (a, s);
  73:.\md5.c       **** 		a += b;
  74:.\md5.c       **** 		return a;
  75:.\md5.c       **** 	}
  76:.\md5.c       **** 
  77:.\md5.c       **** 	uint32_t II(uint32_t a, uint32_t b, uint32_t c, uint32_t d, uint32_t x, uint32_t s, uint32_t ac)
  78:.\md5.c       **** 	{
  79:.\md5.c       **** 		a += I (b, c, d) + x + (uint32_t)(ac);
  80:.\md5.c       **** 		a = ROTATE_LEFT (a, s);
  81:.\md5.c       **** 		a += b;
  82:.\md5.c       **** 		return a;
  83:.\md5.c       **** 	}
  84:.\md5.c       **** 
  85:.\md5.c       **** /**
  86:.\md5.c       ****  @brief	md5 initialization. Begins an md5 operation, writing a new context.
  87:.\md5.c       ****  */
  88:.\md5.c       **** void md5_init(md5_ctx *context)
  89:.\md5.c       **** {
  90:.\md5.c       **** 	context->count[0] = context->count[1] = 0;
ARM GAS  C:\Users\atsu\AppData\Local\Temp\ccFWVBKl.s 			page 3


  91:.\md5.c       **** 	
  92:.\md5.c       **** 	// Load magic initialization constants.
  93:.\md5.c       **** 	context->state[0] = 0x67452301;
  94:.\md5.c       **** 	context->state[1] = 0xefcdab89;
  95:.\md5.c       **** 	context->state[2] = 0x98badcfe;
  96:.\md5.c       **** 	context->state[3] = 0x10325476;
  97:.\md5.c       **** }
  98:.\md5.c       **** 
  99:.\md5.c       **** /**
 100:.\md5.c       ****  @brief	md5 block update operation. Continues an md5 message-digest operation,
 101:.\md5.c       **** 		processing another message block, and updating the context.
 102:.\md5.c       **** */		
 103:.\md5.c       **** void md5_update(md5_ctx * context, uint8_t *input, uint32_t inputLen)
 104:.\md5.c       **** {
 105:.\md5.c       **** 	uint32_t i, index, partLen;
 106:.\md5.c       **** 	
 107:.\md5.c       **** 	// Compute number of bytes mod 64
 108:.\md5.c       **** 	index = (uint32_t)((context->count[0] >> 3) & 0x3F);
 109:.\md5.c       **** 	
 110:.\md5.c       **** 	// Update number of bits
 111:.\md5.c       **** 	if ((context->count[0] += ((uint32_t)inputLen << 3)) < ((uint32_t)inputLen << 3))
 112:.\md5.c       **** 		context->count[1]++;
 113:.\md5.c       **** 	context->count[1] += ((uint32_t)inputLen >> 29);
 114:.\md5.c       **** 	
 115:.\md5.c       **** 	partLen = 64 - index;
 116:.\md5.c       **** 	
 117:.\md5.c       **** 	// md5_Transform as many times as possible.
 118:.\md5.c       **** 	if (inputLen >= partLen)
 119:.\md5.c       **** 	{
 120:.\md5.c       **** 		memcpy(&context->buffer[index], input, partLen);
 121:.\md5.c       **** 		md5_transform(context->state, context->buffer);
 122:.\md5.c       **** 	
 123:.\md5.c       **** 		for (i = partLen; i + 63 < inputLen; i += 64)
 124:.\md5.c       **** 			md5_transform(context->state, &input[i]);
 125:.\md5.c       **** 		index = 0;
 126:.\md5.c       **** 	}
 127:.\md5.c       **** 	else
 128:.\md5.c       **** 		i = 0;
 129:.\md5.c       **** 	
 130:.\md5.c       **** 	// Buffer remaining input
 131:.\md5.c       **** 	memcpy(&context->buffer[index], &input[i], inputLen - i);
 132:.\md5.c       **** }
 133:.\md5.c       **** 
 134:.\md5.c       **** /**
 135:.\md5.c       ****  @brief	md5 finalization. Ends an md5 message-digest operation, writing the
 136:.\md5.c       **** 		message digest and zeroizing the context.
 137:.\md5.c       **** */		
 138:.\md5.c       **** void md5_final(uint8_t digest[16], md5_ctx *context)
 139:.\md5.c       **** {
 140:.\md5.c       **** 	uint8_t  bits[8];
 141:.\md5.c       **** 	uint32_t index, padLen;
 142:.\md5.c       **** 	
 143:.\md5.c       **** 	// Save number of bits
 144:.\md5.c       **** 	md5_encode(bits, context->count, 8);
 145:.\md5.c       **** 	
 146:.\md5.c       **** 	// Pad out to 56 mod 64.
 147:.\md5.c       **** 	index  = (uint32_t)((context->count[0] >> 3) & 0x3f);
ARM GAS  C:\Users\atsu\AppData\Local\Temp\ccFWVBKl.s 			page 4


 148:.\md5.c       **** 	padLen = (index < 56) ? (56 - index) : (120 - index);
 149:.\md5.c       **** 	md5_update(context, padding, padLen);
 150:.\md5.c       **** 	
 151:.\md5.c       **** 	// Append length (before padding)
 152:.\md5.c       **** 	md5_update(context, bits, 8);
 153:.\md5.c       **** 	// Store state in digest
 154:.\md5.c       **** 	md5_encode(digest, context->state, 16);
 155:.\md5.c       **** 	
 156:.\md5.c       **** 	// Zeroize sensitive information.
 157:.\md5.c       **** 	memset((void*)context,0,sizeof(*context));
 158:.\md5.c       **** }
 159:.\md5.c       **** 
 160:.\md5.c       **** /**
 161:.\md5.c       ****  @brief	md5 basic transformation. Transforms state based on block.
 162:.\md5.c       ****  */
 163:.\md5.c       **** static void md5_transform(uint32_t state[4], uint8_t block[64])
 164:.\md5.c       **** {
 165:.\md5.c       **** 	uint32_t a = state[0];
 166:.\md5.c       **** 	uint32_t b = state[1];
 167:.\md5.c       **** 	uint32_t c = state[2];
 168:.\md5.c       **** 	uint32_t d = state[3];
 169:.\md5.c       **** 	uint32_t x[16];
 170:.\md5.c       **** 	
 171:.\md5.c       **** 	md5_decode(x, block, 64);
 172:.\md5.c       **** 
 173:.\md5.c       **** 	// Round 1
 174:.\md5.c       **** 	a = FF(a, b, c, d, x[0],  S11, 0xd76aa478);	// 1
 175:.\md5.c       **** 	d = FF(d, a, b, c, x[1],  S12, 0xe8c7b756); // 2
 176:.\md5.c       **** 	c = FF(c, d, a, b, x[2],  S13, 0x242070db); // 3
 177:.\md5.c       **** 	b = FF(b, c, d, a, x[3],  S14, 0xc1bdceee); // 4
 178:.\md5.c       **** 	a = FF(a, b, c, d, x[4],  S11, 0xf57c0faf); // 5
 179:.\md5.c       **** 	d = FF(d, a, b, c, x[5],  S12, 0x4787c62a); // 6
 180:.\md5.c       **** 	c = FF(c, d, a, b, x[6],  S13, 0xa8304613); // 7
 181:.\md5.c       **** 	b = FF(b, c, d, a, x[7],  S14, 0xfd469501); // 8
 182:.\md5.c       **** 	a = FF(a, b, c, d, x[8],  S11, 0x698098d8); // 9
 183:.\md5.c       **** 	d = FF(d, a, b, c, x[9],  S12, 0x8b44f7af); // 10
 184:.\md5.c       **** 	c = FF(c, d, a, b, x[10], S13, 0xffff5bb1); // 11
 185:.\md5.c       **** 	b = FF(b, c, d, a, x[11], S14, 0x895cd7be); // 12
 186:.\md5.c       **** 	a = FF(a, b, c, d, x[12], S11, 0x6b901122); // 13
 187:.\md5.c       **** 	d = FF(d, a, b, c, x[13], S12, 0xfd987193); // 14
 188:.\md5.c       **** 	c = FF(c, d, a, b, x[14], S13, 0xa679438e); // 15
 189:.\md5.c       **** 	b = FF(b, c, d, a, x[15], S14, 0x49b40821); // 16
 190:.\md5.c       **** 
 191:.\md5.c       **** 	// Round 2
 192:.\md5.c       **** 	a = GG(a, b, c, d, x[1],  S21, 0xf61e2562); // 17
 193:.\md5.c       **** 	d = GG(d, a, b, c, x[6],  S22, 0xc040b340); // 18
 194:.\md5.c       **** 	c = GG(c, d, a, b, x[11], S23, 0x265e5a51); // 19
 195:.\md5.c       **** 	b = GG(b, c, d, a, x[0],  S24, 0xe9b6c7aa); // 20
 196:.\md5.c       **** 	a = GG(a, b, c, d, x[5],  S21, 0xd62f105d); // 21
 197:.\md5.c       **** 	d = GG(d, a, b, c, x[10], S22, 0x2441453);  // 22
 198:.\md5.c       **** 	c = GG(c, d, a, b, x[15], S23, 0xd8a1e681); // 23
 199:.\md5.c       **** 	b = GG(b, c, d, a, x[4],  S24, 0xe7d3fbc8); // 24
 200:.\md5.c       **** 	a = GG(a, b, c, d, x[9],  S21, 0x21e1cde6); // 25
 201:.\md5.c       **** 	d = GG(d, a, b, c, x[14], S22, 0xc33707d6); // 26
 202:.\md5.c       **** 	c = GG(c, d, a, b, x[3],  S23, 0xf4d50d87); // 27
 203:.\md5.c       **** 	b = GG(b, c, d, a, x[8],  S24, 0x455a14ed); // 28
 204:.\md5.c       **** 	a = GG(a, b, c, d, x[13], S21, 0xa9e3e905); // 29
ARM GAS  C:\Users\atsu\AppData\Local\Temp\ccFWVBKl.s 			page 5


 205:.\md5.c       **** 	d = GG(d, a, b, c, x[2],  S22, 0xfcefa3f8); // 30
 206:.\md5.c       **** 	c = GG(c, d, a, b, x[7],  S23, 0x676f02d9); // 31
 207:.\md5.c       **** 	b = GG(b, c, d, a, x[12], S24, 0x8d2a4c8a); // 32
 208:.\md5.c       **** 	
 209:.\md5.c       **** 	// Round 3
 210:.\md5.c       **** 	a = HH(a, b, c, d, x[5],  S31, 0xfffa3942); // 33
 211:.\md5.c       **** 	d = HH(d, a, b, c, x[8],  S32, 0x8771f681); // 34
 212:.\md5.c       **** 	c = HH(c, d, a, b, x[11], S33, 0x6d9d6122); // 35
 213:.\md5.c       **** 	b = HH(b, c, d, a, x[14], S34, 0xfde5380c); // 36
 214:.\md5.c       **** 	a = HH(a, b, c, d, x[1],  S31, 0xa4beea44); // 37
 215:.\md5.c       **** 	d = HH(d, a, b, c, x[4],  S32, 0x4bdecfa9); // 38
 216:.\md5.c       **** 	c = HH(c, d, a, b, x[7],  S33, 0xf6bb4b60); // 39
 217:.\md5.c       **** 	b = HH(b, c, d, a, x[10], S34, 0xbebfbc70); // 40
 218:.\md5.c       **** 	a = HH(a, b, c, d, x[13], S31, 0x289b7ec6); // 41
 219:.\md5.c       **** 	d = HH(d, a, b, c, x[0],  S32, 0xeaa127fa); // 42
 220:.\md5.c       **** 	c = HH(c, d, a, b, x[3],  S33, 0xd4ef3085); // 43
 221:.\md5.c       **** 	b = HH(b, c, d, a, x[6],  S34, 0x4881d05);  // 44
 222:.\md5.c       **** 	a = HH(a, b, c, d, x[9],  S31, 0xd9d4d039); // 45
 223:.\md5.c       **** 	d = HH(d, a, b, c, x[12], S32, 0xe6db99e5); // 46
 224:.\md5.c       **** 	c = HH(c, d, a, b, x[15], S33, 0x1fa27cf8); // 47
 225:.\md5.c       **** 	b = HH(b, c, d, a, x[2],  S34, 0xc4ac5665); // 48
 226:.\md5.c       **** 
 227:.\md5.c       **** 	// Round 4
 228:.\md5.c       **** 	a = II(a, b, c, d, x[0],  S41, 0xf4292244); // 49
 229:.\md5.c       **** 	d = II(d, a, b, c, x[7],  S42, 0x432aff97); // 50
 230:.\md5.c       **** 	c = II(c, d, a, b, x[14], S43, 0xab9423a7); // 51
 231:.\md5.c       **** 	b = II(b, c, d, a, x[5],  S44, 0xfc93a039); // 52
 232:.\md5.c       **** 	a = II(a, b, c, d, x[12], S41, 0x655b59c3); // 53
 233:.\md5.c       **** 	d = II(d, a, b, c, x[3],  S42, 0x8f0ccc92); // 54
 234:.\md5.c       **** 	c = II(c, d, a, b, x[10], S43, 0xffeff47d); // 55
 235:.\md5.c       **** 	b = II(b, c, d, a, x[1],  S44, 0x85845dd1); // 56
 236:.\md5.c       **** 	a = II(a, b, c, d, x[8],  S41, 0x6fa87e4f); // 57
 237:.\md5.c       **** 	d = II(d, a, b, c, x[15], S42, 0xfe2ce6e0); // 58
 238:.\md5.c       **** 	c = II(c, d, a, b, x[6],  S43, 0xa3014314); // 59
 239:.\md5.c       **** 	b = II(b, c, d, a, x[13], S44, 0x4e0811a1); // 60
 240:.\md5.c       **** 	a = II(a, b, c, d, x[4],  S41, 0xf7537e82); // 61
 241:.\md5.c       **** 	d = II(d, a, b, c, x[11], S42, 0xbd3af235); // 62
 242:.\md5.c       **** 	c = II(c, d, a, b, x[2],  S43, 0x2ad7d2bb); // 63
 243:.\md5.c       **** 	b = II(b, c, d, a, x[9],  S44, 0xeb86d391); // 64
 244:.\md5.c       **** 
 245:.\md5.c       **** 	state[0] += a;
 246:.\md5.c       **** 	state[1] += b;
 247:.\md5.c       **** 	state[2] += c;
 248:.\md5.c       **** 	state[3] += d;
 249:.\md5.c       **** 	
 250:.\md5.c       **** 	// Zeroize sensitive information.
 251:.\md5.c       **** 	memset(&x,0,sizeof(x));
 252:.\md5.c       **** }
 253:.\md5.c       **** 
 254:.\md5.c       **** /**
 255:.\md5.c       ****  @brief	Encodes input (uint32_t) into output (uint8_t). Assumes len is a multiple of 4.
 256:.\md5.c       ****  */
 257:.\md5.c       **** static void md5_encode(uint8_t *output, uint32_t *input, uint32_t len)
 258:.\md5.c       **** {
  25              		.loc 1 258 0
  26              		.cfi_startproc
  27              	.LVL0:
ARM GAS  C:\Users\atsu\AppData\Local\Temp\ccFWVBKl.s 			page 6


  28 0000 70B5     		push	{r4, r5, r6, lr}
  29              	.LCFI0:
  30              		.cfi_def_cfa_offset 16
  31              		.cfi_offset 4, -16
  32              		.cfi_offset 5, -12
  33              		.cfi_offset 6, -8
  34              		.cfi_offset 14, -4
 259:.\md5.c       **** 	uint32_t i, j;
 260:.\md5.c       **** 	
 261:.\md5.c       **** 	for (i = 0, j = 0; j < len; i++, j += 4)
  35              		.loc 1 261 0
  36 0002 031C     		mov	r3, r0
  37              	.LVL1:
  38              	.L2:
  39              		.loc 1 261 0 is_stmt 0 discriminator 1
  40 0004 1C1A     		sub	r4, r3, r0
  41 0006 9442     		cmp	r4, r2
  42 0008 0CD2     		bcs	.L5
  43              	.L3:
 262:.\md5.c       **** 	{
 263:.\md5.c       **** 		output[j]     = (uint8_t)(input[i] & 0xff);
  44              		.loc 1 263 0 is_stmt 1 discriminator 2
  45 000a 0D68     		ldr	r5, [r1]
 257:.\md5.c       **** static void md5_encode(uint8_t *output, uint32_t *input, uint32_t len)
  46              		.loc 1 257 0 discriminator 2
  47 000c 0C1C     		mov	r4, r1
  48              		.loc 1 263 0 discriminator 2
  49 000e 1D70     		strb	r5, [r3]
 264:.\md5.c       **** 		output[j + 1] = (uint8_t)((input[i] >> 8) & 0xff);
  50              		.loc 1 264 0 discriminator 2
  51 0010 0E68     		ldr	r6, [r1]
  52 0012 350A     		lsr	r5, r6, #8
  53 0014 5D70     		strb	r5, [r3, #1]
 265:.\md5.c       **** 		output[j + 2] = (uint8_t)((input[i] >> 16) & 0xff);
  54              		.loc 1 265 0 discriminator 2
  55 0016 40C9     		ldmia	r1!, {r6}
  56 0018 350C     		lsr	r5, r6, #16
  57 001a 9D70     		strb	r5, [r3, #2]
 266:.\md5.c       **** 		output[j + 3] = (uint8_t)((input[i] >> 24) & 0xff);
  58              		.loc 1 266 0 discriminator 2
  59 001c E478     		ldrb	r4, [r4, #3]
  60 001e DC70     		strb	r4, [r3, #3]
  61 0020 0433     		add	r3, r3, #4
  62 0022 EFE7     		b	.L2
  63              	.L5:
 267:.\md5.c       **** 	}
 268:.\md5.c       **** }
  64              		.loc 1 268 0
  65              		@ sp needed for prologue
  66 0024 70BD     		pop	{r4, r5, r6, pc}
  67              		.cfi_endproc
  68              	.LFE8:
  69              		.size	md5_encode, .-md5_encode
  70              		.section	.text.md5_transform,"ax",%progbits
  71              		.align	1
  72              		.code	16
  73              		.thumb_func
ARM GAS  C:\Users\atsu\AppData\Local\Temp\ccFWVBKl.s 			page 7


  74              		.type	md5_transform, %function
  75              	md5_transform:
  76              	.LFB7:
 164:.\md5.c       **** {
  77              		.loc 1 164 0
  78              		.cfi_startproc
  79              	.LVL2:
  80 0000 F0B5     		push	{r4, r5, r6, r7, lr}
  81              	.LCFI1:
  82              		.cfi_def_cfa_offset 20
  83              		.cfi_offset 4, -20
  84              		.cfi_offset 5, -16
  85              		.cfi_offset 6, -12
  86              		.cfi_offset 7, -8
  87              		.cfi_offset 14, -4
  88 0002 99B0     		sub	sp, sp, #100
  89              	.LCFI2:
  90              		.cfi_def_cfa_offset 120
 164:.\md5.c       **** {
  91              		.loc 1 164 0
  92 0004 0290     		str	r0, [sp, #8]
 166:.\md5.c       **** 	uint32_t b = state[1];
  93              		.loc 1 166 0
  94 0006 029A     		ldr	r2, [sp, #8]
 167:.\md5.c       **** 	uint32_t c = state[2];
  95              		.loc 1 167 0
  96 0008 029C     		ldr	r4, [sp, #8]
 168:.\md5.c       **** 	uint32_t d = state[3];
  97              		.loc 1 168 0
  98 000a 029E     		ldr	r6, [sp, #8]
 165:.\md5.c       **** 	uint32_t a = state[0];
  99              		.loc 1 165 0
 100 000c 0068     		ldr	r0, [r0]
 101              	.LVL3:
 166:.\md5.c       **** 	uint32_t b = state[1];
 102              		.loc 1 166 0
 103 000e 5368     		ldr	r3, [r2, #4]
 167:.\md5.c       **** 	uint32_t c = state[2];
 104              		.loc 1 167 0
 105 0010 A568     		ldr	r5, [r4, #8]
 168:.\md5.c       **** 	uint32_t d = state[3];
 106              		.loc 1 168 0
 107 0012 F768     		ldr	r7, [r6, #12]
 165:.\md5.c       **** 	uint32_t a = state[0];
 108              		.loc 1 165 0
 109 0014 0790     		str	r0, [sp, #28]
 110              	.LVL4:
 269:.\md5.c       **** 
 270:.\md5.c       **** /**
 271:.\md5.c       ****  @brief Decodes input (uint8_t) into output (uint32_t). Assumes len is a multiple of 4.
 272:.\md5.c       ****  */
 273:.\md5.c       **** static void md5_decode(uint32_t *output, uint8_t *input, uint32_t len)
 274:.\md5.c       **** {
 275:.\md5.c       **** 	uint32_t i, j;
 276:.\md5.c       **** 	for (i = 0, j = 0; j < len; i++, j += 4)
 111              		.loc 1 276 0
 112 0016 0020     		mov	r0, #0
ARM GAS  C:\Users\atsu\AppData\Local\Temp\ccFWVBKl.s 			page 8


 113              	.LVL5:
 166:.\md5.c       **** 	uint32_t b = state[1];
 114              		.loc 1 166 0
 115 0018 0393     		str	r3, [sp, #12]
 116              	.LVL6:
 167:.\md5.c       **** 	uint32_t c = state[2];
 117              		.loc 1 167 0
 118 001a 0595     		str	r5, [sp, #20]
 119              	.LVL7:
 168:.\md5.c       **** 	uint32_t d = state[3];
 120              		.loc 1 168 0
 121 001c 0697     		str	r7, [sp, #24]
 122              	.LVL8:
 123              		.loc 1 276 0
 124 001e 0490     		str	r0, [sp, #16]
 125              	.LVL9:
 126              	.L7:
 127              	.LBB260:
 128              	.LBB261:
 277:.\md5.c       **** 		output[i] = ((uint32_t) input[j]) | (((uint32_t) input[j + 1]) << 8) |
 129              		.loc 1 277 0
 130 0020 4A78     		ldrb	r2, [r1, #1]
 278:.\md5.c       **** 				(((uint32_t)input[j + 2]) << 16) | (((uint32_t)input[j + 3]) << 24);
 131              		.loc 1 278 0
 132 0022 8B78     		ldrb	r3, [r1, #2]
 277:.\md5.c       **** 		output[i] = ((uint32_t) input[j]) | (((uint32_t) input[j + 1]) << 8) |
 133              		.loc 1 277 0
 134 0024 1402     		lsl	r4, r2, #8
 135 0026 0E78     		ldrb	r6, [r1]
 136              		.loc 1 278 0
 137 0028 CF78     		ldrb	r7, [r1, #3]
 138 002a 1D04     		lsl	r5, r3, #16
 277:.\md5.c       **** 		output[i] = ((uint32_t) input[j]) | (((uint32_t) input[j + 1]) << 8) |
 139              		.loc 1 277 0
 140 002c 2543     		orr	r5, r4
 141 002e 3543     		orr	r5, r6
 142 0030 049C     		ldr	r4, [sp, #16]
 143              		.loc 1 278 0
 144 0032 3806     		lsl	r0, r7, #24
 145 0034 0543     		orr	r5, r0
 277:.\md5.c       **** 		output[i] = ((uint32_t) input[j]) | (((uint32_t) input[j + 1]) << 8) |
 146              		.loc 1 277 0
 147 0036 08AA     		add	r2, sp, #32
 148 0038 A550     		str	r5, [r4, r2]
 276:.\md5.c       **** 	for (i = 0, j = 0; j < len; i++, j += 4)
 149              		.loc 1 276 0
 150 003a 0434     		add	r4, r4, #4
 151 003c 0494     		str	r4, [sp, #16]
 152              	.LVL10:
 153 003e 0431     		add	r1, r1, #4
 154 0040 402C     		cmp	r4, #64
 155 0042 EDD1     		bne	.L7
 156              	.LVL11:
 157              	.LBE261:
 158              	.LBE260:
 159              	.LBB262:
 160              	.LBB263:
ARM GAS  C:\Users\atsu\AppData\Local\Temp\ccFWVBKl.s 			page 9


  56:.\md5.c       **** 		a += F (b, c, d) + x + (uint32_t)(ac);
 161              		.loc 1 56 0
 162 0044 089B     		ldr	r3, [sp, #32]
 163 0046 FE49     		ldr	r1, .L9
 164 0048 039C     		ldr	r4, [sp, #12]
 165              	.LVL12:
 166 004a 5D18     		add	r5, r3, r1
 167 004c 0698     		ldr	r0, [sp, #24]
 168 004e 059B     		ldr	r3, [sp, #20]
 169 0050 079E     		ldr	r6, [sp, #28]
 170 0052 221C     		mov	r2, r4
 171              	.LVL13:
 172 0054 1A40     		and	r2, r3
 173 0056 A043     		bic	r0, r4
 174 0058 AF19     		add	r7, r5, r6
 175 005a 1043     		orr	r0, r2
  57:.\md5.c       **** 		a = ROTATE_LEFT (a, s);
 176              		.loc 1 57 0
 177 005c 1925     		mov	r5, #25
  56:.\md5.c       **** 		a += F (b, c, d) + x + (uint32_t)(ac);
 178              		.loc 1 56 0
 179 005e 3918     		add	r1, r7, r0
 180              	.LVL14:
  57:.\md5.c       **** 		a = ROTATE_LEFT (a, s);
 181              		.loc 1 57 0
 182 0060 E941     		ror	r1, r1, r5
 183              	.LVL15:
  58:.\md5.c       **** 		a += b;
 184              		.loc 1 58 0
 185 0062 0E19     		add	r6, r1, r4
 186              	.LVL16:
 187              	.LBE263:
 188              	.LBE262:
 189              	.LBB264:
 190              	.LBB265:
  56:.\md5.c       **** 		a += F (b, c, d) + x + (uint32_t)(ac);
 191              		.loc 1 56 0
 192 0064 099F     		ldr	r7, [sp, #36]
 193 0066 0599     		ldr	r1, [sp, #20]
 194 0068 F648     		ldr	r0, .L9+4
 195 006a 069B     		ldr	r3, [sp, #24]
 196 006c 3A18     		add	r2, r7, r0
 197 006e 3440     		and	r4, r6
 198 0070 B143     		bic	r1, r6
 199 0072 D718     		add	r7, r2, r3
 200 0074 2143     		orr	r1, r4
 201 0076 7818     		add	r0, r7, r1
 202              	.LVL17:
  57:.\md5.c       **** 		a = ROTATE_LEFT (a, s);
 203              		.loc 1 57 0
 204 0078 1427     		mov	r7, #20
 205              	.LBE265:
 206              	.LBE264:
 207              	.LBB268:
 208              	.LBB269:
  56:.\md5.c       **** 		a += F (b, c, d) + x + (uint32_t)(ac);
 209              		.loc 1 56 0
ARM GAS  C:\Users\atsu\AppData\Local\Temp\ccFWVBKl.s 			page 10


 210 007a 0A9A     		ldr	r2, [sp, #40]
 211              	.LBE269:
 212              	.LBE268:
 213              	.LBB272:
 214              	.LBB266:
  57:.\md5.c       **** 		a = ROTATE_LEFT (a, s);
 215              		.loc 1 57 0
 216 007c F841     		ror	r0, r0, r7
 217              	.LVL18:
 218              	.LBE266:
 219              	.LBE272:
 220              	.LBB273:
 221              	.LBB270:
  56:.\md5.c       **** 		a += F (b, c, d) + x + (uint32_t)(ac);
 222              		.loc 1 56 0
 223 007e F24B     		ldr	r3, .L9+8
 224              	.LBE270:
 225              	.LBE273:
 226              	.LBB274:
 227              	.LBB267:
  58:.\md5.c       **** 		a += b;
 228              		.loc 1 58 0
 229 0080 8119     		add	r1, r0, r6
 230              	.LVL19:
 231              	.LBE267:
 232              	.LBE274:
 233              	.LBB275:
 234              	.LBB271:
  56:.\md5.c       **** 		a += F (b, c, d) + x + (uint32_t)(ac);
 235              		.loc 1 56 0
 236 0082 0598     		ldr	r0, [sp, #20]
 237 0084 D418     		add	r4, r2, r3
 238 0086 2318     		add	r3, r4, r0
 239 0088 039C     		ldr	r4, [sp, #12]
 240 008a 321C     		mov	r2, r6
 241              	.LVL20:
 242 008c 8C43     		bic	r4, r1
 243 008e 0A40     		and	r2, r1
 244 0090 2243     		orr	r2, r4
 245 0092 9818     		add	r0, r3, r2
 246              	.LVL21:
  57:.\md5.c       **** 		a = ROTATE_LEFT (a, s);
 247              		.loc 1 57 0
 248 0094 0F23     		mov	r3, #15
 249 0096 D841     		ror	r0, r0, r3
 250              	.LVL22:
  58:.\md5.c       **** 		a += b;
 251              		.loc 1 58 0
 252 0098 4218     		add	r2, r0, r1
 253              	.LVL23:
 254              	.LBE271:
 255              	.LBE275:
 256              	.LBB276:
 257              	.LBB277:
  56:.\md5.c       **** 		a += F (b, c, d) + x + (uint32_t)(ac);
 258              		.loc 1 56 0
 259 009a 0B9C     		ldr	r4, [sp, #44]
ARM GAS  C:\Users\atsu\AppData\Local\Temp\ccFWVBKl.s 			page 11


 260 009c EB48     		ldr	r0, .L9+12
 261 009e 2318     		add	r3, r4, r0
 262 00a0 039C     		ldr	r4, [sp, #12]
 263 00a2 1819     		add	r0, r3, r4
 264 00a4 331C     		mov	r3, r6
 265 00a6 9343     		bic	r3, r2
 266 00a8 9C46     		mov	ip, r3
 267 00aa 0B1C     		mov	r3, r1
 268 00ac 6446     		mov	r4, ip
 269 00ae 1340     		and	r3, r2
 270 00b0 2343     		orr	r3, r4
 271 00b2 C318     		add	r3, r0, r3
 272              	.LVL24:
 273              	.LBE277:
 274              	.LBE276:
 275              	.LBB280:
 276              	.LBB281:
 277 00b4 0C9C     		ldr	r4, [sp, #48]
 278              	.LBE281:
 279              	.LBE280:
 280              	.LBB285:
 281              	.LBB278:
  57:.\md5.c       **** 		a = ROTATE_LEFT (a, s);
 282              		.loc 1 57 0
 283 00b6 0A20     		mov	r0, #10
 284 00b8 C341     		ror	r3, r3, r0
 285              	.LVL25:
 286              	.LBE278:
 287              	.LBE285:
 288              	.LBB286:
 289              	.LBB282:
  56:.\md5.c       **** 		a += F (b, c, d) + x + (uint32_t)(ac);
 290              		.loc 1 56 0
 291 00ba E548     		ldr	r0, .L9+16
 292 00bc A446     		mov	ip, r4
 293              	.LBE282:
 294              	.LBE286:
 295              	.LBB287:
 296              	.LBB279:
  58:.\md5.c       **** 		a += b;
 297              		.loc 1 58 0
 298 00be 9B18     		add	r3, r3, r2
 299              	.LVL26:
 300              	.LBE279:
 301              	.LBE287:
 302              	.LBB288:
 303              	.LBB283:
  56:.\md5.c       **** 		a += F (b, c, d) + x + (uint32_t)(ac);
 304              		.loc 1 56 0
 305 00c0 8444     		add	ip, ip, r0
 306 00c2 141C     		mov	r4, r2
 307              	.LVL27:
 308 00c4 081C     		mov	r0, r1
 309 00c6 9843     		bic	r0, r3
 310 00c8 1C40     		and	r4, r3
 311 00ca 0443     		orr	r4, r0
 312 00cc 6644     		add	r6, r6, ip
ARM GAS  C:\Users\atsu\AppData\Local\Temp\ccFWVBKl.s 			page 12


 313              	.LVL28:
 314 00ce 3619     		add	r6, r6, r4
 315              	.LVL29:
 316              	.LBE283:
 317              	.LBE288:
 318              	.LBB289:
 319              	.LBB290:
 320 00d0 0D98     		ldr	r0, [sp, #52]
 321              	.LBE290:
 322              	.LBE289:
 323              	.LBB295:
 324              	.LBB284:
  57:.\md5.c       **** 		a = ROTATE_LEFT (a, s);
 325              		.loc 1 57 0
 326 00d2 EE41     		ror	r6, r6, r5
 327              	.LVL30:
  58:.\md5.c       **** 		a += b;
 328              		.loc 1 58 0
 329 00d4 F418     		add	r4, r6, r3
 330              	.LVL31:
 331              	.LBE284:
 332              	.LBE295:
 333              	.LBB296:
 334              	.LBB291:
  56:.\md5.c       **** 		a += F (b, c, d) + x + (uint32_t)(ac);
 335              		.loc 1 56 0
 336 00d6 DF4E     		ldr	r6, .L9+20
 337 00d8 8446     		mov	ip, r0
 338 00da B444     		add	ip, ip, r6
 339 00dc 101C     		mov	r0, r2
 340              	.LVL32:
 341 00de 1E1C     		mov	r6, r3
 342 00e0 A043     		bic	r0, r4
 343 00e2 2640     		and	r6, r4
 344 00e4 0643     		orr	r6, r0
 345 00e6 6144     		add	r1, r1, ip
 346              	.LVL33:
 347              	.LBE291:
 348              	.LBE296:
 349              	.LBB297:
 350              	.LBB298:
 351 00e8 0E98     		ldr	r0, [sp, #56]
 352              	.LBE298:
 353              	.LBE297:
 354              	.LBB304:
 355              	.LBB292:
 356 00ea 8919     		add	r1, r1, r6
 357              	.LVL34:
 358              	.LBE292:
 359              	.LBE304:
 360              	.LBB305:
 361              	.LBB299:
 362 00ec DA4E     		ldr	r6, .L9+24
 363              	.LBE299:
 364              	.LBE305:
 365              	.LBB306:
 366              	.LBB293:
ARM GAS  C:\Users\atsu\AppData\Local\Temp\ccFWVBKl.s 			page 13


  57:.\md5.c       **** 		a = ROTATE_LEFT (a, s);
 367              		.loc 1 57 0
 368 00ee F941     		ror	r1, r1, r7
 369              	.LVL35:
 370              	.LBE293:
 371              	.LBE306:
 372              	.LBB307:
 373              	.LBB300:
  56:.\md5.c       **** 		a += F (b, c, d) + x + (uint32_t)(ac);
 374              		.loc 1 56 0
 375 00f0 8446     		mov	ip, r0
 376              	.LBE300:
 377              	.LBE307:
 378              	.LBB308:
 379              	.LBB294:
  58:.\md5.c       **** 		a += b;
 380              		.loc 1 58 0
 381 00f2 0919     		add	r1, r1, r4
 382              	.LVL36:
 383              	.LBE294:
 384              	.LBE308:
 385              	.LBB309:
 386              	.LBB301:
  56:.\md5.c       **** 		a += F (b, c, d) + x + (uint32_t)(ac);
 387              		.loc 1 56 0
 388 00f4 B444     		add	ip, ip, r6
 389 00f6 181C     		mov	r0, r3
 390              	.LVL37:
 391 00f8 261C     		mov	r6, r4
 392 00fa 8843     		bic	r0, r1
 393 00fc 0E40     		and	r6, r1
 394 00fe 0643     		orr	r6, r0
 395 0100 6244     		add	r2, r2, ip
 396              	.LVL38:
 397 0102 9219     		add	r2, r2, r6
 398              	.LVL39:
  57:.\md5.c       **** 		a = ROTATE_LEFT (a, s);
 399              		.loc 1 57 0
 400 0104 0F20     		mov	r0, #15
 401              	.LBE301:
 402              	.LBE309:
 403              	.LBB310:
 404              	.LBB311:
  56:.\md5.c       **** 		a += F (b, c, d) + x + (uint32_t)(ac);
 405              		.loc 1 56 0
 406 0106 0F9E     		ldr	r6, [sp, #60]
 407              	.LBE311:
 408              	.LBE310:
 409              	.LBB316:
 410              	.LBB302:
  57:.\md5.c       **** 		a = ROTATE_LEFT (a, s);
 411              		.loc 1 57 0
 412 0108 C241     		ror	r2, r2, r0
 413              	.LVL40:
 414              	.LBE302:
 415              	.LBE316:
 416              	.LBB317:
ARM GAS  C:\Users\atsu\AppData\Local\Temp\ccFWVBKl.s 			page 14


 417              	.LBB312:
  56:.\md5.c       **** 		a += F (b, c, d) + x + (uint32_t)(ac);
 418              		.loc 1 56 0
 419 010a D448     		ldr	r0, .L9+28
 420              	.LBE312:
 421              	.LBE317:
 422              	.LBB318:
 423              	.LBB303:
  58:.\md5.c       **** 		a += b;
 424              		.loc 1 58 0
 425 010c 5218     		add	r2, r2, r1
 426              	.LVL41:
 427              	.LBE303:
 428              	.LBE318:
 429              	.LBB319:
 430              	.LBB313:
  56:.\md5.c       **** 		a += F (b, c, d) + x + (uint32_t)(ac);
 431              		.loc 1 56 0
 432 010e B446     		mov	ip, r6
 433 0110 261C     		mov	r6, r4
 434              	.LVL42:
 435 0112 8444     		add	ip, ip, r0
 436              	.LVL43:
 437 0114 9643     		bic	r6, r2
 438 0116 6344     		add	r3, r3, ip
 439              	.LVL44:
 440 0118 B446     		mov	ip, r6
 441 011a 0E1C     		mov	r6, r1
 442 011c 6046     		mov	r0, ip
 443 011e 1640     		and	r6, r2
 444 0120 0643     		orr	r6, r0
 445 0122 9B19     		add	r3, r3, r6
 446              	.LVL45:
 447              	.LBE313:
 448              	.LBE319:
 449              	.LBB320:
 450              	.LBB321:
 451 0124 1098     		ldr	r0, [sp, #64]
 452              	.LBE321:
 453              	.LBE320:
 454              	.LBB326:
 455              	.LBB314:
  57:.\md5.c       **** 		a = ROTATE_LEFT (a, s);
 456              		.loc 1 57 0
 457 0126 0A26     		mov	r6, #10
 458 0128 F341     		ror	r3, r3, r6
 459              	.LVL46:
 460              	.LBE314:
 461              	.LBE326:
 462              	.LBB327:
 463              	.LBB322:
  56:.\md5.c       **** 		a += F (b, c, d) + x + (uint32_t)(ac);
 464              		.loc 1 56 0
 465 012a CD4E     		ldr	r6, .L9+32
 466 012c 8446     		mov	ip, r0
 467              	.LBE322:
 468              	.LBE327:
ARM GAS  C:\Users\atsu\AppData\Local\Temp\ccFWVBKl.s 			page 15


 469              	.LBB328:
 470              	.LBB315:
  58:.\md5.c       **** 		a += b;
 471              		.loc 1 58 0
 472 012e 9B18     		add	r3, r3, r2
 473              	.LVL47:
 474              	.LBE315:
 475              	.LBE328:
 476              	.LBB329:
 477              	.LBB323:
  56:.\md5.c       **** 		a += F (b, c, d) + x + (uint32_t)(ac);
 478              		.loc 1 56 0
 479 0130 B444     		add	ip, ip, r6
 480 0132 081C     		mov	r0, r1
 481              	.LVL48:
 482 0134 161C     		mov	r6, r2
 483 0136 9843     		bic	r0, r3
 484 0138 1E40     		and	r6, r3
 485 013a 0643     		orr	r6, r0
 486 013c 6444     		add	r4, r4, ip
 487              	.LVL49:
 488 013e A419     		add	r4, r4, r6
 489              	.LVL50:
 490              	.LBE323:
 491              	.LBE329:
 492              	.LBB330:
 493              	.LBB331:
 494 0140 119E     		ldr	r6, [sp, #68]
 495 0142 C848     		ldr	r0, .L9+36
 496              	.LBE331:
 497              	.LBE330:
 498              	.LBB337:
 499              	.LBB324:
  57:.\md5.c       **** 		a = ROTATE_LEFT (a, s);
 500              		.loc 1 57 0
 501 0144 EC41     		ror	r4, r4, r5
 502              	.LVL51:
 503              	.LBE324:
 504              	.LBE337:
 505              	.LBB338:
 506              	.LBB332:
  56:.\md5.c       **** 		a += F (b, c, d) + x + (uint32_t)(ac);
 507              		.loc 1 56 0
 508 0146 B446     		mov	ip, r6
 509              	.LBE332:
 510              	.LBE338:
 511              	.LBB339:
 512              	.LBB325:
  58:.\md5.c       **** 		a += b;
 513              		.loc 1 58 0
 514 0148 E418     		add	r4, r4, r3
 515              	.LVL52:
 516              	.LBE325:
 517              	.LBE339:
 518              	.LBB340:
 519              	.LBB333:
  56:.\md5.c       **** 		a += F (b, c, d) + x + (uint32_t)(ac);
ARM GAS  C:\Users\atsu\AppData\Local\Temp\ccFWVBKl.s 			page 16


 520              		.loc 1 56 0
 521 014a 8444     		add	ip, ip, r0
 522 014c 1E1C     		mov	r6, r3
 523              	.LVL53:
 524 014e 101C     		mov	r0, r2
 525 0150 A043     		bic	r0, r4
 526 0152 2640     		and	r6, r4
 527 0154 0643     		orr	r6, r0
 528 0156 6144     		add	r1, r1, ip
 529              	.LVL54:
 530              	.LBE333:
 531              	.LBE340:
 532              	.LBB341:
 533              	.LBB342:
 534 0158 1298     		ldr	r0, [sp, #72]
 535              	.LBE342:
 536              	.LBE341:
 537              	.LBB348:
 538              	.LBB334:
 539 015a 8919     		add	r1, r1, r6
 540              	.LVL55:
 541              	.LBE334:
 542              	.LBE348:
 543              	.LBB349:
 544              	.LBB343:
 545 015c C24E     		ldr	r6, .L9+40
 546              	.LBE343:
 547              	.LBE349:
 548              	.LBB350:
 549              	.LBB335:
  57:.\md5.c       **** 		a = ROTATE_LEFT (a, s);
 550              		.loc 1 57 0
 551 015e F941     		ror	r1, r1, r7
 552              	.LVL56:
 553              	.LBE335:
 554              	.LBE350:
 555              	.LBB351:
 556              	.LBB344:
  56:.\md5.c       **** 		a += F (b, c, d) + x + (uint32_t)(ac);
 557              		.loc 1 56 0
 558 0160 8446     		mov	ip, r0
 559              	.LBE344:
 560              	.LBE351:
 561              	.LBB352:
 562              	.LBB336:
  58:.\md5.c       **** 		a += b;
 563              		.loc 1 58 0
 564 0162 0919     		add	r1, r1, r4
 565              	.LVL57:
 566              	.LBE336:
 567              	.LBE352:
 568              	.LBB353:
 569              	.LBB345:
  56:.\md5.c       **** 		a += F (b, c, d) + x + (uint32_t)(ac);
 570              		.loc 1 56 0
 571 0164 B444     		add	ip, ip, r6
 572 0166 181C     		mov	r0, r3
ARM GAS  C:\Users\atsu\AppData\Local\Temp\ccFWVBKl.s 			page 17


 573              	.LVL58:
 574 0168 261C     		mov	r6, r4
 575 016a 8843     		bic	r0, r1
 576 016c 0E40     		and	r6, r1
 577 016e 0643     		orr	r6, r0
 578 0170 6244     		add	r2, r2, ip
 579              	.LVL59:
 580 0172 9219     		add	r2, r2, r6
 581              	.LVL60:
  57:.\md5.c       **** 		a = ROTATE_LEFT (a, s);
 582              		.loc 1 57 0
 583 0174 0F20     		mov	r0, #15
 584              	.LBE345:
 585              	.LBE353:
 586              	.LBB354:
 587              	.LBB355:
  56:.\md5.c       **** 		a += F (b, c, d) + x + (uint32_t)(ac);
 588              		.loc 1 56 0
 589 0176 139E     		ldr	r6, [sp, #76]
 590              	.LBE355:
 591              	.LBE354:
 592              	.LBB360:
 593              	.LBB346:
  57:.\md5.c       **** 		a = ROTATE_LEFT (a, s);
 594              		.loc 1 57 0
 595 0178 C241     		ror	r2, r2, r0
 596              	.LVL61:
 597              	.LBE346:
 598              	.LBE360:
 599              	.LBB361:
 600              	.LBB356:
  56:.\md5.c       **** 		a += F (b, c, d) + x + (uint32_t)(ac);
 601              		.loc 1 56 0
 602 017a BC48     		ldr	r0, .L9+44
 603              	.LBE356:
 604              	.LBE361:
 605              	.LBB362:
 606              	.LBB347:
  58:.\md5.c       **** 		a += b;
 607              		.loc 1 58 0
 608 017c 5218     		add	r2, r2, r1
 609              	.LVL62:
 610              	.LBE347:
 611              	.LBE362:
 612              	.LBB363:
 613              	.LBB357:
  56:.\md5.c       **** 		a += F (b, c, d) + x + (uint32_t)(ac);
 614              		.loc 1 56 0
 615 017e B446     		mov	ip, r6
 616 0180 261C     		mov	r6, r4
 617              	.LVL63:
 618 0182 8444     		add	ip, ip, r0
 619              	.LVL64:
 620 0184 9643     		bic	r6, r2
 621 0186 6344     		add	r3, r3, ip
 622              	.LVL65:
 623 0188 B446     		mov	ip, r6
ARM GAS  C:\Users\atsu\AppData\Local\Temp\ccFWVBKl.s 			page 18


 624 018a 0E1C     		mov	r6, r1
 625 018c 6046     		mov	r0, ip
 626 018e 1640     		and	r6, r2
 627 0190 0643     		orr	r6, r0
 628 0192 9B19     		add	r3, r3, r6
 629              	.LVL66:
 630              	.LBE357:
 631              	.LBE363:
 632              	.LBB364:
 633              	.LBB365:
 634 0194 1498     		ldr	r0, [sp, #80]
 635              	.LBE365:
 636              	.LBE364:
 637              	.LBB369:
 638              	.LBB358:
  57:.\md5.c       **** 		a = ROTATE_LEFT (a, s);
 639              		.loc 1 57 0
 640 0196 0A26     		mov	r6, #10
 641 0198 F341     		ror	r3, r3, r6
 642              	.LVL67:
 643              	.LBE358:
 644              	.LBE369:
 645              	.LBB370:
 646              	.LBB366:
  56:.\md5.c       **** 		a += F (b, c, d) + x + (uint32_t)(ac);
 647              		.loc 1 56 0
 648 019a B54E     		ldr	r6, .L9+48
 649 019c 8446     		mov	ip, r0
 650              	.LBE366:
 651              	.LBE370:
 652              	.LBB371:
 653              	.LBB359:
  58:.\md5.c       **** 		a += b;
 654              		.loc 1 58 0
 655 019e 9B18     		add	r3, r3, r2
 656              	.LVL68:
 657              	.LBE359:
 658              	.LBE371:
 659              	.LBB372:
 660              	.LBB367:
  56:.\md5.c       **** 		a += F (b, c, d) + x + (uint32_t)(ac);
 661              		.loc 1 56 0
 662 01a0 B444     		add	ip, ip, r6
 663 01a2 081C     		mov	r0, r1
 664              	.LVL69:
 665 01a4 161C     		mov	r6, r2
 666 01a6 9843     		bic	r0, r3
 667 01a8 1E40     		and	r6, r3
 668 01aa 0643     		orr	r6, r0
 669 01ac 6444     		add	r4, r4, ip
 670              	.LVL70:
 671 01ae A419     		add	r4, r4, r6
 672              	.LVL71:
  57:.\md5.c       **** 		a = ROTATE_LEFT (a, s);
 673              		.loc 1 57 0
 674 01b0 EC41     		ror	r4, r4, r5
 675              	.LVL72:
ARM GAS  C:\Users\atsu\AppData\Local\Temp\ccFWVBKl.s 			page 19


 676              	.LBE367:
 677              	.LBE372:
 678              	.LBB373:
 679              	.LBB374:
  56:.\md5.c       **** 		a += F (b, c, d) + x + (uint32_t)(ac);
 680              		.loc 1 56 0
 681 01b2 B048     		ldr	r0, .L9+52
 682 01b4 159D     		ldr	r5, [sp, #84]
 683              	.LBE374:
 684              	.LBE373:
 685              	.LBB377:
 686              	.LBB368:
  58:.\md5.c       **** 		a += b;
 687              		.loc 1 58 0
 688 01b6 E618     		add	r6, r4, r3
 689              	.LVL73:
 690              	.LBE368:
 691              	.LBE377:
 692              	.LBB378:
 693              	.LBB375:
  56:.\md5.c       **** 		a += F (b, c, d) + x + (uint32_t)(ac);
 694              		.loc 1 56 0
 695 01b8 2C18     		add	r4, r5, r0
 696 01ba 151C     		mov	r5, r2
 697              	.LVL74:
 698 01bc 181C     		mov	r0, r3
 699 01be B543     		bic	r5, r6
 700 01c0 3040     		and	r0, r6
 701 01c2 2843     		orr	r0, r5
 702 01c4 6118     		add	r1, r4, r1
 703              	.LVL75:
 704 01c6 0C18     		add	r4, r1, r0
 705              	.LVL76:
  57:.\md5.c       **** 		a = ROTATE_LEFT (a, s);
 706              		.loc 1 57 0
 707 01c8 FC41     		ror	r4, r4, r7
 708              	.LVL77:
 709              	.LBE375:
 710              	.LBE378:
 711              	.LBB379:
 712              	.LBB380:
  56:.\md5.c       **** 		a += F (b, c, d) + x + (uint32_t)(ac);
 713              		.loc 1 56 0
 714 01ca 1699     		ldr	r1, [sp, #88]
 715 01cc AA48     		ldr	r0, .L9+56
 716              	.LBE380:
 717              	.LBE379:
 718              	.LBB383:
 719              	.LBB376:
  58:.\md5.c       **** 		a += b;
 720              		.loc 1 58 0
 721 01ce A519     		add	r5, r4, r6
 722              	.LVL78:
 723              	.LBE376:
 724              	.LBE383:
 725              	.LBB384:
 726              	.LBB381:
ARM GAS  C:\Users\atsu\AppData\Local\Temp\ccFWVBKl.s 			page 20


  56:.\md5.c       **** 		a += F (b, c, d) + x + (uint32_t)(ac);
 727              		.loc 1 56 0
 728 01d0 EF43     		mvn	r7, r5
 729 01d2 0C18     		add	r4, r1, r0
 730 01d4 181C     		mov	r0, r3
 731 01d6 311C     		mov	r1, r6
 732              	.LVL79:
 733 01d8 3840     		and	r0, r7
 734 01da 2940     		and	r1, r5
 735 01dc 0143     		orr	r1, r0
 736 01de A218     		add	r2, r4, r2
 737              	.LVL80:
 738 01e0 5418     		add	r4, r2, r1
 739              	.LVL81:
  57:.\md5.c       **** 		a = ROTATE_LEFT (a, s);
 740              		.loc 1 57 0
 741 01e2 0F22     		mov	r2, #15
 742              	.LBE381:
 743              	.LBE384:
 744              	.LBB385:
 745              	.LBB386:
  56:.\md5.c       **** 		a += F (b, c, d) + x + (uint32_t)(ac);
 746              		.loc 1 56 0
 747 01e4 1798     		ldr	r0, [sp, #92]
 748              	.LBE386:
 749              	.LBE385:
 750              	.LBB388:
 751              	.LBB382:
  57:.\md5.c       **** 		a = ROTATE_LEFT (a, s);
 752              		.loc 1 57 0
 753 01e6 D441     		ror	r4, r4, r2
 754              	.LVL82:
  58:.\md5.c       **** 		a += b;
 755              		.loc 1 58 0
 756 01e8 6219     		add	r2, r4, r5
 757              	.LVL83:
 758              	.LBE382:
 759              	.LBE388:
 760              	.LBB389:
 761              	.LBB387:
  56:.\md5.c       **** 		a += F (b, c, d) + x + (uint32_t)(ac);
 762              		.loc 1 56 0
 763 01ea A44C     		ldr	r4, .L9+60
 764 01ec 8446     		mov	ip, r0
 765 01ee D143     		mvn	r1, r2
 766 01f0 A444     		add	ip, ip, r4
 767 01f2 281C     		mov	r0, r5
 768              	.LVL84:
 769 01f4 341C     		mov	r4, r6
 770 01f6 0C40     		and	r4, r1
 771 01f8 1040     		and	r0, r2
 772 01fa 6344     		add	r3, r3, ip
 773              	.LVL85:
 774 01fc 2043     		orr	r0, r4
 775 01fe 1C18     		add	r4, r3, r0
 776              	.LVL86:
  57:.\md5.c       **** 		a = ROTATE_LEFT (a, s);
ARM GAS  C:\Users\atsu\AppData\Local\Temp\ccFWVBKl.s 			page 21


 777              		.loc 1 57 0
 778 0200 0A23     		mov	r3, #10
 779 0202 DC41     		ror	r4, r4, r3
 780              	.LVL87:
  58:.\md5.c       **** 		a += b;
 781              		.loc 1 58 0
 782 0204 A018     		add	r0, r4, r2
 783              	.LVL88:
 784              	.LBE387:
 785              	.LBE389:
 786              	.LBB390:
 787              	.LBB391:
  63:.\md5.c       **** 		a += G (b, c, d) + x + (uint32_t)(ac);
 788              		.loc 1 63 0
 789 0206 099C     		ldr	r4, [sp, #36]
 790 0208 9D4B     		ldr	r3, .L9+64
 791 020a A446     		mov	ip, r4
 792 020c 2C1C     		mov	r4, r5
 793 020e 9C44     		add	ip, ip, r3
 794 0210 0440     		and	r4, r0
 795 0212 1740     		and	r7, r2
 796 0214 6644     		add	r6, r6, ip
 797              	.LVL89:
 798 0216 2743     		orr	r7, r4
 799              	.LBE391:
 800              	.LBE390:
 801              	.LBB394:
 802              	.LBB395:
 803 0218 0E9B     		ldr	r3, [sp, #56]
 804              	.LBE395:
 805              	.LBE394:
 806              	.LBB400:
 807              	.LBB392:
 808 021a F719     		add	r7, r6, r7
 809              	.LVL90:
 810              	.LBE392:
 811              	.LBE400:
 812              	.LBB401:
 813              	.LBB396:
 814 021c 994C     		ldr	r4, .L9+68
 815              	.LBE396:
 816              	.LBE401:
 817              	.LBB402:
 818              	.LBB393:
  64:.\md5.c       **** 		a = ROTATE_LEFT (a, s);
 819              		.loc 1 64 0
 820 021e 1B26     		mov	r6, #27
 821 0220 F741     		ror	r7, r7, r6
 822              	.LVL91:
  65:.\md5.c       **** 		a += b;
 823              		.loc 1 65 0
 824 0222 3F18     		add	r7, r7, r0
 825              	.LVL92:
 826              	.LBE393:
 827              	.LBE402:
 828              	.LBB403:
 829              	.LBB397:
ARM GAS  C:\Users\atsu\AppData\Local\Temp\ccFWVBKl.s 			page 22


  63:.\md5.c       **** 		a += G (b, c, d) + x + (uint32_t)(ac);
 830              		.loc 1 63 0
 831 0224 1E19     		add	r6, r3, r4
 832 0226 131C     		mov	r3, r2
 833 0228 3B40     		and	r3, r7
 834 022a 0140     		and	r1, r0
 835 022c 7519     		add	r5, r6, r5
 836              	.LVL93:
 837 022e 1943     		orr	r1, r3
 838              	.LBE397:
 839              	.LBE403:
 840              	.LBB404:
 841              	.LBB405:
 842 0230 139E     		ldr	r6, [sp, #76]
 843              	.LBE405:
 844              	.LBE404:
 845              	.LBB410:
 846              	.LBB398:
 847 0232 6C18     		add	r4, r5, r1
 848              	.LVL94:
  64:.\md5.c       **** 		a = ROTATE_LEFT (a, s);
 849              		.loc 1 64 0
 850 0234 1721     		mov	r1, #23
 851              	.LBE398:
 852              	.LBE410:
 853              	.LBB411:
 854              	.LBB406:
  63:.\md5.c       **** 		a += G (b, c, d) + x + (uint32_t)(ac);
 855              		.loc 1 63 0
 856 0236 944D     		ldr	r5, .L9+72
 857              	.LBE406:
 858              	.LBE411:
 859              	.LBB412:
 860              	.LBB399:
  64:.\md5.c       **** 		a = ROTATE_LEFT (a, s);
 861              		.loc 1 64 0
 862 0238 CC41     		ror	r4, r4, r1
 863              	.LVL95:
  65:.\md5.c       **** 		a += b;
 864              		.loc 1 65 0
 865 023a E119     		add	r1, r4, r7
 866              	.LVL96:
 867              	.LBE399:
 868              	.LBE412:
 869              	.LBB413:
 870              	.LBB407:
  63:.\md5.c       **** 		a += G (b, c, d) + x + (uint32_t)(ac);
 871              		.loc 1 63 0
 872 023c 7319     		add	r3, r6, r5
 873 023e 041C     		mov	r4, r0
 874 0240 3E1C     		mov	r6, r7
 875 0242 0C40     		and	r4, r1
 876 0244 8643     		bic	r6, r0
 877 0246 9A18     		add	r2, r3, r2
 878              	.LVL97:
 879 0248 2643     		orr	r6, r4
 880              	.LBE407:
ARM GAS  C:\Users\atsu\AppData\Local\Temp\ccFWVBKl.s 			page 23


 881              	.LBE413:
 882              	.LBB414:
 883              	.LBB415:
 884 024a 089B     		ldr	r3, [sp, #32]
 885              	.LBE415:
 886              	.LBE414:
 887              	.LBB419:
 888              	.LBB408:
 889 024c 9519     		add	r5, r2, r6
 890              	.LVL98:
 891              	.LBE408:
 892              	.LBE419:
 893              	.LBB420:
 894              	.LBB416:
 895 024e 8F4C     		ldr	r4, .L9+76
 896              	.LBE416:
 897              	.LBE420:
 898              	.LBB421:
 899              	.LBB409:
  64:.\md5.c       **** 		a = ROTATE_LEFT (a, s);
 900              		.loc 1 64 0
 901 0250 1226     		mov	r6, #18
 902 0252 F541     		ror	r5, r5, r6
 903              	.LVL99:
  65:.\md5.c       **** 		a += b;
 904              		.loc 1 65 0
 905 0254 6A18     		add	r2, r5, r1
 906              	.LVL100:
 907              	.LBE409:
 908              	.LBE421:
 909              	.LBB422:
 910              	.LBB417:
  63:.\md5.c       **** 		a += G (b, c, d) + x + (uint32_t)(ac);
 911              		.loc 1 63 0
 912 0256 1D19     		add	r5, r3, r4
 913 0258 3C1C     		mov	r4, r7
 914 025a 0B1C     		mov	r3, r1
 915 025c 1440     		and	r4, r2
 916 025e BB43     		bic	r3, r7
 917 0260 2343     		orr	r3, r4
 918 0262 2818     		add	r0, r5, r0
 919              	.LVL101:
 920 0264 C018     		add	r0, r0, r3
 921              	.LVL102:
  64:.\md5.c       **** 		a = ROTATE_LEFT (a, s);
 922              		.loc 1 64 0
 923 0266 0C25     		mov	r5, #12
 924              	.LBE417:
 925              	.LBE422:
 926              	.LBB423:
 927              	.LBB424:
  63:.\md5.c       **** 		a += G (b, c, d) + x + (uint32_t)(ac);
 928              		.loc 1 63 0
 929 0268 0D9C     		ldr	r4, [sp, #52]
 930              	.LBE424:
 931              	.LBE423:
 932              	.LBB426:
ARM GAS  C:\Users\atsu\AppData\Local\Temp\ccFWVBKl.s 			page 24


 933              	.LBB418:
  64:.\md5.c       **** 		a = ROTATE_LEFT (a, s);
 934              		.loc 1 64 0
 935 026a E841     		ror	r0, r0, r5
 936              	.LVL103:
  65:.\md5.c       **** 		a += b;
 937              		.loc 1 65 0
 938 026c 8318     		add	r3, r0, r2
 939              	.LVL104:
 940              	.LBE418:
 941              	.LBE426:
 942              	.LBB427:
 943              	.LBB425:
  63:.\md5.c       **** 		a += G (b, c, d) + x + (uint32_t)(ac);
 944              		.loc 1 63 0
 945 026e 8848     		ldr	r0, .L9+80
 946 0270 A446     		mov	ip, r4
 947 0272 8444     		add	ip, ip, r0
 948 0274 0C1C     		mov	r4, r1
 949 0276 101C     		mov	r0, r2
 950 0278 1C40     		and	r4, r3
 951 027a 8843     		bic	r0, r1
 952 027c 6744     		add	r7, r7, ip
 953              	.LVL105:
 954 027e 2043     		orr	r0, r4
 955 0280 3C18     		add	r4, r7, r0
 956              	.LVL106:
  64:.\md5.c       **** 		a = ROTATE_LEFT (a, s);
 957              		.loc 1 64 0
 958 0282 1B27     		mov	r7, #27
 959 0284 FC41     		ror	r4, r4, r7
 960              	.LVL107:
  65:.\md5.c       **** 		a += b;
 961              		.loc 1 65 0
 962 0286 E018     		add	r0, r4, r3
 963              	.LVL108:
 964              	.LBE425:
 965              	.LBE427:
 966              	.LBB428:
 967              	.LBB429:
  63:.\md5.c       **** 		a += G (b, c, d) + x + (uint32_t)(ac);
 968              		.loc 1 63 0
 969 0288 129C     		ldr	r4, [sp, #72]
 970 028a 824F     		ldr	r7, .L9+84
 971 028c A446     		mov	ip, r4
 972 028e BC44     		add	ip, ip, r7
 973 0290 141C     		mov	r4, r2
 974 0292 1F1C     		mov	r7, r3
 975 0294 0440     		and	r4, r0
 976 0296 9743     		bic	r7, r2
 977 0298 2743     		orr	r7, r4
 978 029a 6144     		add	r1, r1, ip
 979              	.LVL109:
 980              	.LBE429:
 981              	.LBE428:
 982              	.LBB432:
 983              	.LBB433:
ARM GAS  C:\Users\atsu\AppData\Local\Temp\ccFWVBKl.s 			page 25


 984 029c 179C     		ldr	r4, [sp, #92]
 985              	.LBE433:
 986              	.LBE432:
 987              	.LBB438:
 988              	.LBB430:
 989 029e C919     		add	r1, r1, r7
 990              	.LVL110:
  64:.\md5.c       **** 		a = ROTATE_LEFT (a, s);
 991              		.loc 1 64 0
 992 02a0 1727     		mov	r7, #23
 993 02a2 F941     		ror	r1, r1, r7
 994              	.LVL111:
 995              	.LBE430:
 996              	.LBE438:
 997              	.LBB439:
 998              	.LBB434:
  63:.\md5.c       **** 		a += G (b, c, d) + x + (uint32_t)(ac);
 999              		.loc 1 63 0
 1000 02a4 7C4F     		ldr	r7, .L9+88
 1001 02a6 A446     		mov	ip, r4
 1002              	.LBE434:
 1003              	.LBE439:
 1004              	.LBB440:
 1005              	.LBB431:
  65:.\md5.c       **** 		a += b;
 1006              		.loc 1 65 0
 1007 02a8 0918     		add	r1, r1, r0
 1008              	.LVL112:
 1009              	.LBE431:
 1010              	.LBE440:
 1011              	.LBB441:
 1012              	.LBB435:
  63:.\md5.c       **** 		a += G (b, c, d) + x + (uint32_t)(ac);
 1013              		.loc 1 63 0
 1014 02aa BC44     		add	ip, ip, r7
 1015 02ac 1C1C     		mov	r4, r3
 1016 02ae 071C     		mov	r7, r0
 1017 02b0 0C40     		and	r4, r1
 1018 02b2 9F43     		bic	r7, r3
 1019 02b4 2743     		orr	r7, r4
 1020 02b6 6244     		add	r2, r2, ip
 1021              	.LVL113:
 1022 02b8 D219     		add	r2, r2, r7
 1023              	.LVL114:
 1024              	.LBE435:
 1025              	.LBE441:
 1026              	.LBB442:
 1027              	.LBB443:
 1028 02ba 0C9F     		ldr	r7, [sp, #48]
 1029 02bc 774C     		ldr	r4, .L9+92
 1030              	.LBE443:
 1031              	.LBE442:
 1032              	.LBB449:
 1033              	.LBB436:
  64:.\md5.c       **** 		a = ROTATE_LEFT (a, s);
 1034              		.loc 1 64 0
 1035 02be F241     		ror	r2, r2, r6
ARM GAS  C:\Users\atsu\AppData\Local\Temp\ccFWVBKl.s 			page 26


 1036              	.LVL115:
 1037              	.LBE436:
 1038              	.LBE449:
 1039              	.LBB450:
 1040              	.LBB444:
  63:.\md5.c       **** 		a += G (b, c, d) + x + (uint32_t)(ac);
 1041              		.loc 1 63 0
 1042 02c0 BC46     		mov	ip, r7
 1043              	.LBE444:
 1044              	.LBE450:
 1045              	.LBB451:
 1046              	.LBB437:
  65:.\md5.c       **** 		a += b;
 1047              		.loc 1 65 0
 1048 02c2 5218     		add	r2, r2, r1
 1049              	.LVL116:
 1050              	.LBE437:
 1051              	.LBE451:
 1052              	.LBB452:
 1053              	.LBB445:
  63:.\md5.c       **** 		a += G (b, c, d) + x + (uint32_t)(ac);
 1054              		.loc 1 63 0
 1055 02c4 A444     		add	ip, ip, r4
 1056 02c6 0F1C     		mov	r7, r1
 1057 02c8 041C     		mov	r4, r0
 1058 02ca 1440     		and	r4, r2
 1059 02cc 8743     		bic	r7, r0
 1060 02ce 2743     		orr	r7, r4
 1061 02d0 6344     		add	r3, r3, ip
 1062              	.LVL117:
 1063              	.LBE445:
 1064              	.LBE452:
 1065              	.LBB453:
 1066              	.LBB454:
 1067 02d2 119C     		ldr	r4, [sp, #68]
 1068              	.LBE454:
 1069              	.LBE453:
 1070              	.LBB460:
 1071              	.LBB446:
 1072 02d4 DB19     		add	r3, r3, r7
 1073              	.LVL118:
 1074              	.LBE446:
 1075              	.LBE460:
 1076              	.LBB461:
 1077              	.LBB455:
 1078 02d6 724F     		ldr	r7, .L9+96
 1079              	.LBE455:
 1080              	.LBE461:
 1081              	.LBB462:
 1082              	.LBB447:
  64:.\md5.c       **** 		a = ROTATE_LEFT (a, s);
 1083              		.loc 1 64 0
 1084 02d8 EB41     		ror	r3, r3, r5
 1085              	.LVL119:
 1086              	.LBE447:
 1087              	.LBE462:
 1088              	.LBB463:
ARM GAS  C:\Users\atsu\AppData\Local\Temp\ccFWVBKl.s 			page 27


 1089              	.LBB456:
  63:.\md5.c       **** 		a += G (b, c, d) + x + (uint32_t)(ac);
 1090              		.loc 1 63 0
 1091 02da A446     		mov	ip, r4
 1092              	.LBE456:
 1093              	.LBE463:
 1094              	.LBB464:
 1095              	.LBB448:
  65:.\md5.c       **** 		a += b;
 1096              		.loc 1 65 0
 1097 02dc 9B18     		add	r3, r3, r2
 1098              	.LVL120:
 1099              	.LBE448:
 1100              	.LBE464:
 1101              	.LBB465:
 1102              	.LBB457:
  63:.\md5.c       **** 		a += G (b, c, d) + x + (uint32_t)(ac);
 1103              		.loc 1 63 0
 1104 02de BC44     		add	ip, ip, r7
 1105 02e0 0C1C     		mov	r4, r1
 1106 02e2 171C     		mov	r7, r2
 1107 02e4 1C40     		and	r4, r3
 1108 02e6 8F43     		bic	r7, r1
 1109 02e8 2743     		orr	r7, r4
 1110 02ea 6044     		add	r0, r0, ip
 1111              	.LVL121:
 1112 02ec C019     		add	r0, r0, r7
 1113              	.LVL122:
  64:.\md5.c       **** 		a = ROTATE_LEFT (a, s);
 1114              		.loc 1 64 0
 1115 02ee 1B24     		mov	r4, #27
 1116              	.LBE457:
 1117              	.LBE465:
 1118              	.LBB466:
 1119              	.LBB467:
  63:.\md5.c       **** 		a += G (b, c, d) + x + (uint32_t)(ac);
 1120              		.loc 1 63 0
 1121 02f0 169F     		ldr	r7, [sp, #88]
 1122              	.LBE467:
 1123              	.LBE466:
 1124              	.LBB472:
 1125              	.LBB458:
  64:.\md5.c       **** 		a = ROTATE_LEFT (a, s);
 1126              		.loc 1 64 0
 1127 02f2 E041     		ror	r0, r0, r4
 1128              	.LVL123:
 1129              	.LBE458:
 1130              	.LBE472:
 1131              	.LBB473:
 1132              	.LBB468:
  63:.\md5.c       **** 		a += G (b, c, d) + x + (uint32_t)(ac);
 1133              		.loc 1 63 0
 1134 02f4 6B4C     		ldr	r4, .L9+100
 1135              	.LBE468:
 1136              	.LBE473:
 1137              	.LBB474:
 1138              	.LBB459:
ARM GAS  C:\Users\atsu\AppData\Local\Temp\ccFWVBKl.s 			page 28


  65:.\md5.c       **** 		a += b;
 1139              		.loc 1 65 0
 1140 02f6 C018     		add	r0, r0, r3
 1141              	.LVL124:
 1142              	.LBE459:
 1143              	.LBE474:
 1144              	.LBB475:
 1145              	.LBB469:
  63:.\md5.c       **** 		a += G (b, c, d) + x + (uint32_t)(ac);
 1146              		.loc 1 63 0
 1147 02f8 BC46     		mov	ip, r7
 1148 02fa 171C     		mov	r7, r2
 1149 02fc A444     		add	ip, ip, r4
 1150 02fe 0740     		and	r7, r0
 1151 0300 6144     		add	r1, r1, ip
 1152              	.LVL125:
 1153 0302 BC46     		mov	ip, r7
 1154 0304 1F1C     		mov	r7, r3
 1155 0306 6446     		mov	r4, ip
 1156 0308 9743     		bic	r7, r2
 1157 030a 2743     		orr	r7, r4
 1158 030c C919     		add	r1, r1, r7
 1159              	.LVL126:
 1160              	.LBE469:
 1161              	.LBE475:
 1162              	.LBB476:
 1163              	.LBB477:
 1164 030e 0B9C     		ldr	r4, [sp, #44]
 1165              	.LBE477:
 1166              	.LBE476:
 1167              	.LBB482:
 1168              	.LBB470:
  64:.\md5.c       **** 		a = ROTATE_LEFT (a, s);
 1169              		.loc 1 64 0
 1170 0310 1727     		mov	r7, #23
 1171 0312 F941     		ror	r1, r1, r7
 1172              	.LVL127:
 1173              	.LBE470:
 1174              	.LBE482:
 1175              	.LBB483:
 1176              	.LBB478:
  63:.\md5.c       **** 		a += G (b, c, d) + x + (uint32_t)(ac);
 1177              		.loc 1 63 0
 1178 0314 644F     		ldr	r7, .L9+104
 1179 0316 A446     		mov	ip, r4
 1180              	.LBE478:
 1181              	.LBE483:
 1182              	.LBB484:
 1183              	.LBB471:
  65:.\md5.c       **** 		a += b;
 1184              		.loc 1 65 0
 1185 0318 0918     		add	r1, r1, r0
 1186              	.LVL128:
 1187              	.LBE471:
 1188              	.LBE484:
 1189              	.LBB485:
 1190              	.LBB479:
ARM GAS  C:\Users\atsu\AppData\Local\Temp\ccFWVBKl.s 			page 29


  63:.\md5.c       **** 		a += G (b, c, d) + x + (uint32_t)(ac);
 1191              		.loc 1 63 0
 1192 031a BC44     		add	ip, ip, r7
 1193 031c 1C1C     		mov	r4, r3
 1194 031e 071C     		mov	r7, r0
 1195 0320 0C40     		and	r4, r1
 1196 0322 9F43     		bic	r7, r3
 1197 0324 2743     		orr	r7, r4
 1198 0326 6244     		add	r2, r2, ip
 1199              	.LVL129:
 1200 0328 D219     		add	r2, r2, r7
 1201              	.LVL130:
 1202              	.LBE479:
 1203              	.LBE485:
 1204              	.LBB486:
 1205              	.LBB487:
 1206 032a 109F     		ldr	r7, [sp, #64]
 1207 032c 5F4C     		ldr	r4, .L9+108
 1208              	.LBE487:
 1209              	.LBE486:
 1210              	.LBB493:
 1211              	.LBB480:
  64:.\md5.c       **** 		a = ROTATE_LEFT (a, s);
 1212              		.loc 1 64 0
 1213 032e F241     		ror	r2, r2, r6
 1214              	.LVL131:
 1215              	.LBE480:
 1216              	.LBE493:
 1217              	.LBB494:
 1218              	.LBB488:
  63:.\md5.c       **** 		a += G (b, c, d) + x + (uint32_t)(ac);
 1219              		.loc 1 63 0
 1220 0330 BC46     		mov	ip, r7
 1221              	.LBE488:
 1222              	.LBE494:
 1223              	.LBB495:
 1224              	.LBB481:
  65:.\md5.c       **** 		a += b;
 1225              		.loc 1 65 0
 1226 0332 5218     		add	r2, r2, r1
 1227              	.LVL132:
 1228              	.LBE481:
 1229              	.LBE495:
 1230              	.LBB496:
 1231              	.LBB489:
  63:.\md5.c       **** 		a += G (b, c, d) + x + (uint32_t)(ac);
 1232              		.loc 1 63 0
 1233 0334 A444     		add	ip, ip, r4
 1234 0336 0F1C     		mov	r7, r1
 1235 0338 041C     		mov	r4, r0
 1236 033a 1440     		and	r4, r2
 1237 033c 8743     		bic	r7, r0
 1238 033e 2743     		orr	r7, r4
 1239 0340 6344     		add	r3, r3, ip
 1240              	.LVL133:
 1241              	.LBE489:
 1242              	.LBE496:
ARM GAS  C:\Users\atsu\AppData\Local\Temp\ccFWVBKl.s 			page 30


 1243              	.LBB497:
 1244              	.LBB498:
 1245 0342 159C     		ldr	r4, [sp, #84]
 1246              	.LBE498:
 1247              	.LBE497:
 1248              	.LBB504:
 1249              	.LBB490:
 1250 0344 DB19     		add	r3, r3, r7
 1251              	.LVL134:
 1252              	.LBE490:
 1253              	.LBE504:
 1254              	.LBB505:
 1255              	.LBB499:
 1256 0346 5A4F     		ldr	r7, .L9+112
 1257              	.LBE499:
 1258              	.LBE505:
 1259              	.LBB506:
 1260              	.LBB491:
  64:.\md5.c       **** 		a = ROTATE_LEFT (a, s);
 1261              		.loc 1 64 0
 1262 0348 EB41     		ror	r3, r3, r5
 1263              	.LVL135:
 1264              	.LBE491:
 1265              	.LBE506:
 1266              	.LBB507:
 1267              	.LBB500:
  63:.\md5.c       **** 		a += G (b, c, d) + x + (uint32_t)(ac);
 1268              		.loc 1 63 0
 1269 034a A446     		mov	ip, r4
 1270              	.LBE500:
 1271              	.LBE507:
 1272              	.LBB508:
 1273              	.LBB492:
  65:.\md5.c       **** 		a += b;
 1274              		.loc 1 65 0
 1275 034c 9B18     		add	r3, r3, r2
 1276              	.LVL136:
 1277              	.LBE492:
 1278              	.LBE508:
 1279              	.LBB509:
 1280              	.LBB501:
  63:.\md5.c       **** 		a += G (b, c, d) + x + (uint32_t)(ac);
 1281              		.loc 1 63 0
 1282 034e BC44     		add	ip, ip, r7
 1283 0350 0C1C     		mov	r4, r1
 1284 0352 171C     		mov	r7, r2
 1285 0354 1C40     		and	r4, r3
 1286 0356 8F43     		bic	r7, r1
 1287 0358 2743     		orr	r7, r4
 1288 035a 6044     		add	r0, r0, ip
 1289              	.LVL137:
 1290 035c C019     		add	r0, r0, r7
 1291              	.LVL138:
  64:.\md5.c       **** 		a = ROTATE_LEFT (a, s);
 1292              		.loc 1 64 0
 1293 035e 1B24     		mov	r4, #27
 1294              	.LBE501:
ARM GAS  C:\Users\atsu\AppData\Local\Temp\ccFWVBKl.s 			page 31


 1295              	.LBE509:
 1296              	.LBB510:
 1297              	.LBB511:
  63:.\md5.c       **** 		a += G (b, c, d) + x + (uint32_t)(ac);
 1298              		.loc 1 63 0
 1299 0360 0A9F     		ldr	r7, [sp, #40]
 1300              	.LBE511:
 1301              	.LBE510:
 1302              	.LBB516:
 1303              	.LBB502:
  64:.\md5.c       **** 		a = ROTATE_LEFT (a, s);
 1304              		.loc 1 64 0
 1305 0362 E041     		ror	r0, r0, r4
 1306              	.LVL139:
 1307              	.LBE502:
 1308              	.LBE516:
 1309              	.LBB517:
 1310              	.LBB512:
  63:.\md5.c       **** 		a += G (b, c, d) + x + (uint32_t)(ac);
 1311              		.loc 1 63 0
 1312 0364 534C     		ldr	r4, .L9+116
 1313              	.LBE512:
 1314              	.LBE517:
 1315              	.LBB518:
 1316              	.LBB503:
  65:.\md5.c       **** 		a += b;
 1317              		.loc 1 65 0
 1318 0366 C018     		add	r0, r0, r3
 1319              	.LVL140:
 1320              	.LBE503:
 1321              	.LBE518:
 1322              	.LBB519:
 1323              	.LBB513:
  63:.\md5.c       **** 		a += G (b, c, d) + x + (uint32_t)(ac);
 1324              		.loc 1 63 0
 1325 0368 BC46     		mov	ip, r7
 1326 036a 171C     		mov	r7, r2
 1327 036c A444     		add	ip, ip, r4
 1328 036e 0740     		and	r7, r0
 1329 0370 6144     		add	r1, r1, ip
 1330              	.LVL141:
 1331 0372 BC46     		mov	ip, r7
 1332 0374 1F1C     		mov	r7, r3
 1333 0376 6446     		mov	r4, ip
 1334 0378 9743     		bic	r7, r2
 1335 037a 2743     		orr	r7, r4
 1336 037c C919     		add	r1, r1, r7
 1337              	.LVL142:
 1338              	.LBE513:
 1339              	.LBE519:
 1340              	.LBB520:
 1341              	.LBB521:
 1342 037e 0F9C     		ldr	r4, [sp, #60]
 1343              	.LBE521:
 1344              	.LBE520:
 1345              	.LBB525:
 1346              	.LBB514:
ARM GAS  C:\Users\atsu\AppData\Local\Temp\ccFWVBKl.s 			page 32


  64:.\md5.c       **** 		a = ROTATE_LEFT (a, s);
 1347              		.loc 1 64 0
 1348 0380 1727     		mov	r7, #23
 1349 0382 F941     		ror	r1, r1, r7
 1350              	.LVL143:
 1351              	.LBE514:
 1352              	.LBE525:
 1353              	.LBB526:
 1354              	.LBB522:
  63:.\md5.c       **** 		a += G (b, c, d) + x + (uint32_t)(ac);
 1355              		.loc 1 63 0
 1356 0384 4C4F     		ldr	r7, .L9+120
 1357 0386 A446     		mov	ip, r4
 1358              	.LBE522:
 1359              	.LBE526:
 1360              	.LBB527:
 1361              	.LBB515:
  65:.\md5.c       **** 		a += b;
 1362              		.loc 1 65 0
 1363 0388 0918     		add	r1, r1, r0
 1364              	.LVL144:
 1365              	.LBE515:
 1366              	.LBE527:
 1367              	.LBB528:
 1368              	.LBB523:
  63:.\md5.c       **** 		a += G (b, c, d) + x + (uint32_t)(ac);
 1369              		.loc 1 63 0
 1370 038a BC44     		add	ip, ip, r7
 1371 038c 1C1C     		mov	r4, r3
 1372 038e 071C     		mov	r7, r0
 1373 0390 0C40     		and	r4, r1
 1374 0392 9F43     		bic	r7, r3
 1375 0394 2743     		orr	r7, r4
 1376 0396 6244     		add	r2, r2, ip
 1377              	.LVL145:
 1378 0398 D219     		add	r2, r2, r7
 1379              	.LVL146:
  64:.\md5.c       **** 		a = ROTATE_LEFT (a, s);
 1380              		.loc 1 64 0
 1381 039a F241     		ror	r2, r2, r6
 1382              	.LVL147:
 1383              	.LBE523:
 1384              	.LBE528:
 1385              	.LBB529:
 1386              	.LBB530:
  63:.\md5.c       **** 		a += G (b, c, d) + x + (uint32_t)(ac);
 1387              		.loc 1 63 0
 1388 039c 474C     		ldr	r4, .L9+124
 1389 039e 149E     		ldr	r6, [sp, #80]
 1390              	.LBE530:
 1391              	.LBE529:
 1392              	.LBB533:
 1393              	.LBB524:
  65:.\md5.c       **** 		a += b;
 1394              		.loc 1 65 0
 1395 03a0 5218     		add	r2, r2, r1
 1396              	.LVL148:
ARM GAS  C:\Users\atsu\AppData\Local\Temp\ccFWVBKl.s 			page 33


 1397              	.LBE524:
 1398              	.LBE533:
 1399              	.LBB534:
 1400              	.LBB531:
  63:.\md5.c       **** 		a += G (b, c, d) + x + (uint32_t)(ac);
 1401              		.loc 1 63 0
 1402 03a2 3719     		add	r7, r6, r4
 1403 03a4 041C     		mov	r4, r0
 1404 03a6 0E1C     		mov	r6, r1
 1405 03a8 1440     		and	r4, r2
 1406 03aa 8643     		bic	r6, r0
 1407 03ac 2643     		orr	r6, r4
 1408 03ae FB18     		add	r3, r7, r3
 1409              	.LVL149:
 1410 03b0 9F19     		add	r7, r3, r6
 1411              	.LVL150:
  64:.\md5.c       **** 		a = ROTATE_LEFT (a, s);
 1412              		.loc 1 64 0
 1413 03b2 EF41     		ror	r7, r7, r5
 1414              	.LVL151:
 1415              	.LBE531:
 1416              	.LBE534:
 1417              	.LBB535:
 1418              	.LBB536:
  71:.\md5.c       **** 		a += H (b, c, d) + x + (uint32_t)(ac);
 1419              		.loc 1 71 0
 1420 03b4 424C     		ldr	r4, .L9+128
 1421 03b6 0D9D     		ldr	r5, [sp, #52]
 1422              	.LBE536:
 1423              	.LBE535:
 1424              	.LBB541:
 1425              	.LBB532:
  65:.\md5.c       **** 		a += b;
 1426              		.loc 1 65 0
 1427 03b8 BB18     		add	r3, r7, r2
 1428              	.LVL152:
 1429              	.LBE532:
 1430              	.LBE541:
 1431              	.LBB542:
 1432              	.LBB537:
  71:.\md5.c       **** 		a += H (b, c, d) + x + (uint32_t)(ac);
 1433              		.loc 1 71 0
 1434 03ba 171C     		mov	r7, r2
 1435 03bc 2E19     		add	r6, r5, r4
 1436 03be 4F40     		eor	r7, r1
 1437 03c0 3018     		add	r0, r6, r0
 1438              	.LVL153:
 1439 03c2 5F40     		eor	r7, r3
 1440              	.LBE537:
 1441              	.LBE542:
 1442              	.LBB543:
 1443              	.LBB544:
 1444 03c4 109E     		ldr	r6, [sp, #64]
 1445              	.LBE544:
 1446              	.LBE543:
 1447              	.LBB550:
 1448              	.LBB538:
ARM GAS  C:\Users\atsu\AppData\Local\Temp\ccFWVBKl.s 			page 34


 1449 03c6 C519     		add	r5, r0, r7
 1450              	.LVL154:
  72:.\md5.c       **** 		a = ROTATE_LEFT (a, s);
 1451              		.loc 1 72 0
 1452 03c8 1C24     		mov	r4, #28
 1453              	.LBE538:
 1454              	.LBE550:
 1455              	.LBB551:
 1456              	.LBB545:
  71:.\md5.c       **** 		a += H (b, c, d) + x + (uint32_t)(ac);
 1457              		.loc 1 71 0
 1458 03ca 3E4F     		ldr	r7, .L9+132
 1459              	.LBE545:
 1460              	.LBE551:
 1461              	.LBB552:
 1462              	.LBB539:
  72:.\md5.c       **** 		a = ROTATE_LEFT (a, s);
 1463              		.loc 1 72 0
 1464 03cc E541     		ror	r5, r5, r4
 1465              	.LVL155:
 1466              	.LBE539:
 1467              	.LBE552:
 1468              	.LBB553:
 1469              	.LBB546:
  71:.\md5.c       **** 		a += H (b, c, d) + x + (uint32_t)(ac);
 1470              		.loc 1 71 0
 1471 03ce 1C1C     		mov	r4, r3
 1472              	.LBE546:
 1473              	.LBE553:
 1474              	.LBB554:
 1475              	.LBB540:
  73:.\md5.c       **** 		a += b;
 1476              		.loc 1 73 0
 1477 03d0 E818     		add	r0, r5, r3
 1478              	.LVL156:
 1479              	.LBE540:
 1480              	.LBE554:
 1481              	.LBB555:
 1482              	.LBB547:
  71:.\md5.c       **** 		a += H (b, c, d) + x + (uint32_t)(ac);
 1483              		.loc 1 71 0
 1484 03d2 5440     		eor	r4, r2
 1485 03d4 F519     		add	r5, r6, r7
 1486 03d6 6918     		add	r1, r5, r1
 1487              	.LVL157:
 1488 03d8 4440     		eor	r4, r0
  72:.\md5.c       **** 		a = ROTATE_LEFT (a, s);
 1489              		.loc 1 72 0
 1490 03da 1527     		mov	r7, #21
 1491              	.LBE547:
 1492              	.LBE555:
 1493              	.LBB556:
 1494              	.LBB557:
  71:.\md5.c       **** 		a += H (b, c, d) + x + (uint32_t)(ac);
 1495              		.loc 1 71 0
 1496 03dc 139D     		ldr	r5, [sp, #76]
 1497              	.LBE557:
ARM GAS  C:\Users\atsu\AppData\Local\Temp\ccFWVBKl.s 			page 35


 1498              	.LBE556:
 1499              	.LBB561:
 1500              	.LBB548:
 1501 03de 0E19     		add	r6, r1, r4
 1502              	.LVL158:
 1503              	.LBE548:
 1504              	.LBE561:
 1505              	.LBB562:
 1506              	.LBB558:
 1507 03e0 394C     		ldr	r4, .L9+136
 1508              	.LBE558:
 1509              	.LBE562:
 1510              	.LBB563:
 1511              	.LBB549:
  72:.\md5.c       **** 		a = ROTATE_LEFT (a, s);
 1512              		.loc 1 72 0
 1513 03e2 FE41     		ror	r6, r6, r7
 1514              	.LVL159:
  73:.\md5.c       **** 		a += b;
 1515              		.loc 1 73 0
 1516 03e4 3118     		add	r1, r6, r0
 1517              	.LVL160:
 1518              	.LBE549:
 1519              	.LBE563:
 1520              	.LBB564:
 1521              	.LBB559:
  71:.\md5.c       **** 		a += H (b, c, d) + x + (uint32_t)(ac);
 1522              		.loc 1 71 0
 1523 03e6 2E19     		add	r6, r5, r4
 1524 03e8 051C     		mov	r5, r0
 1525 03ea 5D40     		eor	r5, r3
 1526 03ec B218     		add	r2, r6, r2
 1527              	.LVL161:
 1528 03ee 4D40     		eor	r5, r1
  72:.\md5.c       **** 		a = ROTATE_LEFT (a, s);
 1529              		.loc 1 72 0
 1530 03f0 1026     		mov	r6, #16
  71:.\md5.c       **** 		a += H (b, c, d) + x + (uint32_t)(ac);
 1531              		.loc 1 71 0
 1532 03f2 5419     		add	r4, r2, r5
 1533              	.LVL162:
  72:.\md5.c       **** 		a = ROTATE_LEFT (a, s);
 1534              		.loc 1 72 0
 1535 03f4 F441     		ror	r4, r4, r6
 1536              	.LVL163:
 1537              	.LBE559:
 1538              	.LBE564:
 1539              	.LBB565:
 1540              	.LBB566:
  71:.\md5.c       **** 		a += H (b, c, d) + x + (uint32_t)(ac);
 1541              		.loc 1 71 0
 1542 03f6 169D     		ldr	r5, [sp, #88]
 1543              	.LBE566:
 1544              	.LBE565:
 1545              	.LBB573:
 1546              	.LBB560:
  73:.\md5.c       **** 		a += b;
ARM GAS  C:\Users\atsu\AppData\Local\Temp\ccFWVBKl.s 			page 36


 1547              		.loc 1 73 0
 1548 03f8 6218     		add	r2, r4, r1
 1549              	.LVL164:
 1550              	.LBE560:
 1551              	.LBE573:
 1552              	.LBB574:
 1553              	.LBB567:
  71:.\md5.c       **** 		a += H (b, c, d) + x + (uint32_t)(ac);
 1554              		.loc 1 71 0
 1555 03fa 344C     		ldr	r4, .L9+140
 1556 03fc AC46     		mov	ip, r5
 1557 03fe A444     		add	ip, ip, r4
 1558              	.LBE567:
 1559              	.LBE574:
 1560              	.LBB575:
 1561              	.LBB576:
 1562 0400 099C     		ldr	r4, [sp, #36]
 1563              	.LBE576:
 1564              	.LBE575:
 1565              	.LBB583:
 1566              	.LBB568:
 1567 0402 0D1C     		mov	r5, r1
 1568 0404 6344     		add	r3, r3, ip
 1569              	.LVL165:
 1570 0406 4540     		eor	r5, r0
 1571              	.LBE568:
 1572              	.LBE583:
 1573              	.LBB584:
 1574              	.LBB577:
 1575 0408 A446     		mov	ip, r4
 1576 040a 314C     		ldr	r4, .L9+144
 1577              	.LBE577:
 1578              	.LBE584:
 1579              	.LBB585:
 1580              	.LBB569:
 1581 040c 5540     		eor	r5, r2
 1582 040e 5B19     		add	r3, r3, r5
 1583              	.LVL166:
 1584              	.LBE569:
 1585              	.LBE585:
 1586              	.LBB586:
 1587              	.LBB578:
 1588 0410 A444     		add	ip, ip, r4
 1589              	.LBE578:
 1590              	.LBE586:
 1591              	.LBB587:
 1592              	.LBB570:
  72:.\md5.c       **** 		a = ROTATE_LEFT (a, s);
 1593              		.loc 1 72 0
 1594 0412 0925     		mov	r5, #9
 1595              	.LBE570:
 1596              	.LBE587:
 1597              	.LBB588:
 1598              	.LBB579:
  71:.\md5.c       **** 		a += H (b, c, d) + x + (uint32_t)(ac);
 1599              		.loc 1 71 0
 1600 0414 8444     		add	ip, ip, r0
ARM GAS  C:\Users\atsu\AppData\Local\Temp\ccFWVBKl.s 			page 37


 1601              	.LBE579:
 1602              	.LBE588:
 1603              	.LBB589:
 1604              	.LBB571:
  72:.\md5.c       **** 		a = ROTATE_LEFT (a, s);
 1605              		.loc 1 72 0
 1606 0416 EB41     		ror	r3, r3, r5
 1607              	.LVL167:
 1608              	.LBE571:
 1609              	.LBE589:
 1610              	.LBB590:
 1611              	.LBB580:
  71:.\md5.c       **** 		a += H (b, c, d) + x + (uint32_t)(ac);
 1612              		.loc 1 71 0
 1613 0418 101C     		mov	r0, r2
 1614              	.LVL168:
 1615              	.LBE580:
 1616              	.LBE590:
 1617              	.LBB591:
 1618              	.LBB572:
  73:.\md5.c       **** 		a += b;
 1619              		.loc 1 73 0
 1620 041a 9B18     		add	r3, r3, r2
 1621              	.LVL169:
 1622              	.LBE572:
 1623              	.LBE591:
 1624              	.LBB592:
 1625              	.LBB581:
  71:.\md5.c       **** 		a += H (b, c, d) + x + (uint32_t)(ac);
 1626              		.loc 1 71 0
 1627 041c 4840     		eor	r0, r1
 1628 041e 5840     		eor	r0, r3
 1629 0420 6044     		add	r0, r0, ip
 1630              	.LVL170:
  72:.\md5.c       **** 		a = ROTATE_LEFT (a, s);
 1631              		.loc 1 72 0
 1632 0422 1C24     		mov	r4, #28
 1633 0424 E041     		ror	r0, r0, r4
 1634              	.LVL171:
 1635              	.LBE581:
 1636              	.LBE592:
 1637              	.LBB593:
 1638              	.LBB594:
  71:.\md5.c       **** 		a += H (b, c, d) + x + (uint32_t)(ac);
 1639              		.loc 1 71 0
 1640 0426 0C9C     		ldr	r4, [sp, #48]
 1641              	.LBE594:
 1642              	.LBE593:
 1643              	.LBB599:
 1644              	.LBB582:
  73:.\md5.c       **** 		a += b;
 1645              		.loc 1 73 0
 1646 0428 C018     		add	r0, r0, r3
 1647              	.LVL172:
 1648              	.LBE582:
 1649              	.LBE599:
 1650              	.LBB600:
ARM GAS  C:\Users\atsu\AppData\Local\Temp\ccFWVBKl.s 			page 38


 1651              	.LBB595:
  71:.\md5.c       **** 		a += H (b, c, d) + x + (uint32_t)(ac);
 1652              		.loc 1 71 0
 1653 042a A446     		mov	ip, r4
 1654 042c 294C     		ldr	r4, .L9+148
 1655 042e A444     		add	ip, ip, r4
 1656 0430 8C44     		add	ip, ip, r1
 1657 0432 191C     		mov	r1, r3
 1658              	.LVL173:
 1659              	.LBE595:
 1660              	.LBE600:
 1661              	.LBB601:
 1662              	.LBB602:
 1663 0434 0F9C     		ldr	r4, [sp, #60]
 1664              	.LBE602:
 1665              	.LBE601:
 1666              	.LBB608:
 1667              	.LBB596:
 1668 0436 5140     		eor	r1, r2
 1669 0438 4140     		eor	r1, r0
 1670 043a 6144     		add	r1, r1, ip
 1671              	.LVL174:
 1672              	.LBE596:
 1673              	.LBE608:
 1674              	.LBB609:
 1675              	.LBB603:
 1676 043c A446     		mov	ip, r4
 1677 043e 4BE0     		b	.L10
 1678              	.L11:
 1679              		.align	2
 1680              	.L9:
 1681 0440 78A46AD7 		.word	-680876936
 1682 0444 56B7C7E8 		.word	-389564586
 1683 0448 DB702024 		.word	606105819
 1684 044c EECEBDC1 		.word	-1044525330
 1685 0450 AF0F7CF5 		.word	-176418897
 1686 0454 2AC68747 		.word	1200080426
 1687 0458 134630A8 		.word	-1473231341
 1688 045c 019546FD 		.word	-45705983
 1689 0460 D8988069 		.word	1770035416
 1690 0464 AFF7448B 		.word	-1958414417
 1691 0468 B15BFFFF 		.word	-42063
 1692 046c BED75C89 		.word	-1990404162
 1693 0470 2211906B 		.word	1804603682
 1694 0474 937198FD 		.word	-40341101
 1695 0478 8E4379A6 		.word	-1502002290
 1696 047c 2108B449 		.word	1236535329
 1697 0480 62251EF6 		.word	-165796510
 1698 0484 40B340C0 		.word	-1069501632
 1699 0488 515A5E26 		.word	643717713
 1700 048c AAC7B6E9 		.word	-373897302
 1701 0490 5D102FD6 		.word	-701558691
 1702 0494 53144402 		.word	38016083
 1703 0498 81E6A1D8 		.word	-660478335
 1704 049c C8FBD3E7 		.word	-405537848
 1705 04a0 E6CDE121 		.word	568446438
 1706 04a4 D60737C3 		.word	-1019803690
ARM GAS  C:\Users\atsu\AppData\Local\Temp\ccFWVBKl.s 			page 39


 1707 04a8 870DD5F4 		.word	-187363961
 1708 04ac ED145A45 		.word	1163531501
 1709 04b0 05E9E3A9 		.word	-1444681467
 1710 04b4 F8A3EFFC 		.word	-51403784
 1711 04b8 D9026F67 		.word	1735328473
 1712 04bc 8A4C2A8D 		.word	-1926607734
 1713 04c0 4239FAFF 		.word	-378558
 1714 04c4 81F67187 		.word	-2022574463
 1715 04c8 22619D6D 		.word	1839030562
 1716 04cc 0C38E5FD 		.word	-35309556
 1717 04d0 44EABEA4 		.word	-1530992060
 1718 04d4 A9CFDE4B 		.word	1272893353
 1719              	.L10:
 1720 04d8 974C     		ldr	r4, .L12
 1721              	.LBE603:
 1722              	.LBE609:
 1723              	.LBB610:
 1724              	.LBB597:
  72:.\md5.c       **** 		a = ROTATE_LEFT (a, s);
 1725              		.loc 1 72 0
 1726 04da F941     		ror	r1, r1, r7
 1727              	.LVL175:
 1728              	.LBE597:
 1729              	.LBE610:
 1730              	.LBB611:
 1731              	.LBB604:
  71:.\md5.c       **** 		a += H (b, c, d) + x + (uint32_t)(ac);
 1732              		.loc 1 71 0
 1733 04dc A444     		add	ip, ip, r4
 1734 04de 9444     		add	ip, ip, r2
 1735 04e0 021C     		mov	r2, r0
 1736              	.LVL176:
 1737              	.LBE604:
 1738              	.LBE611:
 1739              	.LBB612:
 1740              	.LBB598:
  73:.\md5.c       **** 		a += b;
 1741              		.loc 1 73 0
 1742 04e2 0918     		add	r1, r1, r0
 1743              	.LVL177:
 1744              	.LBE598:
 1745              	.LBE612:
 1746              	.LBB613:
 1747              	.LBB614:
  71:.\md5.c       **** 		a += H (b, c, d) + x + (uint32_t)(ac);
 1748              		.loc 1 71 0
 1749 04e4 129C     		ldr	r4, [sp, #72]
 1750              	.LBE614:
 1751              	.LBE613:
 1752              	.LBB620:
 1753              	.LBB605:
 1754 04e6 5A40     		eor	r2, r3
 1755 04e8 4A40     		eor	r2, r1
 1756 04ea 6244     		add	r2, r2, ip
 1757              	.LVL178:
 1758              	.LBE605:
 1759              	.LBE620:
ARM GAS  C:\Users\atsu\AppData\Local\Temp\ccFWVBKl.s 			page 40


 1760              	.LBB621:
 1761              	.LBB615:
 1762 04ec A446     		mov	ip, r4
 1763 04ee 934C     		ldr	r4, .L12+4
 1764              	.LBE615:
 1765              	.LBE621:
 1766              	.LBB622:
 1767              	.LBB606:
  72:.\md5.c       **** 		a = ROTATE_LEFT (a, s);
 1768              		.loc 1 72 0
 1769 04f0 F241     		ror	r2, r2, r6
 1770              	.LVL179:
 1771              	.LBE606:
 1772              	.LBE622:
 1773              	.LBB623:
 1774              	.LBB616:
  71:.\md5.c       **** 		a += H (b, c, d) + x + (uint32_t)(ac);
 1775              		.loc 1 71 0
 1776 04f2 A444     		add	ip, ip, r4
 1777 04f4 9C44     		add	ip, ip, r3
 1778 04f6 0B1C     		mov	r3, r1
 1779              	.LVL180:
 1780              	.LBE616:
 1781              	.LBE623:
 1782              	.LBB624:
 1783              	.LBB607:
  73:.\md5.c       **** 		a += b;
 1784              		.loc 1 73 0
 1785 04f8 5218     		add	r2, r2, r1
 1786              	.LVL181:
 1787              	.LBE607:
 1788              	.LBE624:
 1789              	.LBB625:
 1790              	.LBB626:
  71:.\md5.c       **** 		a += H (b, c, d) + x + (uint32_t)(ac);
 1791              		.loc 1 71 0
 1792 04fa 159C     		ldr	r4, [sp, #84]
 1793              	.LBE626:
 1794              	.LBE625:
 1795              	.LBB631:
 1796              	.LBB617:
 1797 04fc 4340     		eor	r3, r0
 1798 04fe 5340     		eor	r3, r2
 1799 0500 6344     		add	r3, r3, ip
 1800              	.LVL182:
 1801              	.LBE617:
 1802              	.LBE631:
 1803              	.LBB632:
 1804              	.LBB627:
 1805 0502 A446     		mov	ip, r4
 1806 0504 8E4C     		ldr	r4, .L12+8
 1807              	.LBE627:
 1808              	.LBE632:
 1809              	.LBB633:
 1810              	.LBB618:
  72:.\md5.c       **** 		a = ROTATE_LEFT (a, s);
 1811              		.loc 1 72 0
ARM GAS  C:\Users\atsu\AppData\Local\Temp\ccFWVBKl.s 			page 41


 1812 0506 EB41     		ror	r3, r3, r5
 1813              	.LVL183:
 1814              	.LBE618:
 1815              	.LBE633:
 1816              	.LBB634:
 1817              	.LBB628:
  71:.\md5.c       **** 		a += H (b, c, d) + x + (uint32_t)(ac);
 1818              		.loc 1 71 0
 1819 0508 A444     		add	ip, ip, r4
 1820 050a 8444     		add	ip, ip, r0
 1821 050c 101C     		mov	r0, r2
 1822              	.LVL184:
 1823              	.LBE628:
 1824              	.LBE634:
 1825              	.LBB635:
 1826              	.LBB619:
  73:.\md5.c       **** 		a += b;
 1827              		.loc 1 73 0
 1828 050e 9B18     		add	r3, r3, r2
 1829              	.LVL185:
 1830              	.LBE619:
 1831              	.LBE635:
 1832              	.LBB636:
 1833              	.LBB629:
  71:.\md5.c       **** 		a += H (b, c, d) + x + (uint32_t)(ac);
 1834              		.loc 1 71 0
 1835 0510 4840     		eor	r0, r1
 1836 0512 5840     		eor	r0, r3
 1837 0514 6044     		add	r0, r0, ip
 1838              	.LVL186:
  72:.\md5.c       **** 		a = ROTATE_LEFT (a, s);
 1839              		.loc 1 72 0
 1840 0516 1C24     		mov	r4, #28
 1841 0518 E041     		ror	r0, r0, r4
 1842              	.LVL187:
 1843              	.LBE629:
 1844              	.LBE636:
 1845              	.LBB637:
 1846              	.LBB638:
  71:.\md5.c       **** 		a += H (b, c, d) + x + (uint32_t)(ac);
 1847              		.loc 1 71 0
 1848 051a 089C     		ldr	r4, [sp, #32]
 1849              	.LBE638:
 1850              	.LBE637:
 1851              	.LBB643:
 1852              	.LBB630:
  73:.\md5.c       **** 		a += b;
 1853              		.loc 1 73 0
 1854 051c C018     		add	r0, r0, r3
 1855              	.LVL188:
 1856              	.LBE630:
 1857              	.LBE643:
 1858              	.LBB644:
 1859              	.LBB639:
  71:.\md5.c       **** 		a += H (b, c, d) + x + (uint32_t)(ac);
 1860              		.loc 1 71 0
 1861 051e A446     		mov	ip, r4
ARM GAS  C:\Users\atsu\AppData\Local\Temp\ccFWVBKl.s 			page 42


 1862 0520 884C     		ldr	r4, .L12+12
 1863 0522 A444     		add	ip, ip, r4
 1864 0524 8C44     		add	ip, ip, r1
 1865 0526 191C     		mov	r1, r3
 1866              	.LVL189:
 1867              	.LBE639:
 1868              	.LBE644:
 1869              	.LBB645:
 1870              	.LBB646:
 1871 0528 0B9C     		ldr	r4, [sp, #44]
 1872              	.LBE646:
 1873              	.LBE645:
 1874              	.LBB652:
 1875              	.LBB640:
 1876 052a 5140     		eor	r1, r2
 1877 052c 4140     		eor	r1, r0
 1878 052e 6144     		add	r1, r1, ip
 1879              	.LVL190:
 1880              	.LBE640:
 1881              	.LBE652:
 1882              	.LBB653:
 1883              	.LBB647:
 1884 0530 A446     		mov	ip, r4
 1885 0532 854C     		ldr	r4, .L12+16
 1886              	.LBE647:
 1887              	.LBE653:
 1888              	.LBB654:
 1889              	.LBB641:
  72:.\md5.c       **** 		a = ROTATE_LEFT (a, s);
 1890              		.loc 1 72 0
 1891 0534 F941     		ror	r1, r1, r7
 1892              	.LVL191:
 1893              	.LBE641:
 1894              	.LBE654:
 1895              	.LBB655:
 1896              	.LBB648:
  71:.\md5.c       **** 		a += H (b, c, d) + x + (uint32_t)(ac);
 1897              		.loc 1 71 0
 1898 0536 A444     		add	ip, ip, r4
 1899 0538 9444     		add	ip, ip, r2
 1900 053a 021C     		mov	r2, r0
 1901              	.LVL192:
 1902              	.LBE648:
 1903              	.LBE655:
 1904              	.LBB656:
 1905              	.LBB642:
  73:.\md5.c       **** 		a += b;
 1906              		.loc 1 73 0
 1907 053c 0918     		add	r1, r1, r0
 1908              	.LVL193:
 1909              	.LBE642:
 1910              	.LBE656:
 1911              	.LBB657:
 1912              	.LBB658:
  71:.\md5.c       **** 		a += H (b, c, d) + x + (uint32_t)(ac);
 1913              		.loc 1 71 0
 1914 053e 0E9C     		ldr	r4, [sp, #56]
ARM GAS  C:\Users\atsu\AppData\Local\Temp\ccFWVBKl.s 			page 43


 1915              	.LBE658:
 1916              	.LBE657:
 1917              	.LBB664:
 1918              	.LBB649:
 1919 0540 5A40     		eor	r2, r3
 1920 0542 4A40     		eor	r2, r1
 1921 0544 6244     		add	r2, r2, ip
 1922              	.LVL194:
 1923              	.LBE649:
 1924              	.LBE664:
 1925              	.LBB665:
 1926              	.LBB659:
 1927 0546 A446     		mov	ip, r4
 1928 0548 804C     		ldr	r4, .L12+20
 1929              	.LBE659:
 1930              	.LBE665:
 1931              	.LBB666:
 1932              	.LBB650:
  72:.\md5.c       **** 		a = ROTATE_LEFT (a, s);
 1933              		.loc 1 72 0
 1934 054a F241     		ror	r2, r2, r6
 1935              	.LVL195:
 1936              	.LBE650:
 1937              	.LBE666:
 1938              	.LBB667:
 1939              	.LBB660:
  71:.\md5.c       **** 		a += H (b, c, d) + x + (uint32_t)(ac);
 1940              		.loc 1 71 0
 1941 054c A444     		add	ip, ip, r4
 1942 054e 9C44     		add	ip, ip, r3
 1943 0550 0B1C     		mov	r3, r1
 1944              	.LVL196:
 1945              	.LBE660:
 1946              	.LBE667:
 1947              	.LBB668:
 1948              	.LBB651:
  73:.\md5.c       **** 		a += b;
 1949              		.loc 1 73 0
 1950 0552 5218     		add	r2, r2, r1
 1951              	.LVL197:
 1952              	.LBE651:
 1953              	.LBE668:
 1954              	.LBB669:
 1955              	.LBB670:
  71:.\md5.c       **** 		a += H (b, c, d) + x + (uint32_t)(ac);
 1956              		.loc 1 71 0
 1957 0554 119C     		ldr	r4, [sp, #68]
 1958              	.LBE670:
 1959              	.LBE669:
 1960              	.LBB675:
 1961              	.LBB661:
 1962 0556 4340     		eor	r3, r0
 1963 0558 5340     		eor	r3, r2
 1964 055a 6344     		add	r3, r3, ip
 1965              	.LVL198:
 1966              	.LBE661:
 1967              	.LBE675:
ARM GAS  C:\Users\atsu\AppData\Local\Temp\ccFWVBKl.s 			page 44


 1968              	.LBB676:
 1969              	.LBB671:
 1970 055c A446     		mov	ip, r4
 1971 055e 7C4C     		ldr	r4, .L12+24
 1972              	.LBE671:
 1973              	.LBE676:
 1974              	.LBB677:
 1975              	.LBB662:
  72:.\md5.c       **** 		a = ROTATE_LEFT (a, s);
 1976              		.loc 1 72 0
 1977 0560 EB41     		ror	r3, r3, r5
 1978              	.LVL199:
 1979              	.LBE662:
 1980              	.LBE677:
 1981              	.LBB678:
 1982              	.LBB672:
  71:.\md5.c       **** 		a += H (b, c, d) + x + (uint32_t)(ac);
 1983              		.loc 1 71 0
 1984 0562 A444     		add	ip, ip, r4
 1985 0564 8444     		add	ip, ip, r0
 1986 0566 101C     		mov	r0, r2
 1987              	.LVL200:
 1988              	.LBE672:
 1989              	.LBE678:
 1990              	.LBB679:
 1991              	.LBB663:
  73:.\md5.c       **** 		a += b;
 1992              		.loc 1 73 0
 1993 0568 9B18     		add	r3, r3, r2
 1994              	.LVL201:
 1995              	.LBE663:
 1996              	.LBE679:
 1997              	.LBB680:
 1998              	.LBB673:
  71:.\md5.c       **** 		a += H (b, c, d) + x + (uint32_t)(ac);
 1999              		.loc 1 71 0
 2000 056a 4840     		eor	r0, r1
 2001 056c 5840     		eor	r0, r3
 2002 056e 6044     		add	r0, r0, ip
 2003              	.LVL202:
  72:.\md5.c       **** 		a = ROTATE_LEFT (a, s);
 2004              		.loc 1 72 0
 2005 0570 1C24     		mov	r4, #28
 2006 0572 E041     		ror	r0, r0, r4
 2007              	.LVL203:
 2008              	.LBE673:
 2009              	.LBE680:
 2010              	.LBB681:
 2011              	.LBB682:
  71:.\md5.c       **** 		a += H (b, c, d) + x + (uint32_t)(ac);
 2012              		.loc 1 71 0
 2013 0574 149C     		ldr	r4, [sp, #80]
 2014              	.LBE682:
 2015              	.LBE681:
 2016              	.LBB685:
 2017              	.LBB674:
  73:.\md5.c       **** 		a += b;
ARM GAS  C:\Users\atsu\AppData\Local\Temp\ccFWVBKl.s 			page 45


 2018              		.loc 1 73 0
 2019 0576 C018     		add	r0, r0, r3
 2020              	.LVL204:
 2021              	.LBE674:
 2022              	.LBE685:
 2023              	.LBB686:
 2024              	.LBB683:
  71:.\md5.c       **** 		a += H (b, c, d) + x + (uint32_t)(ac);
 2025              		.loc 1 71 0
 2026 0578 A446     		mov	ip, r4
 2027 057a 764C     		ldr	r4, .L12+28
 2028 057c A444     		add	ip, ip, r4
 2029 057e 8C44     		add	ip, ip, r1
 2030 0580 191C     		mov	r1, r3
 2031              	.LVL205:
 2032 0582 5140     		eor	r1, r2
 2033 0584 4140     		eor	r1, r0
 2034 0586 6144     		add	r1, r1, ip
 2035              	.LVL206:
  72:.\md5.c       **** 		a = ROTATE_LEFT (a, s);
 2036              		.loc 1 72 0
 2037 0588 F941     		ror	r1, r1, r7
 2038              	.LVL207:
 2039              	.LBE683:
 2040              	.LBE686:
 2041              	.LBB687:
 2042              	.LBB688:
  71:.\md5.c       **** 		a += H (b, c, d) + x + (uint32_t)(ac);
 2043              		.loc 1 71 0
 2044 058a 179F     		ldr	r7, [sp, #92]
 2045 058c 724C     		ldr	r4, .L12+32
 2046 058e BC46     		mov	ip, r7
 2047 0590 071C     		mov	r7, r0
 2048              	.LBE688:
 2049              	.LBE687:
 2050              	.LBB691:
 2051              	.LBB684:
  73:.\md5.c       **** 		a += b;
 2052              		.loc 1 73 0
 2053 0592 0918     		add	r1, r1, r0
 2054              	.LVL208:
 2055              	.LBE684:
 2056              	.LBE691:
 2057              	.LBB692:
 2058              	.LBB689:
  71:.\md5.c       **** 		a += H (b, c, d) + x + (uint32_t)(ac);
 2059              		.loc 1 71 0
 2060 0594 A444     		add	ip, ip, r4
 2061 0596 5F40     		eor	r7, r3
 2062 0598 4F40     		eor	r7, r1
 2063 059a 6244     		add	r2, r2, ip
 2064              	.LVL209:
 2065 059c D219     		add	r2, r2, r7
 2066              	.LVL210:
  72:.\md5.c       **** 		a = ROTATE_LEFT (a, s);
 2067              		.loc 1 72 0
 2068 059e F241     		ror	r2, r2, r6
ARM GAS  C:\Users\atsu\AppData\Local\Temp\ccFWVBKl.s 			page 46


 2069              	.LVL211:
 2070              	.LBE689:
 2071              	.LBE692:
 2072              	.LBB693:
 2073              	.LBB694:
  71:.\md5.c       **** 		a += H (b, c, d) + x + (uint32_t)(ac);
 2074              		.loc 1 71 0
 2075 05a0 6E4C     		ldr	r4, .L12+36
 2076 05a2 0A9E     		ldr	r6, [sp, #40]
 2077              	.LBE694:
 2078              	.LBE693:
 2079              	.LBB697:
 2080              	.LBB690:
  73:.\md5.c       **** 		a += b;
 2081              		.loc 1 73 0
 2082 05a4 5218     		add	r2, r2, r1
 2083              	.LVL212:
 2084              	.LBE690:
 2085              	.LBE697:
 2086              	.LBB698:
 2087              	.LBB695:
  71:.\md5.c       **** 		a += H (b, c, d) + x + (uint32_t)(ac);
 2088              		.loc 1 71 0
 2089 05a6 3719     		add	r7, r6, r4
 2090 05a8 0E1C     		mov	r6, r1
 2091 05aa 4640     		eor	r6, r0
 2092 05ac FB18     		add	r3, r7, r3
 2093              	.LVL213:
 2094 05ae 5640     		eor	r6, r2
 2095 05b0 9C19     		add	r4, r3, r6
 2096              	.LVL214:
  72:.\md5.c       **** 		a = ROTATE_LEFT (a, s);
 2097              		.loc 1 72 0
 2098 05b2 EC41     		ror	r4, r4, r5
 2099              	.LVL215:
 2100              	.LBE695:
 2101              	.LBE698:
 2102              	.LBB699:
 2103              	.LBB700:
  79:.\md5.c       **** 		a += I (b, c, d) + x + (uint32_t)(ac);
 2104              		.loc 1 79 0
 2105 05b4 6A4F     		ldr	r7, .L12+40
 2106 05b6 089D     		ldr	r5, [sp, #32]
 2107              	.LBE700:
 2108              	.LBE699:
 2109              	.LBB704:
 2110              	.LBB696:
  73:.\md5.c       **** 		a += b;
 2111              		.loc 1 73 0
 2112 05b8 A318     		add	r3, r4, r2
 2113              	.LVL216:
 2114              	.LBE696:
 2115              	.LBE704:
 2116              	.LBB705:
 2117              	.LBB701:
  79:.\md5.c       **** 		a += I (b, c, d) + x + (uint32_t)(ac);
 2118              		.loc 1 79 0
ARM GAS  C:\Users\atsu\AppData\Local\Temp\ccFWVBKl.s 			page 47


 2119 05ba CC43     		mvn	r4, r1
 2120 05bc EE19     		add	r6, r5, r7
 2121 05be 1C43     		orr	r4, r3
 2122 05c0 3018     		add	r0, r6, r0
 2123              	.LVL217:
 2124 05c2 5440     		eor	r4, r2
 2125 05c4 0519     		add	r5, r0, r4
 2126              	.LVL218:
  80:.\md5.c       **** 		a = ROTATE_LEFT (a, s);
 2127              		.loc 1 80 0
 2128 05c6 1A27     		mov	r7, #26
 2129              	.LBE701:
 2130              	.LBE705:
 2131              	.LBB706:
 2132              	.LBB707:
  79:.\md5.c       **** 		a += I (b, c, d) + x + (uint32_t)(ac);
 2133              		.loc 1 79 0
 2134 05c8 0F98     		ldr	r0, [sp, #60]
 2135              	.LBE707:
 2136              	.LBE706:
 2137              	.LBB711:
 2138              	.LBB702:
  80:.\md5.c       **** 		a = ROTATE_LEFT (a, s);
 2139              		.loc 1 80 0
 2140 05ca FD41     		ror	r5, r5, r7
 2141              	.LVL219:
 2142              	.LBE702:
 2143              	.LBE711:
 2144              	.LBB712:
 2145              	.LBB708:
  79:.\md5.c       **** 		a += I (b, c, d) + x + (uint32_t)(ac);
 2146              		.loc 1 79 0
 2147 05cc 654E     		ldr	r6, .L12+44
 2148              	.LBE708:
 2149              	.LBE712:
 2150              	.LBB713:
 2151              	.LBB703:
  81:.\md5.c       **** 		a += b;
 2152              		.loc 1 81 0
 2153 05ce ED18     		add	r5, r5, r3
 2154              	.LVL220:
 2155              	.LBE703:
 2156              	.LBE713:
 2157              	.LBB714:
 2158              	.LBB709:
  79:.\md5.c       **** 		a += I (b, c, d) + x + (uint32_t)(ac);
 2159              		.loc 1 79 0
 2160 05d0 D743     		mvn	r7, r2
 2161 05d2 8419     		add	r4, r0, r6
 2162 05d4 2F43     		orr	r7, r5
 2163 05d6 6118     		add	r1, r4, r1
 2164              	.LVL221:
 2165 05d8 5F40     		eor	r7, r3
  80:.\md5.c       **** 		a = ROTATE_LEFT (a, s);
 2166              		.loc 1 80 0
 2167 05da 1626     		mov	r6, #22
  79:.\md5.c       **** 		a += I (b, c, d) + x + (uint32_t)(ac);
ARM GAS  C:\Users\atsu\AppData\Local\Temp\ccFWVBKl.s 			page 48


 2168              		.loc 1 79 0
 2169 05dc C819     		add	r0, r1, r7
 2170              	.LVL222:
 2171              	.LBE709:
 2172              	.LBE714:
 2173              	.LBB715:
 2174              	.LBB716:
 2175 05de 624C     		ldr	r4, .L12+48
 2176 05e0 1699     		ldr	r1, [sp, #88]
 2177              	.LBE716:
 2178              	.LBE715:
 2179              	.LBB719:
 2180              	.LBB710:
  80:.\md5.c       **** 		a = ROTATE_LEFT (a, s);
 2181              		.loc 1 80 0
 2182 05e2 F041     		ror	r0, r0, r6
 2183              	.LVL223:
  81:.\md5.c       **** 		a += b;
 2184              		.loc 1 81 0
 2185 05e4 4019     		add	r0, r0, r5
 2186              	.LVL224:
 2187              	.LBE710:
 2188              	.LBE719:
 2189              	.LBB720:
 2190              	.LBB717:
  79:.\md5.c       **** 		a += I (b, c, d) + x + (uint32_t)(ac);
 2191              		.loc 1 79 0
 2192 05e6 0F19     		add	r7, r1, r4
 2193 05e8 D943     		mvn	r1, r3
 2194 05ea 0143     		orr	r1, r0
 2195 05ec BA18     		add	r2, r7, r2
 2196              	.LVL225:
 2197 05ee 6940     		eor	r1, r5
  80:.\md5.c       **** 		a = ROTATE_LEFT (a, s);
 2198              		.loc 1 80 0
 2199 05f0 1127     		mov	r7, #17
  79:.\md5.c       **** 		a += I (b, c, d) + x + (uint32_t)(ac);
 2200              		.loc 1 79 0
 2201 05f2 5418     		add	r4, r2, r1
 2202              	.LVL226:
  80:.\md5.c       **** 		a = ROTATE_LEFT (a, s);
 2203              		.loc 1 80 0
 2204 05f4 FC41     		ror	r4, r4, r7
 2205              	.LVL227:
 2206              	.LBE717:
 2207              	.LBE720:
 2208              	.LBB721:
 2209              	.LBB722:
  79:.\md5.c       **** 		a += I (b, c, d) + x + (uint32_t)(ac);
 2210              		.loc 1 79 0
 2211 05f6 0D9A     		ldr	r2, [sp, #52]
 2212              	.LBE722:
 2213              	.LBE721:
 2214              	.LBB725:
 2215              	.LBB718:
  81:.\md5.c       **** 		a += b;
 2216              		.loc 1 81 0
ARM GAS  C:\Users\atsu\AppData\Local\Temp\ccFWVBKl.s 			page 49


 2217 05f8 2118     		add	r1, r4, r0
 2218              	.LVL228:
 2219              	.LBE718:
 2220              	.LBE725:
 2221              	.LBB726:
 2222              	.LBB723:
  79:.\md5.c       **** 		a += I (b, c, d) + x + (uint32_t)(ac);
 2223              		.loc 1 79 0
 2224 05fa 5C4C     		ldr	r4, .L12+52
 2225 05fc 9446     		mov	ip, r2
 2226 05fe EA43     		mvn	r2, r5
 2227 0600 A444     		add	ip, ip, r4
 2228 0602 0A43     		orr	r2, r1
 2229 0604 4240     		eor	r2, r0
 2230 0606 6344     		add	r3, r3, ip
 2231              	.LVL229:
  80:.\md5.c       **** 		a = ROTATE_LEFT (a, s);
 2232              		.loc 1 80 0
 2233 0608 0B24     		mov	r4, #11
  79:.\md5.c       **** 		a += I (b, c, d) + x + (uint32_t)(ac);
 2234              		.loc 1 79 0
 2235 060a 9B18     		add	r3, r3, r2
 2236              	.LVL230:
  80:.\md5.c       **** 		a = ROTATE_LEFT (a, s);
 2237              		.loc 1 80 0
 2238 060c A446     		mov	ip, r4
 2239 060e E341     		ror	r3, r3, r4
 2240              	.LVL231:
 2241              	.LBE723:
 2242              	.LBE726:
 2243              	.LBB727:
 2244              	.LBB728:
  79:.\md5.c       **** 		a += I (b, c, d) + x + (uint32_t)(ac);
 2245              		.loc 1 79 0
 2246 0610 574A     		ldr	r2, .L12+56
 2247 0612 149C     		ldr	r4, [sp, #80]
 2248              	.LBE728:
 2249              	.LBE727:
 2250              	.LBB731:
 2251              	.LBB724:
  81:.\md5.c       **** 		a += b;
 2252              		.loc 1 81 0
 2253 0614 5B18     		add	r3, r3, r1
 2254              	.LVL232:
 2255              	.LBE724:
 2256              	.LBE731:
 2257              	.LBB732:
 2258              	.LBB729:
  79:.\md5.c       **** 		a += I (b, c, d) + x + (uint32_t)(ac);
 2259              		.loc 1 79 0
 2260 0616 A218     		add	r2, r4, r2
 2261 0618 C443     		mvn	r4, r0
 2262 061a 1C43     		orr	r4, r3
 2263 061c 4C40     		eor	r4, r1
 2264 061e 5519     		add	r5, r2, r5
 2265              	.LVL233:
 2266 0620 2A19     		add	r2, r5, r4
ARM GAS  C:\Users\atsu\AppData\Local\Temp\ccFWVBKl.s 			page 50


 2267              	.LVL234:
  80:.\md5.c       **** 		a = ROTATE_LEFT (a, s);
 2268              		.loc 1 80 0
 2269 0622 1A25     		mov	r5, #26
 2270 0624 EA41     		ror	r2, r2, r5
 2271              	.LVL235:
 2272              	.LBE729:
 2273              	.LBE732:
 2274              	.LBB733:
 2275              	.LBB734:
  79:.\md5.c       **** 		a += I (b, c, d) + x + (uint32_t)(ac);
 2276              		.loc 1 79 0
 2277 0626 534C     		ldr	r4, .L12+60
 2278 0628 0B9D     		ldr	r5, [sp, #44]
 2279              	.LBE734:
 2280              	.LBE733:
 2281              	.LBB736:
 2282              	.LBB730:
  81:.\md5.c       **** 		a += b;
 2283              		.loc 1 81 0
 2284 062a D218     		add	r2, r2, r3
 2285              	.LVL236:
 2286              	.LBE730:
 2287              	.LBE736:
 2288              	.LBB737:
 2289              	.LBB735:
  79:.\md5.c       **** 		a += I (b, c, d) + x + (uint32_t)(ac);
 2290              		.loc 1 79 0
 2291 062c 2C19     		add	r4, r5, r4
 2292 062e CD43     		mvn	r5, r1
 2293 0630 1543     		orr	r5, r2
 2294 0632 5D40     		eor	r5, r3
 2295 0634 2018     		add	r0, r4, r0
 2296              	.LVL237:
 2297 0636 4419     		add	r4, r0, r5
 2298              	.LVL238:
  80:.\md5.c       **** 		a = ROTATE_LEFT (a, s);
 2299              		.loc 1 80 0
 2300 0638 F441     		ror	r4, r4, r6
 2301              	.LVL239:
  81:.\md5.c       **** 		a += b;
 2302              		.loc 1 81 0
 2303 063a A018     		add	r0, r4, r2
 2304              	.LVL240:
 2305              	.LBE735:
 2306              	.LBE737:
 2307              	.LBB738:
 2308              	.LBB739:
  79:.\md5.c       **** 		a += I (b, c, d) + x + (uint32_t)(ac);
 2309              		.loc 1 79 0
 2310 063c 129D     		ldr	r5, [sp, #72]
 2311 063e 4E4C     		ldr	r4, .L12+64
 2312 0640 2C19     		add	r4, r5, r4
 2313 0642 DD43     		mvn	r5, r3
 2314 0644 0543     		orr	r5, r0
 2315 0646 5540     		eor	r5, r2
 2316 0648 6118     		add	r1, r4, r1
ARM GAS  C:\Users\atsu\AppData\Local\Temp\ccFWVBKl.s 			page 51


 2317              	.LVL241:
 2318 064a 4C19     		add	r4, r1, r5
 2319              	.LVL242:
  80:.\md5.c       **** 		a = ROTATE_LEFT (a, s);
 2320              		.loc 1 80 0
 2321 064c FC41     		ror	r4, r4, r7
 2322              	.LVL243:
  81:.\md5.c       **** 		a += b;
 2323              		.loc 1 81 0
 2324 064e 2118     		add	r1, r4, r0
 2325              	.LVL244:
 2326              	.LBE739:
 2327              	.LBE738:
 2328              	.LBB740:
 2329              	.LBB741:
  79:.\md5.c       **** 		a += I (b, c, d) + x + (uint32_t)(ac);
 2330              		.loc 1 79 0
 2331 0650 099D     		ldr	r5, [sp, #36]
 2332 0652 4A4C     		ldr	r4, .L12+68
 2333 0654 2C19     		add	r4, r5, r4
 2334 0656 D543     		mvn	r5, r2
 2335 0658 0D43     		orr	r5, r1
 2336 065a 4540     		eor	r5, r0
 2337 065c E318     		add	r3, r4, r3
 2338              	.LVL245:
 2339 065e 5C19     		add	r4, r3, r5
 2340              	.LVL246:
  80:.\md5.c       **** 		a = ROTATE_LEFT (a, s);
 2341              		.loc 1 80 0
 2342 0660 6346     		mov	r3, ip
 2343 0662 DC41     		ror	r4, r4, r3
 2344              	.LVL247:
  81:.\md5.c       **** 		a += b;
 2345              		.loc 1 81 0
 2346 0664 6318     		add	r3, r4, r1
 2347              	.LVL248:
 2348              	.LBE741:
 2349              	.LBE740:
 2350              	.LBB742:
 2351              	.LBB743:
  79:.\md5.c       **** 		a += I (b, c, d) + x + (uint32_t)(ac);
 2352              		.loc 1 79 0
 2353 0666 464D     		ldr	r5, .L12+72
 2354 0668 109C     		ldr	r4, [sp, #64]
 2355 066a 6519     		add	r5, r4, r5
 2356 066c C443     		mvn	r4, r0
 2357 066e 1C43     		orr	r4, r3
 2358 0670 4C40     		eor	r4, r1
 2359 0672 AA18     		add	r2, r5, r2
 2360              	.LVL249:
 2361 0674 1519     		add	r5, r2, r4
 2362              	.LVL250:
  80:.\md5.c       **** 		a = ROTATE_LEFT (a, s);
 2363              		.loc 1 80 0
 2364 0676 1A22     		mov	r2, #26
 2365 0678 D541     		ror	r5, r5, r2
 2366              	.LVL251:
ARM GAS  C:\Users\atsu\AppData\Local\Temp\ccFWVBKl.s 			page 52


  81:.\md5.c       **** 		a += b;
 2367              		.loc 1 81 0
 2368 067a EA18     		add	r2, r5, r3
 2369              	.LVL252:
 2370              	.LBE743:
 2371              	.LBE742:
 2372              	.LBB744:
 2373              	.LBB745:
  79:.\md5.c       **** 		a += I (b, c, d) + x + (uint32_t)(ac);
 2374              		.loc 1 79 0
 2375 067c 414C     		ldr	r4, .L12+76
 2376 067e 179D     		ldr	r5, [sp, #92]
 2377 0680 2C19     		add	r4, r5, r4
 2378 0682 CD43     		mvn	r5, r1
 2379 0684 1543     		orr	r5, r2
 2380 0686 5D40     		eor	r5, r3
 2381 0688 2018     		add	r0, r4, r0
 2382              	.LVL253:
 2383 068a 4419     		add	r4, r0, r5
 2384              	.LVL254:
  80:.\md5.c       **** 		a = ROTATE_LEFT (a, s);
 2385              		.loc 1 80 0
 2386 068c F441     		ror	r4, r4, r6
 2387              	.LVL255:
  81:.\md5.c       **** 		a += b;
 2388              		.loc 1 81 0
 2389 068e A018     		add	r0, r4, r2
 2390              	.LVL256:
 2391              	.LBE745:
 2392              	.LBE744:
 2393              	.LBB746:
 2394              	.LBB747:
  79:.\md5.c       **** 		a += I (b, c, d) + x + (uint32_t)(ac);
 2395              		.loc 1 79 0
 2396 0690 0E9D     		ldr	r5, [sp, #56]
 2397 0692 3D4C     		ldr	r4, .L12+80
 2398 0694 2C19     		add	r4, r5, r4
 2399 0696 DD43     		mvn	r5, r3
 2400 0698 0543     		orr	r5, r0
 2401 069a 5540     		eor	r5, r2
 2402 069c 6118     		add	r1, r4, r1
 2403              	.LVL257:
 2404 069e 4C19     		add	r4, r1, r5
 2405              	.LVL258:
  80:.\md5.c       **** 		a = ROTATE_LEFT (a, s);
 2406              		.loc 1 80 0
 2407 06a0 FC41     		ror	r4, r4, r7
 2408              	.LVL259:
  81:.\md5.c       **** 		a += b;
 2409              		.loc 1 81 0
 2410 06a2 2118     		add	r1, r4, r0
 2411              	.LVL260:
 2412              	.LBE747:
 2413              	.LBE746:
 2414              	.LBB748:
 2415              	.LBB749:
  79:.\md5.c       **** 		a += I (b, c, d) + x + (uint32_t)(ac);
ARM GAS  C:\Users\atsu\AppData\Local\Temp\ccFWVBKl.s 			page 53


 2416              		.loc 1 79 0
 2417 06a4 159D     		ldr	r5, [sp, #84]
 2418 06a6 394C     		ldr	r4, .L12+84
 2419 06a8 2C19     		add	r4, r5, r4
 2420 06aa D543     		mvn	r5, r2
 2421 06ac 0D43     		orr	r5, r1
 2422 06ae 4540     		eor	r5, r0
 2423 06b0 E318     		add	r3, r4, r3
 2424              	.LVL261:
 2425 06b2 5C19     		add	r4, r3, r5
 2426              	.LVL262:
  80:.\md5.c       **** 		a = ROTATE_LEFT (a, s);
 2427              		.loc 1 80 0
 2428 06b4 6346     		mov	r3, ip
 2429 06b6 DC41     		ror	r4, r4, r3
 2430              	.LVL263:
  81:.\md5.c       **** 		a += b;
 2431              		.loc 1 81 0
 2432 06b8 6318     		add	r3, r4, r1
 2433              	.LVL264:
 2434              	.LBE749:
 2435              	.LBE748:
 2436              	.LBB750:
 2437              	.LBB751:
  79:.\md5.c       **** 		a += I (b, c, d) + x + (uint32_t)(ac);
 2438              		.loc 1 79 0
 2439 06ba 354D     		ldr	r5, .L12+88
 2440 06bc 0C9C     		ldr	r4, [sp, #48]
 2441 06be 6519     		add	r5, r4, r5
 2442 06c0 C443     		mvn	r4, r0
 2443 06c2 1C43     		orr	r4, r3
 2444 06c4 4C40     		eor	r4, r1
 2445 06c6 AA18     		add	r2, r5, r2
 2446              	.LVL265:
 2447 06c8 1519     		add	r5, r2, r4
 2448              	.LVL266:
  80:.\md5.c       **** 		a = ROTATE_LEFT (a, s);
 2449              		.loc 1 80 0
 2450 06ca 1A22     		mov	r2, #26
 2451 06cc D541     		ror	r5, r5, r2
 2452              	.LVL267:
  81:.\md5.c       **** 		a += b;
 2453              		.loc 1 81 0
 2454 06ce EA18     		add	r2, r5, r3
 2455              	.LVL268:
 2456              	.LBE751:
 2457              	.LBE750:
 2458              	.LBB752:
 2459              	.LBB753:
  79:.\md5.c       **** 		a += I (b, c, d) + x + (uint32_t)(ac);
 2460              		.loc 1 79 0
 2461 06d0 304C     		ldr	r4, .L12+92
 2462 06d2 139D     		ldr	r5, [sp, #76]
 2463 06d4 2C19     		add	r4, r5, r4
 2464 06d6 CD43     		mvn	r5, r1
 2465 06d8 1543     		orr	r5, r2
 2466 06da 5D40     		eor	r5, r3
ARM GAS  C:\Users\atsu\AppData\Local\Temp\ccFWVBKl.s 			page 54


 2467 06dc 2018     		add	r0, r4, r0
 2468              	.LVL269:
 2469 06de 4419     		add	r4, r0, r5
 2470              	.LVL270:
  80:.\md5.c       **** 		a = ROTATE_LEFT (a, s);
 2471              		.loc 1 80 0
 2472 06e0 F441     		ror	r4, r4, r6
 2473              	.LVL271:
 2474              	.LBE753:
 2475              	.LBE752:
 2476              	.LBB755:
 2477              	.LBB756:
  79:.\md5.c       **** 		a += I (b, c, d) + x + (uint32_t)(ac);
 2478              		.loc 1 79 0
 2479 06e2 0A9D     		ldr	r5, [sp, #40]
 2480 06e4 2C4E     		ldr	r6, .L12+96
 2481              	.LBE756:
 2482              	.LBE755:
 2483              	.LBB759:
 2484              	.LBB754:
  81:.\md5.c       **** 		a += b;
 2485              		.loc 1 81 0
 2486 06e6 A018     		add	r0, r4, r2
 2487              	.LVL272:
 2488              	.LBE754:
 2489              	.LBE759:
 2490              	.LBB760:
 2491              	.LBB757:
  79:.\md5.c       **** 		a += I (b, c, d) + x + (uint32_t)(ac);
 2492              		.loc 1 79 0
 2493 06e8 AC19     		add	r4, r5, r6
 2494 06ea DD43     		mvn	r5, r3
 2495 06ec 0543     		orr	r5, r0
 2496 06ee 6118     		add	r1, r4, r1
 2497              	.LVL273:
 2498 06f0 5540     		eor	r5, r2
 2499 06f2 4E19     		add	r6, r1, r5
 2500              	.LVL274:
  80:.\md5.c       **** 		a = ROTATE_LEFT (a, s);
 2501              		.loc 1 80 0
 2502 06f4 FE41     		ror	r6, r6, r7
 2503              	.LVL275:
 2504              	.LBE757:
 2505              	.LBE760:
 2506              	.LBB761:
 2507              	.LBB762:
  79:.\md5.c       **** 		a += I (b, c, d) + x + (uint32_t)(ac);
 2508              		.loc 1 79 0
 2509 06f6 294C     		ldr	r4, .L12+100
 2510 06f8 119F     		ldr	r7, [sp, #68]
 2511              	.LBE762:
 2512              	.LBE761:
 2513              	.LBB768:
 2514              	.LBB758:
  81:.\md5.c       **** 		a += b;
 2515              		.loc 1 81 0
 2516 06fa 3118     		add	r1, r6, r0
ARM GAS  C:\Users\atsu\AppData\Local\Temp\ccFWVBKl.s 			page 55


 2517              	.LVL276:
 2518              	.LBE758:
 2519              	.LBE768:
 2520              	.LBB769:
 2521              	.LBB763:
  79:.\md5.c       **** 		a += I (b, c, d) + x + (uint32_t)(ac);
 2522              		.loc 1 79 0
 2523 06fc 3D19     		add	r5, r7, r4
 2524              	.LBE763:
 2525              	.LBE769:
 245:.\md5.c       **** 	state[0] += a;
 2526              		.loc 1 245 0
 2527 06fe 079F     		ldr	r7, [sp, #28]
 2528              	.LBB770:
 2529              	.LBB764:
  79:.\md5.c       **** 		a += I (b, c, d) + x + (uint32_t)(ac);
 2530              		.loc 1 79 0
 2531 0700 D643     		mvn	r6, r2
 2532              	.LBE764:
 2533              	.LBE770:
 245:.\md5.c       **** 	state[0] += a;
 2534              		.loc 1 245 0
 2535 0702 D219     		add	r2, r2, r7
 2536              	.LVL277:
 2537 0704 029F     		ldr	r7, [sp, #8]
 2538              	.LBB771:
 2539              	.LBB765:
  79:.\md5.c       **** 		a += I (b, c, d) + x + (uint32_t)(ac);
 2540              		.loc 1 79 0
 2541 0706 0E43     		orr	r6, r1
 2542              	.LVL278:
 2543              	.LBE765:
 2544              	.LBE771:
 245:.\md5.c       **** 	state[0] += a;
 2545              		.loc 1 245 0
 2546 0708 3A60     		str	r2, [r7]
 2547              	.LBB772:
 2548              	.LBB766:
  79:.\md5.c       **** 		a += I (b, c, d) + x + (uint32_t)(ac);
 2549              		.loc 1 79 0
 2550 070a 4640     		eor	r6, r0
  81:.\md5.c       **** 		a += b;
 2551              		.loc 1 81 0
 2552 070c 039C     		ldr	r4, [sp, #12]
  79:.\md5.c       **** 		a += I (b, c, d) + x + (uint32_t)(ac);
 2553              		.loc 1 79 0
 2554 070e EB18     		add	r3, r5, r3
 2555              	.LVL279:
 2556              	.LBE766:
 2557              	.LBE772:
 247:.\md5.c       **** 	state[2] += c;
 2558              		.loc 1 247 0
 2559 0710 059A     		ldr	r2, [sp, #20]
 2560              	.LBB773:
 2561              	.LBB767:
  80:.\md5.c       **** 		a = ROTATE_LEFT (a, s);
 2562              		.loc 1 80 0
ARM GAS  C:\Users\atsu\AppData\Local\Temp\ccFWVBKl.s 			page 56


 2563 0712 6546     		mov	r5, ip
  79:.\md5.c       **** 		a += I (b, c, d) + x + (uint32_t)(ac);
 2564              		.loc 1 79 0
 2565 0714 9B19     		add	r3, r3, r6
 2566              	.LVL280:
  80:.\md5.c       **** 		a = ROTATE_LEFT (a, s);
 2567              		.loc 1 80 0
 2568 0716 EB41     		ror	r3, r3, r5
 2569              	.LVL281:
  81:.\md5.c       **** 		a += b;
 2570              		.loc 1 81 0
 2571 0718 0E19     		add	r6, r1, r4
 2572              	.LBE767:
 2573              	.LBE773:
 246:.\md5.c       **** 	state[1] += b;
 2574              		.loc 1 246 0
 2575 071a F318     		add	r3, r6, r3
 247:.\md5.c       **** 	state[2] += c;
 2576              		.loc 1 247 0
 2577 071c 8918     		add	r1, r1, r2
 2578              	.LVL282:
 246:.\md5.c       **** 	state[1] += b;
 2579              		.loc 1 246 0
 2580 071e 7B60     		str	r3, [r7, #4]
 247:.\md5.c       **** 	state[2] += c;
 2581              		.loc 1 247 0
 2582 0720 B960     		str	r1, [r7, #8]
 248:.\md5.c       **** 	state[3] += d;
 2583              		.loc 1 248 0
 2584 0722 069F     		ldr	r7, [sp, #24]
 2585 0724 029C     		ldr	r4, [sp, #8]
 2586 0726 C019     		add	r0, r0, r7
 2587              	.LVL283:
 2588 0728 E060     		str	r0, [r4, #12]
 251:.\md5.c       **** 	memset(&x,0,sizeof(x));
 2589              		.loc 1 251 0
 2590 072a 0021     		mov	r1, #0
 2591 072c 08A8     		add	r0, sp, #32
 2592              	.LVL284:
 2593 072e 049A     		ldr	r2, [sp, #16]
 2594 0730 FFF7FEFF 		bl	memset
 2595              	.LVL285:
 252:.\md5.c       **** }
 2596              		.loc 1 252 0
 2597 0734 19B0     		add	sp, sp, #100
 2598              		@ sp needed for prologue
 2599 0736 F0BD     		pop	{r4, r5, r6, r7, pc}
 2600              	.L13:
 2601              		.align	2
 2602              	.L12:
 2603 0738 604BBBF6 		.word	-155497632
 2604 073c 70BCBFBE 		.word	-1094730640
 2605 0740 C67E9B28 		.word	681279174
 2606 0744 FA27A1EA 		.word	-358537222
 2607 0748 8530EFD4 		.word	-722521979
 2608 074c 051D8804 		.word	76029189
 2609 0750 39D0D4D9 		.word	-640364487
ARM GAS  C:\Users\atsu\AppData\Local\Temp\ccFWVBKl.s 			page 57


 2610 0754 E599DBE6 		.word	-421815835
 2611 0758 F87CA21F 		.word	530742520
 2612 075c 6556ACC4 		.word	-995338651
 2613 0760 442229F4 		.word	-198630844
 2614 0764 97FF2A43 		.word	1126891415
 2615 0768 A72394AB 		.word	-1416354905
 2616 076c 39A093FC 		.word	-57434055
 2617 0770 C3595B65 		.word	1700485571
 2618 0774 92CC0C8F 		.word	-1894986606
 2619 0778 7DF4EFFF 		.word	-1051523
 2620 077c D15D8485 		.word	-2054922799
 2621 0780 4F7EA86F 		.word	1873313359
 2622 0784 E0E62CFE 		.word	-30611744
 2623 0788 144301A3 		.word	-1560198380
 2624 078c A111084E 		.word	1309151649
 2625 0790 827E53F7 		.word	-145523070
 2626 0794 35F23ABD 		.word	-1120210379
 2627 0798 BBD2D72A 		.word	718787259
 2628 079c 91D386EB 		.word	-343485551
 2629              		.cfi_endproc
 2630              	.LFE7:
 2631              		.size	md5_transform, .-md5_transform
 2632              		.section	.text.FF,"ax",%progbits
 2633              		.align	1
 2634              		.global	FF
 2635              		.code	16
 2636              		.thumb_func
 2637              		.type	FF, %function
 2638              	FF:
 2639              	.LFB0:
  55:.\md5.c       **** 	{
 2640              		.loc 1 55 0
 2641              		.cfi_startproc
 2642              	.LVL286:
 2643 0000 30B5     		push	{r4, r5, lr}
 2644              	.LCFI3:
 2645              		.cfi_def_cfa_offset 12
 2646              		.cfi_offset 4, -12
 2647              		.cfi_offset 5, -8
 2648              		.cfi_offset 14, -4
  56:.\md5.c       **** 		a += F (b, c, d) + x + (uint32_t)(ac);
 2649              		.loc 1 56 0
 2650 0002 039D     		ldr	r5, [sp, #12]
 2651 0004 0A40     		and	r2, r1
 2652              	.LVL287:
 2653 0006 2C18     		add	r4, r5, r0
 2654 0008 181C     		mov	r0, r3
 2655              	.LVL288:
 2656 000a 8843     		bic	r0, r1
  57:.\md5.c       **** 		a = ROTATE_LEFT (a, s);
 2657              		.loc 1 57 0
 2658 000c 049D     		ldr	r5, [sp, #16]
  56:.\md5.c       **** 		a += F (b, c, d) + x + (uint32_t)(ac);
 2659              		.loc 1 56 0
 2660 000e 0243     		orr	r2, r0
 2661 0010 059B     		ldr	r3, [sp, #20]
 2662              	.LVL289:
ARM GAS  C:\Users\atsu\AppData\Local\Temp\ccFWVBKl.s 			page 58


 2663 0012 A218     		add	r2, r4, r2
  57:.\md5.c       **** 		a = ROTATE_LEFT (a, s);
 2664              		.loc 1 57 0
 2665 0014 2024     		mov	r4, #32
  56:.\md5.c       **** 		a += F (b, c, d) + x + (uint32_t)(ac);
 2666              		.loc 1 56 0
 2667 0016 D018     		add	r0, r2, r3
 2668              	.LVL290:
  57:.\md5.c       **** 		a = ROTATE_LEFT (a, s);
 2669              		.loc 1 57 0
 2670 0018 621B     		sub	r2, r4, r5
 2671 001a D041     		ror	r0, r0, r2
 2672              	.LVL291:
  58:.\md5.c       **** 		a += b;
 2673              		.loc 1 58 0
 2674 001c 4018     		add	r0, r0, r1
 2675              	.LVL292:
  60:.\md5.c       **** 	}
 2676              		.loc 1 60 0
 2677              		@ sp needed for prologue
 2678 001e 30BD     		pop	{r4, r5, pc}
 2679              		.cfi_endproc
 2680              	.LFE0:
 2681              		.size	FF, .-FF
 2682              		.section	.text.GG,"ax",%progbits
 2683              		.align	1
 2684              		.global	GG
 2685              		.code	16
 2686              		.thumb_func
 2687              		.type	GG, %function
 2688              	GG:
 2689              	.LFB1:
  62:.\md5.c       **** 	{
 2690              		.loc 1 62 0
 2691              		.cfi_startproc
 2692              	.LVL293:
 2693 0000 30B5     		push	{r4, r5, lr}
 2694              	.LCFI4:
 2695              		.cfi_def_cfa_offset 12
 2696              		.cfi_offset 4, -12
 2697              		.cfi_offset 5, -8
 2698              		.cfi_offset 14, -4
  63:.\md5.c       **** 		a += G (b, c, d) + x + (uint32_t)(ac);
 2699              		.loc 1 63 0
 2700 0002 039D     		ldr	r5, [sp, #12]
 2701 0004 9A43     		bic	r2, r3
 2702              	.LVL294:
 2703 0006 0B40     		and	r3, r1
 2704              	.LVL295:
 2705 0008 2C18     		add	r4, r5, r0
 2706 000a 1343     		orr	r3, r2
 2707 000c E018     		add	r0, r4, r3
 2708              	.LVL296:
  64:.\md5.c       **** 		a = ROTATE_LEFT (a, s);
 2709              		.loc 1 64 0
 2710 000e 049D     		ldr	r5, [sp, #16]
  63:.\md5.c       **** 		a += G (b, c, d) + x + (uint32_t)(ac);
ARM GAS  C:\Users\atsu\AppData\Local\Temp\ccFWVBKl.s 			page 59


 2711              		.loc 1 63 0
 2712 0010 059B     		ldr	r3, [sp, #20]
  64:.\md5.c       **** 		a = ROTATE_LEFT (a, s);
 2713              		.loc 1 64 0
 2714 0012 2024     		mov	r4, #32
  63:.\md5.c       **** 		a += G (b, c, d) + x + (uint32_t)(ac);
 2715              		.loc 1 63 0
 2716 0014 C218     		add	r2, r0, r3
 2717              	.LVL297:
  64:.\md5.c       **** 		a = ROTATE_LEFT (a, s);
 2718              		.loc 1 64 0
 2719 0016 601B     		sub	r0, r4, r5
 2720 0018 C241     		ror	r2, r2, r0
 2721              	.LVL298:
  65:.\md5.c       **** 		a += b;
 2722              		.loc 1 65 0
 2723 001a 5018     		add	r0, r2, r1
 2724              	.LVL299:
  67:.\md5.c       **** 	}
 2725              		.loc 1 67 0
 2726              		@ sp needed for prologue
 2727 001c 30BD     		pop	{r4, r5, pc}
 2728              		.cfi_endproc
 2729              	.LFE1:
 2730              		.size	GG, .-GG
 2731              		.section	.text.HH,"ax",%progbits
 2732              		.align	1
 2733              		.global	HH
 2734              		.code	16
 2735              		.thumb_func
 2736              		.type	HH, %function
 2737              	HH:
 2738              	.LFB2:
  70:.\md5.c       **** 	{
 2739              		.loc 1 70 0
 2740              		.cfi_startproc
 2741              	.LVL300:
  71:.\md5.c       **** 		a += H (b, c, d) + x + (uint32_t)(ac);
 2742              		.loc 1 71 0
 2743 0000 4A40     		eor	r2, r1
 2744              	.LVL301:
 2745 0002 5340     		eor	r3, r2
 2746              	.LVL302:
 2747 0004 009A     		ldr	r2, [sp]
  75:.\md5.c       **** 	}
 2748              		.loc 1 75 0
 2749              		@ sp needed for prologue
  71:.\md5.c       **** 		a += H (b, c, d) + x + (uint32_t)(ac);
 2750              		.loc 1 71 0
 2751 0006 9B18     		add	r3, r3, r2
 2752 0008 029A     		ldr	r2, [sp, #8]
 2753 000a 1818     		add	r0, r3, r0
 2754              	.LVL303:
 2755 000c 8018     		add	r0, r0, r2
 2756              	.LVL304:
  72:.\md5.c       **** 		a = ROTATE_LEFT (a, s);
 2757              		.loc 1 72 0
ARM GAS  C:\Users\atsu\AppData\Local\Temp\ccFWVBKl.s 			page 60


 2758 000e 019A     		ldr	r2, [sp, #4]
 2759 0010 2023     		mov	r3, #32
 2760 0012 9B1A     		sub	r3, r3, r2
 2761 0014 D841     		ror	r0, r0, r3
 2762              	.LVL305:
  73:.\md5.c       **** 		a += b;
 2763              		.loc 1 73 0
 2764 0016 4018     		add	r0, r0, r1
 2765              	.LVL306:
  75:.\md5.c       **** 	}
 2766              		.loc 1 75 0
 2767 0018 7047     		bx	lr
 2768              		.cfi_endproc
 2769              	.LFE2:
 2770              		.size	HH, .-HH
 2771              		.section	.text.II,"ax",%progbits
 2772              		.align	1
 2773              		.global	II
 2774              		.code	16
 2775              		.thumb_func
 2776              		.type	II, %function
 2777              	II:
 2778              	.LFB3:
  78:.\md5.c       **** 	{
 2779              		.loc 1 78 0
 2780              		.cfi_startproc
 2781              	.LVL307:
 2782 0000 30B5     		push	{r4, r5, lr}
 2783              	.LCFI5:
 2784              		.cfi_def_cfa_offset 12
 2785              		.cfi_offset 4, -12
 2786              		.cfi_offset 5, -8
 2787              		.cfi_offset 14, -4
  79:.\md5.c       **** 		a += I (b, c, d) + x + (uint32_t)(ac);
 2788              		.loc 1 79 0
 2789 0002 039D     		ldr	r5, [sp, #12]
  83:.\md5.c       **** 	}
 2790              		.loc 1 83 0
 2791              		@ sp needed for prologue
  79:.\md5.c       **** 		a += I (b, c, d) + x + (uint32_t)(ac);
 2792              		.loc 1 79 0
 2793 0004 2C18     		add	r4, r5, r0
 2794 0006 D843     		mvn	r0, r3
 2795              	.LVL308:
 2796 0008 0843     		orr	r0, r1
 2797 000a 4240     		eor	r2, r0
 2798              	.LVL309:
 2799 000c A318     		add	r3, r4, r2
 2800              	.LVL310:
 2801 000e 059A     		ldr	r2, [sp, #20]
  80:.\md5.c       **** 		a = ROTATE_LEFT (a, s);
 2802              		.loc 1 80 0
 2803 0010 049C     		ldr	r4, [sp, #16]
 2804 0012 2020     		mov	r0, #32
  79:.\md5.c       **** 		a += I (b, c, d) + x + (uint32_t)(ac);
 2805              		.loc 1 79 0
 2806 0014 9D18     		add	r5, r3, r2
ARM GAS  C:\Users\atsu\AppData\Local\Temp\ccFWVBKl.s 			page 61


 2807              	.LVL311:
  80:.\md5.c       **** 		a = ROTATE_LEFT (a, s);
 2808              		.loc 1 80 0
 2809 0016 031B     		sub	r3, r0, r4
 2810 0018 DD41     		ror	r5, r5, r3
 2811              	.LVL312:
  81:.\md5.c       **** 		a += b;
 2812              		.loc 1 81 0
 2813 001a 6818     		add	r0, r5, r1
 2814              	.LVL313:
  83:.\md5.c       **** 	}
 2815              		.loc 1 83 0
 2816 001c 30BD     		pop	{r4, r5, pc}
 2817              		.cfi_endproc
 2818              	.LFE3:
 2819              		.size	II, .-II
 2820              		.section	.text.md5_init,"ax",%progbits
 2821              		.align	1
 2822              		.global	md5_init
 2823              		.code	16
 2824              		.thumb_func
 2825              		.type	md5_init, %function
 2826              	md5_init:
 2827              	.LFB4:
  89:.\md5.c       **** {
 2828              		.loc 1 89 0
 2829              		.cfi_startproc
 2830              	.LVL314:
  93:.\md5.c       **** 	context->state[0] = 0x67452301;
 2831              		.loc 1 93 0
 2832 0000 0549     		ldr	r1, .L19
  90:.\md5.c       **** 	context->count[0] = context->count[1] = 0;
 2833              		.loc 1 90 0
 2834 0002 0023     		mov	r3, #0
 2835 0004 4361     		str	r3, [r0, #20]
 2836 0006 0361     		str	r3, [r0, #16]
  93:.\md5.c       **** 	context->state[0] = 0x67452301;
 2837              		.loc 1 93 0
 2838 0008 0160     		str	r1, [r0]
  94:.\md5.c       **** 	context->state[1] = 0xefcdab89;
 2839              		.loc 1 94 0
 2840 000a 044A     		ldr	r2, .L19+4
  95:.\md5.c       **** 	context->state[2] = 0x98badcfe;
 2841              		.loc 1 95 0
 2842 000c 044B     		ldr	r3, .L19+8
  96:.\md5.c       **** 	context->state[3] = 0x10325476;
 2843              		.loc 1 96 0
 2844 000e 0549     		ldr	r1, .L19+12
  94:.\md5.c       **** 	context->state[1] = 0xefcdab89;
 2845              		.loc 1 94 0
 2846 0010 4260     		str	r2, [r0, #4]
  95:.\md5.c       **** 	context->state[2] = 0x98badcfe;
 2847              		.loc 1 95 0
 2848 0012 8360     		str	r3, [r0, #8]
  96:.\md5.c       **** 	context->state[3] = 0x10325476;
 2849              		.loc 1 96 0
 2850 0014 C160     		str	r1, [r0, #12]
ARM GAS  C:\Users\atsu\AppData\Local\Temp\ccFWVBKl.s 			page 62


  97:.\md5.c       **** }
 2851              		.loc 1 97 0
 2852              		@ sp needed for prologue
 2853 0016 7047     		bx	lr
 2854              	.L20:
 2855              		.align	2
 2856              	.L19:
 2857 0018 01234567 		.word	1732584193
 2858 001c 89ABCDEF 		.word	-271733879
 2859 0020 FEDCBA98 		.word	-1732584194
 2860 0024 76543210 		.word	271733878
 2861              		.cfi_endproc
 2862              	.LFE4:
 2863              		.size	md5_init, .-md5_init
 2864              		.section	.text.md5_update,"ax",%progbits
 2865              		.align	1
 2866              		.global	md5_update
 2867              		.code	16
 2868              		.thumb_func
 2869              		.type	md5_update, %function
 2870              	md5_update:
 2871              	.LFB5:
 104:.\md5.c       **** {
 2872              		.loc 1 104 0
 2873              		.cfi_startproc
 2874              	.LVL315:
 108:.\md5.c       **** 	index = (uint32_t)((context->count[0] >> 3) & 0x3F);
 2875              		.loc 1 108 0
 2876 0000 0369     		ldr	r3, [r0, #16]
 104:.\md5.c       **** {
 2877              		.loc 1 104 0
 2878 0002 F7B5     		push	{r0, r1, r2, r4, r5, r6, r7, lr}
 2879              	.LCFI6:
 2880              		.cfi_def_cfa_offset 32
 2881              		.cfi_offset 0, -32
 2882              		.cfi_offset 1, -28
 2883              		.cfi_offset 2, -24
 2884              		.cfi_offset 4, -20
 2885              		.cfi_offset 5, -16
 2886              		.cfi_offset 6, -12
 2887              		.cfi_offset 7, -8
 2888              		.cfi_offset 14, -4
 104:.\md5.c       **** {
 2889              		.loc 1 104 0
 2890 0004 161C     		mov	r6, r2
 111:.\md5.c       **** 	if ((context->count[0] += ((uint32_t)inputLen << 3)) < ((uint32_t)inputLen << 3))
 2891              		.loc 1 111 0
 2892 0006 D200     		lsl	r2, r2, #3
 2893              	.LVL316:
 104:.\md5.c       **** {
 2894              		.loc 1 104 0
 2895 0008 041C     		mov	r4, r0
 2896 000a 0F1C     		mov	r7, r1
 108:.\md5.c       **** 	index = (uint32_t)((context->count[0] >> 3) & 0x3F);
 2897              		.loc 1 108 0
 2898 000c D805     		lsl	r0, r3, #23
 2899              	.LVL317:
ARM GAS  C:\Users\atsu\AppData\Local\Temp\ccFWVBKl.s 			page 63


 111:.\md5.c       **** 	if ((context->count[0] += ((uint32_t)inputLen << 3)) < ((uint32_t)inputLen << 3))
 2900              		.loc 1 111 0
 2901 000e D118     		add	r1, r2, r3
 2902              	.LVL318:
 108:.\md5.c       **** 	index = (uint32_t)((context->count[0] >> 3) & 0x3F);
 2903              		.loc 1 108 0
 2904 0010 800E     		lsr	r0, r0, #26
 2905              	.LVL319:
 111:.\md5.c       **** 	if ((context->count[0] += ((uint32_t)inputLen << 3)) < ((uint32_t)inputLen << 3))
 2906              		.loc 1 111 0
 2907 0012 2161     		str	r1, [r4, #16]
 2908 0014 9142     		cmp	r1, r2
 2909 0016 02D2     		bcs	.L22
 112:.\md5.c       **** 		context->count[1]++;
 2910              		.loc 1 112 0
 2911 0018 6569     		ldr	r5, [r4, #20]
 2912 001a 0135     		add	r5, r5, #1
 2913 001c 6561     		str	r5, [r4, #20]
 2914              	.L22:
 113:.\md5.c       **** 	context->count[1] += ((uint32_t)inputLen >> 29);
 2915              		.loc 1 113 0
 2916 001e 6269     		ldr	r2, [r4, #20]
 2917 0020 730F     		lsr	r3, r6, #29
 115:.\md5.c       **** 	partLen = 64 - index;
 2918              		.loc 1 115 0
 2919 0022 4025     		mov	r5, #64
 113:.\md5.c       **** 	context->count[1] += ((uint32_t)inputLen >> 29);
 2920              		.loc 1 113 0
 2921 0024 D118     		add	r1, r2, r3
 115:.\md5.c       **** 	partLen = 64 - index;
 2922              		.loc 1 115 0
 2923 0026 2B1A     		sub	r3, r5, r0
 113:.\md5.c       **** 	context->count[1] += ((uint32_t)inputLen >> 29);
 2924              		.loc 1 113 0
 2925 0028 6161     		str	r1, [r4, #20]
 115:.\md5.c       **** 	partLen = 64 - index;
 2926              		.loc 1 115 0
 2927 002a 0193     		str	r3, [sp, #4]
 2928              	.LVL320:
 128:.\md5.c       **** 		i = 0;
 2929              		.loc 1 128 0
 2930 002c 0025     		mov	r5, #0
 118:.\md5.c       **** 	if (inputLen >= partLen)
 2931              		.loc 1 118 0
 2932 002e 9E42     		cmp	r6, r3
 2933 0030 16D3     		bcc	.L23
 120:.\md5.c       **** 		memcpy(&context->buffer[index], input, partLen);
 2934              		.loc 1 120 0
 2935 0032 1830     		add	r0, r0, #24
 2936              	.LVL321:
 2937 0034 391C     		mov	r1, r7
 2938 0036 1A1C     		mov	r2, r3
 2939 0038 2018     		add	r0, r4, r0
 2940              	.LVL322:
 2941 003a FFF7FEFF 		bl	memcpy
 2942              	.LVL323:
 121:.\md5.c       **** 		md5_transform(context->state, context->buffer);
ARM GAS  C:\Users\atsu\AppData\Local\Temp\ccFWVBKl.s 			page 64


 2943              		.loc 1 121 0
 2944 003e 211C     		mov	r1, r4
 2945 0040 1831     		add	r1, r1, #24
 2946 0042 201C     		mov	r0, r4
 2947 0044 FFF7FEFF 		bl	md5_transform
 2948              	.LVL324:
 123:.\md5.c       **** 		for (i = partLen; i + 63 < inputLen; i += 64)
 2949              		.loc 1 123 0
 2950 0048 019D     		ldr	r5, [sp, #4]
 2951              	.LVL325:
 2952              	.L24:
 123:.\md5.c       **** 		for (i = partLen; i + 63 < inputLen; i += 64)
 2953              		.loc 1 123 0 is_stmt 0 discriminator 1
 2954 004a 281C     		mov	r0, r5
 2955 004c 3F30     		add	r0, r0, #63
 2956 004e B042     		cmp	r0, r6
 2957 0050 05D2     		bcs	.L27
 2958              	.L25:
 103:.\md5.c       **** void md5_update(md5_ctx * context, uint8_t *input, uint32_t inputLen)
 2959              		.loc 1 103 0 is_stmt 1 discriminator 2
 2960 0052 7919     		add	r1, r7, r5
 124:.\md5.c       **** 			md5_transform(context->state, &input[i]);
 2961              		.loc 1 124 0 discriminator 2
 2962 0054 201C     		mov	r0, r4
 2963 0056 FFF7FEFF 		bl	md5_transform
 2964              	.LVL326:
 123:.\md5.c       **** 		for (i = partLen; i + 63 < inputLen; i += 64)
 2965              		.loc 1 123 0 discriminator 2
 2966 005a 4035     		add	r5, r5, #64
 2967              	.LVL327:
 2968 005c F5E7     		b	.L24
 2969              	.L27:
 125:.\md5.c       **** 		index = 0;
 2970              		.loc 1 125 0
 2971 005e 0020     		mov	r0, #0
 2972              	.LVL328:
 2973              	.L23:
 131:.\md5.c       **** 	memcpy(&context->buffer[index], &input[i], inputLen - i);
 2974              		.loc 1 131 0
 2975 0060 1830     		add	r0, r0, #24
 2976              	.LVL329:
 2977 0062 721B     		sub	r2, r6, r5
 2978 0064 7919     		add	r1, r7, r5
 2979 0066 2018     		add	r0, r4, r0
 2980              	.LVL330:
 2981 0068 FFF7FEFF 		bl	memcpy
 2982              	.LVL331:
 132:.\md5.c       **** }
 2983              		.loc 1 132 0
 2984              		@ sp needed for prologue
 2985              	.LVL332:
 2986              	.LVL333:
 2987              	.LVL334:
 2988              	.LVL335:
 2989 006c F7BD     		pop	{r0, r1, r2, r4, r5, r6, r7, pc}
 2990              		.cfi_endproc
 2991              	.LFE5:
ARM GAS  C:\Users\atsu\AppData\Local\Temp\ccFWVBKl.s 			page 65


 2992              		.size	md5_update, .-md5_update
 2993              		.section	.text.md5_final,"ax",%progbits
 2994              		.align	1
 2995              		.global	md5_final
 2996              		.code	16
 2997              		.thumb_func
 2998              		.type	md5_final, %function
 2999              	md5_final:
 3000              	.LFB6:
 139:.\md5.c       **** {
 3001              		.loc 1 139 0
 3002              		.cfi_startproc
 3003              	.LVL336:
 3004 0000 37B5     		push	{r0, r1, r2, r4, r5, lr}
 3005              	.LCFI7:
 3006              		.cfi_def_cfa_offset 24
 3007              		.cfi_offset 0, -24
 3008              		.cfi_offset 1, -20
 3009              		.cfi_offset 2, -16
 3010              		.cfi_offset 4, -12
 3011              		.cfi_offset 5, -8
 3012              		.cfi_offset 14, -4
 139:.\md5.c       **** {
 3013              		.loc 1 139 0
 3014 0002 0C1C     		mov	r4, r1
 144:.\md5.c       **** 	md5_encode(bits, context->count, 8);
 3015              		.loc 1 144 0
 3016 0004 0822     		mov	r2, #8
 3017 0006 1031     		add	r1, r1, #16
 3018              	.LVL337:
 139:.\md5.c       **** {
 3019              		.loc 1 139 0
 3020 0008 051C     		mov	r5, r0
 144:.\md5.c       **** 	md5_encode(bits, context->count, 8);
 3021              		.loc 1 144 0
 3022 000a 6846     		mov	r0, sp
 3023              	.LVL338:
 3024 000c FFF7FEFF 		bl	md5_encode
 3025              	.LVL339:
 147:.\md5.c       **** 	index  = (uint32_t)((context->count[0] >> 3) & 0x3f);
 3026              		.loc 1 147 0
 3027 0010 2269     		ldr	r2, [r4, #16]
 148:.\md5.c       **** 	padLen = (index < 56) ? (56 - index) : (120 - index);
 3028              		.loc 1 148 0
 3029 0012 3821     		mov	r1, #56
 147:.\md5.c       **** 	index  = (uint32_t)((context->count[0] >> 3) & 0x3f);
 3030              		.loc 1 147 0
 3031 0014 D305     		lsl	r3, r2, #23
 3032 0016 980E     		lsr	r0, r3, #26
 3033              	.LVL340:
 148:.\md5.c       **** 	padLen = (index < 56) ? (56 - index) : (120 - index);
 3034              		.loc 1 148 0
 3035 0018 3728     		cmp	r0, #55
 3036 001a 00D9     		bls	.L31
 148:.\md5.c       **** 	padLen = (index < 56) ? (56 - index) : (120 - index);
 3037              		.loc 1 148 0 is_stmt 0 discriminator 2
 3038 001c 7821     		mov	r1, #120
ARM GAS  C:\Users\atsu\AppData\Local\Temp\ccFWVBKl.s 			page 66


 3039              	.L31:
 3040 001e 0A1A     		sub	r2, r1, r0
 3041              	.LVL341:
 149:.\md5.c       **** 	md5_update(context, padding, padLen);
 3042              		.loc 1 149 0 is_stmt 1 discriminator 2
 3043 0020 201C     		mov	r0, r4
 3044              	.LVL342:
 3045 0022 0949     		ldr	r1, .L32
 3046 0024 FFF7FEFF 		bl	md5_update
 3047              	.LVL343:
 152:.\md5.c       **** 	md5_update(context, bits, 8);
 3048              		.loc 1 152 0 discriminator 2
 3049 0028 201C     		mov	r0, r4
 3050 002a 6946     		mov	r1, sp
 3051 002c 0822     		mov	r2, #8
 3052 002e FFF7FEFF 		bl	md5_update
 3053              	.LVL344:
 154:.\md5.c       **** 	md5_encode(digest, context->state, 16);
 3054              		.loc 1 154 0 discriminator 2
 3055 0032 281C     		mov	r0, r5
 3056 0034 211C     		mov	r1, r4
 3057 0036 1022     		mov	r2, #16
 3058 0038 FFF7FEFF 		bl	md5_encode
 3059              	.LVL345:
 157:.\md5.c       **** 	memset((void*)context,0,sizeof(*context));
 3060              		.loc 1 157 0 discriminator 2
 3061 003c 201C     		mov	r0, r4
 3062 003e 0021     		mov	r1, #0
 3063 0040 5822     		mov	r2, #88
 3064 0042 FFF7FEFF 		bl	memset
 3065              	.LVL346:
 158:.\md5.c       **** }
 3066              		.loc 1 158 0 discriminator 2
 3067              		@ sp needed for prologue
 3068              	.LVL347:
 3069              	.LVL348:
 3070 0046 37BD     		pop	{r0, r1, r2, r4, r5, pc}
 3071              	.L33:
 3072              		.align	2
 3073              	.L32:
 3074 0048 00000000 		.word	.LANCHOR0
 3075              		.cfi_endproc
 3076              	.LFE6:
 3077              		.size	md5_final, .-md5_final
 3078              		.data
 3079              		.set	.LANCHOR0,. + 0
 3080              		.type	padding, %object
 3081              		.size	padding, 64
 3082              	padding:
 3083 0000 80       		.byte	-128
 3084 0001 00       		.byte	0
 3085 0002 00       		.byte	0
 3086 0003 00       		.byte	0
 3087 0004 00       		.byte	0
 3088 0005 00       		.byte	0
 3089 0006 00       		.byte	0
 3090 0007 00       		.byte	0
ARM GAS  C:\Users\atsu\AppData\Local\Temp\ccFWVBKl.s 			page 67


 3091 0008 00       		.byte	0
 3092 0009 00       		.byte	0
 3093 000a 00       		.byte	0
 3094 000b 00       		.byte	0
 3095 000c 00       		.byte	0
 3096 000d 00       		.byte	0
 3097 000e 00       		.byte	0
 3098 000f 00       		.byte	0
 3099 0010 00       		.byte	0
 3100 0011 00       		.byte	0
 3101 0012 00       		.byte	0
 3102 0013 00       		.byte	0
 3103 0014 00       		.byte	0
 3104 0015 00       		.byte	0
 3105 0016 00       		.byte	0
 3106 0017 00       		.byte	0
 3107 0018 00       		.byte	0
 3108 0019 00       		.byte	0
 3109 001a 00       		.byte	0
 3110 001b 00       		.byte	0
 3111 001c 00       		.byte	0
 3112 001d 00       		.byte	0
 3113 001e 00       		.byte	0
 3114 001f 00       		.byte	0
 3115 0020 00       		.byte	0
 3116 0021 00       		.byte	0
 3117 0022 00       		.byte	0
 3118 0023 00       		.byte	0
 3119 0024 00       		.byte	0
 3120 0025 00       		.byte	0
 3121 0026 00       		.byte	0
 3122 0027 00       		.byte	0
 3123 0028 00       		.byte	0
 3124 0029 00       		.byte	0
 3125 002a 00       		.byte	0
 3126 002b 00       		.byte	0
 3127 002c 00       		.byte	0
 3128 002d 00       		.byte	0
 3129 002e 00       		.byte	0
 3130 002f 00       		.byte	0
 3131 0030 00       		.byte	0
 3132 0031 00       		.byte	0
 3133 0032 00       		.byte	0
 3134 0033 00       		.byte	0
 3135 0034 00       		.byte	0
 3136 0035 00       		.byte	0
 3137 0036 00       		.byte	0
 3138 0037 00       		.byte	0
 3139 0038 00       		.byte	0
 3140 0039 00       		.byte	0
 3141 003a 00       		.byte	0
 3142 003b 00       		.byte	0
 3143 003c 00       		.byte	0
 3144 003d 00       		.byte	0
 3145 003e 00       		.byte	0
 3146 003f 00       		.byte	0
 3147              		.text
ARM GAS  C:\Users\atsu\AppData\Local\Temp\ccFWVBKl.s 			page 68


 3148              	.Letext0:
 3149              		.file 2 "c:\\program files (x86)\\cypress\\psoc creator\\3.0\\psoc creator\\import\\gnu_cs\\arm\\4
 3150              		.file 3 ".\\md5.h"