ARM GAS  C:\Users\atsu\AppData\Local\Temp\ccFWVBKl.s 			page 1


   1              		.cpu cortex-m0
   2              		.fpu softvfp
   3              		.eabi_attribute 20, 1
   4              		.eabi_attribute 21, 1
   5              		.eabi_attribute 23, 3
   6              		.eabi_attribute 24, 1
   7              		.eabi_attribute 25, 1
   8              		.eabi_attribute 26, 1
   9              		.eabi_attribute 30, 4
  10              		.eabi_attribute 34, 0
  11              		.eabi_attribute 18, 4
  12              		.code	16
  13              		.file	"md5.c"
  14              		.text
  15              	.Ltext0:
  16              		.cfi_sections	.debug_frame
  17              		.section	.text.md5_encode,"ax",%progbits
  18              		.align	1
  19              		.code	16
  20              		.thumb_func
  21              		.type	md5_encode, %function
  22              	md5_encode:
  23              	.LFB8:
  24              		.file 1 ".\\md5.c"
   1:.\md5.c       **** /**
   2:.\md5.c       ****  @file		md5.c
   3:.\md5.c       ****  @brief 		support MD5 for PPPoE CHAP mode
   4:.\md5.c       **** 
   5:.\md5.c       ****  taken from RFC-1321/Appendix A.3
   6:.\md5.c       ****  MD5C.C - RSA Data Security, Inc., MD5 message-digest algorithm
   7:.\md5.c       ****  */
   8:.\md5.c       **** 
   9:.\md5.c       **** 
  10:.\md5.c       **** #include <string.h>
  11:.\md5.c       **** #include "md5.h"
  12:.\md5.c       **** 
  13:.\md5.c       **** // Constants for Transform routine.
  14:.\md5.c       **** #define S11    7
  15:.\md5.c       **** #define S12   12
  16:.\md5.c       **** #define S13   17
  17:.\md5.c       **** #define S14   22
  18:.\md5.c       **** #define S21    5
  19:.\md5.c       **** #define S22    9
  20:.\md5.c       **** #define S23   14
  21:.\md5.c       **** #define S24   20
  22:.\md5.c       **** #define S31    4
  23:.\md5.c       **** #define S32   11
  24:.\md5.c       **** #define S33   16
  25:.\md5.c       **** #define S34   23
  26:.\md5.c       **** #define S41    6
  27:.\md5.c       **** #define S42   10
  28:.\md5.c       **** #define S43   15
  29:.\md5.c       **** #define S44   21
  30:.\md5.c       **** 
  31:.\md5.c       **** static void md5_transform (uint32_t[4], uint8_t [64]);
  32:.\md5.c       **** static void md5_encode    (uint8_t *, uint32_t *, uint32_t);
  33:.\md5.c       **** static void md5_decode    (uint32_t *, uint8_t *, uint32_t);
ARM GAS  C:\Users\atsu\AppData\Local\Temp\ccFWVBKl.s 			page 2


  34:.\md5.c       **** 
  35:.\md5.c       **** static uint8_t padding[64] = {
  36:.\md5.c       **** 	0x80, 0, 0, 0, 0, 0, 0, 0, 0, 0, 0, 0, 0, 0, 0, 0, 0, 0, 0, 0,
  37:.\md5.c       **** 	0, 0, 0, 0, 0, 0, 0, 0, 0, 0, 0, 0, 0, 0, 0, 0, 0, 0, 0, 0, 0,
  38:.\md5.c       **** 	0, 0, 0, 0, 0, 0, 0, 0, 0, 0, 0, 0, 0, 0, 0, 0, 0, 0, 0, 0, 0,
  39:.\md5.c       **** 	0, 0
  40:.\md5.c       **** };
  41:.\md5.c       **** 
  42:.\md5.c       **** // F, G, H and I are basic md5 functions.
  43:.\md5.c       **** #define F(x, y, z) (((x) & (y)) | ((~x) & (z)))
  44:.\md5.c       **** #define G(x, y, z) (((x) & (z)) | ((y) & (~z)))
  45:.\md5.c       **** #define H(x, y, z) ((x) ^ (y) ^ (z))
  46:.\md5.c       **** #define I(x, y, z) ((y) ^ ((x) | (~z)))
  47:.\md5.c       **** 
  48:.\md5.c       **** /**
  49:.\md5.c       ****  @brief ROTATE_LEFT rotates x left n bits.
  50:.\md5.c       ****  */
  51:.\md5.c       **** #define ROTATE_LEFT(x, n) (((x) << (n)) | ((x) >> (32-(n))))
  52:.\md5.c       **** 	
  53:.\md5.c       **** 
  54:.\md5.c       **** 	uint32_t FF(uint32_t a, uint32_t b, uint32_t c, uint32_t d, uint32_t x, uint32_t s, uint32_t ac)
  55:.\md5.c       **** 	{
  56:.\md5.c       **** 		a += F (b, c, d) + x + (uint32_t)(ac);
  57:.\md5.c       **** 		a = ROTATE_LEFT (a, s);
  58:.\md5.c       **** 		a += b;
  59:.\md5.c       **** 		return a;
  60:.\md5.c       **** 	}
  61:.\md5.c       **** 	uint32_t GG(uint32_t a, uint32_t b, uint32_t c, uint32_t d, uint32_t x, uint32_t s, uint32_t ac)
  62:.\md5.c       **** 	{
  63:.\md5.c       **** 		a += G (b, c, d) + x + (uint32_t)(ac);
  64:.\md5.c       **** 		a = ROTATE_LEFT (a, s);
  65:.\md5.c       **** 		a += b;
  66:.\md5.c       **** 		return a;
  67:.\md5.c       **** 	}
  68:.\md5.c       **** 	
  69:.\md5.c       **** 	uint32_t HH(uint32_t a, uint32_t b, uint32_t c, uint32_t d, uint32_t x, uint32_t s, uint32_t ac)
  70:.\md5.c       **** 	{
  71:.\md5.c       **** 		a += H (b, c, d) + x + (uint32_t)(ac);
  72:.\md5.c       **** 		a = ROTATE_LEFT (a, s);
  73:.\md5.c       **** 		a += b;
  74:.\md5.c       **** 		return a;
  75:.\md5.c       **** 	}
  76:.\md5.c       **** 
  77:.\md5.c       **** 	uint32_t II(uint32_t a, uint32_t b, uint32_t c, uint32_t d, uint32_t x, uint32_t s, uint32_t ac)
  78:.\md5.c       **** 	{
  79:.\md5.c       **** 		a += I (b, c, d) + x + (uint32_t)(ac);
  80:.\md5.c       **** 		a = ROTATE_LEFT (a, s);
  81:.\md5.c       **** 		a += b;
  82:.\md5.c       **** 		return a;
  83:.\md5.c       **** 	}
  84:.\md5.c       **** 
  85:.\md5.c       **** /**
  86:.\md5.c       ****  @brief	md5 initialization. Begins an md5 operation, writing a new context.
  87:.\md5.c       ****  */
  88:.\md5.c       **** void md5_init(md5_ctx *context)
  89:.\md5.c       **** {
  90:.\md5.c       **** 	context->count[0] = context->count[1] = 0;
ARM GAS  C:\Users\atsu\AppData\Local\Temp\ccFWVBKl.s 			page 3


  91:.\md5.c       **** 	
  92:.\md5.c       **** 	// Load magic initialization constants.
  93:.\md5.c       **** 	context->state[0] = 0x67452301;
  94:.\md5.c       **** 	context->state[1] = 0xefcdab89;
  95:.\md5.c       **** 	context->state[2] = 0x98badcfe;
  96:.\md5.c       **** 	context->state[3] = 0x10325476;
  97:.\md5.c       **** }
  98:.\md5.c       **** 
  99:.\md5.c       **** /**
 100:.\md5.c       ****  @brief	md5 block update operation. Continues an md5 message-digest operation,
 101:.\md5.c       **** 		processing another message block, and updating the context.
 102:.\md5.c       **** */		
 103:.\md5.c       **** void md5_update(md5_ctx * context, uint8_t *input, uint32_t inputLen)
 104:.\md5.c       **** {
 105:.\md5.c       **** 	uint32_t i, index, partLen;
 106:.\md5.c       **** 	
 107:.\md5.c       **** 	// Compute number of bytes mod 64
 108:.\md5.c       **** 	index = (uint32_t)((context->count[0] >> 3) & 0x3F);
 109:.\md5.c       **** 	
 110:.\md5.c       **** 	// Update number of bits
 111:.\md5.c       **** 	if ((context->count[0] += ((uint32_t)inputLen << 3)) < ((uint32_t)inputLen << 3))
 112:.\md5.c       **** 		context->count[1]++;
 113:.\md5.c       **** 	context->count[1] += ((uint32_t)inputLen >> 29);
 114:.\md5.c       **** 	
 115:.\md5.c       **** 	partLen = 64 - index;
 116:.\md5.c       **** 	
 117:.\md5.c       **** 	// md5_Transform as many times as possible.
 118:.\md5.c       **** 	if (inputLen >= partLen)
 119:.\md5.c       **** 	{
 120:.\md5.c       **** 		memcpy(&context->buffer[index], input, partLen);
 121:.\md5.c       **** 		md5_transform(context->state, context->buffer);
 122:.\md5.c       **** 	
 123:.\md5.c       **** 		for (i = partLen; i + 63 < inputLen; i += 64)
 124:.\md5.c       **** 			md5_transform(context->state, &input[i]);
 125:.\md5.c       **** 		index = 0;
 126:.\md5.c       **** 	}
 127:.\md5.c       **** 	else
 128:.\md5.c       **** 		i = 0;
 129:.\md5.c       **** 	
 130:.\md5.c       **** 	// Buffer remaining input
 131:.\md5.c       **** 	memcpy(&context->buffer[index], &input[i], inputLen - i);
 132:.\md5.c       **** }
 133:.\md5.c       **** 
 134:.\md5.c       **** /**
 135:.\md5.c       ****  @brief	md5 finalization. Ends an md5 message-digest operation, writing the
 136:.\md5.c       **** 		message digest and zeroizing the context.
 137:.\md5.c       **** */		
 138:.\md5.c       **** void md5_final(uint8_t digest[16], md5_ctx *context)
 139:.\md5.c       **** {
 140:.\md5.c       **** 	uint8_t  bits[8];
 141:.\md5.c       **** 	uint32_t index, padLen;
 142:.\md5.c       **** 	
 143:.\md5.c       **** 	// Save number of bits
 144:.\md5.c       **** 	md5_encode(bits, context->count, 8);
 145:.\md5.c       **** 	
 146:.\md5.c       **** 	// Pad out to 56 mod 64.
 147:.\md5.c       **** 	index  = (uint32_t)((context->count[0] >> 3) & 0x3f);
ARM GAS  C:\Users\atsu\AppData\Local\Temp\ccFWVBKl.s 			page 4


 148:.\md5.c       **** 	padLen = (index < 56) ? (56 - index) : (120 - index);
 149:.\md5.c       **** 	md5_update(context, padding, padLen);
 150:.\md5.c       **** 	
 151:.\md5.c       **** 	// Append length (before padding)
 152:.\md5.c       **** 	md5_update(context, bits, 8);
 153:.\md5.c       **** 	// Store state in digest
 154:.\md5.c       **** 	md5_encode(digest, context->state, 16);
 155:.\md5.c       **** 	
 156:.\md5.c       **** 	// Zeroize sensitive information.
 157:.\md5.c       **** 	memset((void*)context,0,sizeof(*context));
 158:.\md5.c       **** }
 159:.\md5.c       **** 
 160:.\md5.c       **** /**
 161:.\md5.c       ****  @brief	md5 basic transformation. Transforms state based on block.
 162:.\md5.c       ****  */
 163:.\md5.c       **** static void md5_transform(uint32_t state[4], uint8_t block[64])
 164:.\md5.c       **** {
 165:.\md5.c       **** 	uint32_t a = state[0];
 166:.\md5.c       **** 	uint32_t b = state[1];
 167:.\md5.c       **** 	uint32_t c = state[2];
 168:.\md5.c       **** 	uint32_t d = state[3];
 169:.\md5.c       **** 	uint32_t x[16];
 170:.\md5.c       **** 	
 171:.\md5.c       **** 	md5_decode(x, block, 64);
 172:.\md5.c       **** 
 173:.\md5.c       **** 	// Round 1
 174:.\md5.c       **** 	a = FF(a, b, c, d, x[0],  S11, 0xd76aa478);	// 1
 175:.\md5.c       **** 	d = FF(d, a, b, c, x[1],  S12, 0xe8c7b756); // 2
 176:.\md5.c       **** 	c = FF(c, d, a, b, x[2],  S13, 0x242070db); // 3
 177:.\md5.c       **** 	b = FF(b, c, d, a, x[3],  S14, 0xc1bdceee); // 4
 178:.\md5.c       **** 	a = FF(a, b, c, d, x[4],  S11, 0xf57c0faf); // 5
 179:.\md5.c       **** 	d = FF(d, a, b, c, x[5],  S12, 0x4787c62a); // 6
 180:.\md5.c       **** 	c = FF(c, d, a, b, x[6],  S13, 0xa8304613); // 7
 181:.\md5.c       **** 	b = FF(b, c, d, a, x[7],  S14, 0xfd469501); // 8
 182:.\md5.c       **** 	a = FF(a, b, c, d, x[8],  S11, 0x698098d8); // 9
 183:.\md5.c       **** 	d = FF(d, a, b, c, x[9],  S12, 0x8b44f7af); // 10
 184:.\md5.c       **** 	c = FF(c, d, a, b, x[10], S13, 0xffff5bb1); // 11
 185:.\md5.c       **** 	b = FF(b, c, d, a, x[11], S14, 0x895cd7be); // 12
 186:.\md5.c       **** 	a = FF(a, b, c, d, x[12], S11, 0x6b901122); // 13
 187:.\md5.c       **** 	d = FF(d, a, b, c, x[13], S12, 0xfd987193); // 14
 188:.\md5.c       **** 	c = FF(c, d, a, b, x[14], S13, 0xa679438e); // 15
 189:.\md5.c       **** 	b = FF(b, c, d, a, x[15], S14, 0x49b40821); // 16
 190:.\md5.c       **** 
 191:.\md5.c       **** 	// Round 2
 192:.\md5.c       **** 	a = GG(a, b, c, d, x[1],  S21, 0xf61e2562); // 17
 193:.\md5.c       **** 	d = GG(d, a, b, c, x[6],  S22, 0xc040b340); // 18
 194:.\md5.c       **** 	c = GG(c, d, a, b, x[11], S23, 0x265e5a51); // 19
 195:.\md5.c       **** 	b = GG(b, c, d, a, x[0],  S24, 0xe9b6c7aa); // 20
 196:.\md5.c       **** 	a = GG(a, b, c, d, x[5],  S21, 0xd62f105d); // 21
 197:.\md5.c       **** 	d = GG(d, a, b, c, x[10], S22, 0x2441453);  // 22
 198:.\md5.c       **** 	c = GG(c, d, a, b, x[15], S23, 0xd8a1e681); // 23
 199:.\md5.c       **** 	b = GG(b, c, d, a, x[4],  S24, 0xe7d3fbc8); // 24
 200:.\md5.c       **** 	a = GG(a, b, c, d, x[9],  S21, 0x21e1cde6); // 25
 201:.\md5.c       **** 	d = GG(d, a, b, c, x[14], S22, 0xc33707d6); // 26
 202:.\md5.c       **** 	c = GG(c, d, a, b, x[3],  S23, 0xf4d50d87); // 27
 203:.\md5.c       **** 	b = GG(b, c, d, a, x[8],  S24, 0x455a14ed); // 28
 204:.\md5.c       **** 	a = GG(a, b, c, d, x[13], S21, 0xa9e3e905); // 29
ARM GAS  C:\Users\atsu\AppData\Local\Temp\ccFWVBKl.s 			page 5


 205:.\md5.c       **** 	d = GG(d, a, b, c, x[2],  S22, 0xfcefa3f8); // 30
 206:.\md5.c       **** 	c = GG(c, d, a, b, x[7],  S23, 0x676f02d9); // 31
 207:.\md5.c       **** 	b = GG(b, c, d, a, x[12], S24, 0x8d2a4c8a); // 32
 208:.\md5.c       **** 	
 209:.\md5.c       **** 	// Round 3
 210:.\md5.c       **** 	a = HH(a, b, c, d, x[5],  S31, 0xfffa3942); // 33
 211:.\md5.c       **** 	d = HH(d, a, b, c, x[8],  S32, 0x8771f681); // 34
 212:.\md5.c       **** 	c = HH(c, d, a, b, x[11], S33, 0x6d9d6122); // 35
 213:.\md5.c       **** 	b = HH(b, c, d, a, x[14], S34, 0xfde5380c); // 36
 214:.\md5.c       **** 	a = HH(a, b, c, d, x[1],  S31, 0xa4beea44); // 37
 215:.\md5.c       **** 	d = HH(d, a, b, c, x[4],  S32, 0x4bdecfa9); // 38
 216:.\md5.c       **** 	c = HH(c, d, a, b, x[7],  S33, 0xf6bb4b60); // 39
 217:.\md5.c       **** 	b = HH(b, c, d, a, x[10], S34, 0xbebfbc70); // 40
 218:.\md5.c       **** 	a = HH(a, b, c, d, x[13], S31, 0x289b7ec6); // 41
 219:.\md5.c       **** 	d = HH(d, a, b, c, x[0],  S32, 0xeaa127fa); // 42
 220:.\md5.c       **** 	c = HH(c, d, a, b, x[3],  S33, 0xd4ef3085); // 43
 221:.\md5.c       **** 	b = HH(b, c, d, a, x[6],  S34, 0x4881d05);  // 44
 222:.\md5.c       **** 	a = HH(a, b, c, d, x[9],  S31, 0xd9d4d039); // 45
 223:.\md5.c       **** 	d = HH(d, a, b, c, x[12], S32, 0xe6db99e5); // 46
 224:.\md5.c       **** 	c = HH(c, d, a, b, x[15], S33, 0x1fa27cf8); // 47
 225:.\md5.c       **** 	b = HH(b, c, d, a, x[2],  S34, 0xc4ac5665); // 48
 226:.\md5.c       **** 
 227:.\md5.c       **** 	// Round 4
 228:.\md5.c       **** 	a = II(a, b, c, d, x[0],  S41, 0xf4292244); // 49
 229:.\md5.c       **** 	d = II(d, a, b, c, x[7],  S42, 0x432aff97); // 50
 230:.\md5.c       **** 	c = II(c, d, a, b, x[14], S43, 0xab9423a7); // 51
 231:.\md5.c       **** 	b = II(b, c, d, a, x[5],  S44, 0xfc93a039); // 52
 232:.\md5.c       **** 	a = II(a, b, c, d, x[12], S41, 0x655b59c3); // 53
 233:.\md5.c       **** 	d = II(d, a, b, c, x[3],  S42, 0x8f0ccc92); // 54
 234:.\md5.c       **** 	c = II(c, d, a, b, x[10], S43, 0xffeff47d); // 55
 235:.\md5.c       **** 	b = II(b, c, d, a, x[1],  S44, 0x85845dd1); // 56
 236:.\md5.c       **** 	a = II(a, b, c, d, x[8],  S41, 0x6fa87e4f); // 57
 237:.\md5.c       **** 	d = II(d, a, b, c, x[15], S42, 0xfe2ce6e0); // 58
 238:.\md5.c       **** 	c = II(c, d, a, b, x[6],  S43, 0xa3014314); // 59
 239:.\md5.c       **** 	b = II(b, c, d, a, x[13], S44, 0x4e0811a1); // 60
 240:.\md5.c       **** 	a = II(a, b, c, d, x[4],  S41, 0xf7537e82); // 61
 241:.\md5.c       **** 	d = II(d, a, b, c, x[11], S42, 0xbd3af235); // 62
 242:.\md5.c       **** 	c = II(c, d, a, b, x[2],  S43, 0x2ad7d2bb); // 63
 243:.\md5.c       **** 	b = II(b, c, d, a, x[9],  S44, 0xeb86d391); // 64
 244:.\md5.c       **** 
 245:.\md5.c       **** 	state[0] += a;
 246:.\md5.c       **** 	state[1] += b;
 247:.\md5.c       **** 	state[2] += c;
 248:.\md5.c       **** 	state[3] += d;
 249:.\md5.c       **** 	
 250:.\md5.c       **** 	// Zeroize sensitive information.
 251:.\md5.c       **** 	memset(&x,0,sizeof(x));
 252:.\md5.c       **** }
 253:.\md5.c       **** 
 254:.\md5.c       **** /**
 255:.\md5.c       ****  @brief	Encodes input (uint32_t) into output (uint8_t). Assumes len is a multiple of 4.
 256:.\md5.c       ****  */
 257:.\md5.c       **** static void md5_encode(uint8_t *output, uint32_t *input, uint32_t len)
 258:.\md5.c       **** {
  25              		.loc 1 258 0
  26              		.cfi_startproc
  27              	.LVL0:
ARM GAS  C:\Users\atsu\AppData\Local\Temp\ccFWVBKl.s 			page 6


  28 0000 70B5     		push	{r4, r5, r6, lr}
  29              	.LCFI0:
  30              		.cfi_def_cfa_offset 16
  31              		.cfi_offset 4, -16
  32              		.cfi_offset 5, -12
  33              		.cfi_offset 6, -8
  34              		.cfi_offset 14, -4
 259:.\md5.c       **** 	uint32_t i, j;
 260:.\md5.c       **** 	
 261:.\md5.c       **** 	for (i = 0, j = 0; j < len; i++, j += 4)
  35              		.loc 1 261 0
  36 0002 031C     		mov	r3, r0
  37              	.LVL1:
  38              	.L2:
  39              		.loc 1 261 0 is_stmt 0 discriminator 1
  40 0004 1C1A     		sub	r4, r3, r0
  41 0006 9442     		cmp	r4, r2
  42 0008 0CD2     		bcs	.L5
  43              	.L3:
 262:.\md5.c       **** 	{
 263:.\md5.c       **** 		output[j]     = (uint8_t)(input[i] & 0xff);
  44              		.loc 1 263 0 is_stmt 1 discriminator 2
  45 000a 0D68     		ldr	r5, [r1]
 257:.\md5.c       **** static void md5_encode(uint8_t *output, uint32_t *input, uint32_t len)
  46              		.loc 1 257 0 discriminator 2
  47 000c 0C1C     		mov	r4, r1
  48              		.loc 1 263 0 discriminator 2
  49 000e 1D70     		strb	r5, [r3]
 264:.\md5.c       **** 		output[j + 1] = (uint8_t)((input[i] >> 8) & 0xff);
  50              		.loc 1 264 0 discriminator 2
  51 0010 0E68     		ldr	r6, [r1]
  52 0012 350A     		lsr	r5, r6, #8
  53 0014 5D70     		strb	r5, [r3, #1]
 265:.\md5.c       **** 		output[j + 2] = (uint8_t)((input[i] >> 16) & 0xff);
  54              		.loc 1 265 0 discriminator 2
  55 0016 40C9     		ldmia	r1!, {r6}
  56 0018 350C     		lsr	r5, r6, #16
  57 001a 9D70     		strb	r5, [r3, #2]
 266:.\md5.c       **** 		output[j + 3] = (uint8_t)((input[i] >> 24) & 0xff);
  58              		.loc 1 266 0 discriminator 2
  59 001c E478     		ldrb	r4, [r4, #3]
  60 001e DC70     		strb	r4, [r3, #3]
  61 0020 0433     		add	r3, r3, #4
  62 0022 EFE7     		b	.L2
  63              	.L5:
 267:.\md5.c       **** 	}
 268:.\md5.c       **** }
  64              		.loc 1 268 0
  65              		@ sp needed for prologue
  66 0024 70BD     		pop	{r4, r5, r6, pc}
  67              		.cfi_endproc
  68              	.LFE8:
  69              		.size	md5_encode, .-md5_encode
  70              		.section	.text.md5_transform,"ax",%progbits
  71              		.align	1
  72              		.code	16
  73              		.thumb_func
ARM GAS  C:\Users\atsu\AppData\Local\Temp\ccFWVBKl.s 			page 7


  74              		.type	md5_transform, %function
  75              	md5_transform:
  76              	.LFB7:
 164:.\md5.c       **** {
  77              		.loc 1 164 0
  78              		.cfi_startproc
  79              	.LVL2:
  80 0000 F0B5     		push	{r4, r5, r6, r7, lr}
  81              	.LCFI1:
  82              		.cfi_def_cfa_offset 20
  83              		.cfi_offset 4, -20
  84              		.cfi_offset 5, -16
  85              		.cfi_offset 6, -12
  86              		.cfi_offset 7, -8
  87              		.cfi_offset 14, -4
  88 0002 99B0     		sub	sp, sp, #100
  89              	.LCFI2:
  90              		.cfi_def_cfa_offset 120
 164:.\md5.c       **** {
  91              		.loc 1 164 0
  92 0004 0290     		str	r0, [sp, #8]
 166:.\md5.c       **** 	uint32_t b = state[1];
  93              		.loc 1 166 0
  94 0006 029A     		ldr	r2, [sp, #8]
 167:.\md5.c       **** 	uint32_t c = state[2];
  95              		.loc 1 167 0
  96 0008 029C     		ldr	r4, [sp, #8]
 168:.\md5.c       **** 	uint32_t d = state[3];
  97              		.loc 1 168 0
  98 000a 029E     		ldr	r6, [sp, #8]
 165:.\md5.c       **** 	uint32_t a = state[0];
  99              		.loc 1 165 0
 100 000c 0068     		ldr	r0, [r0]
 101              	.LVL3:
 166:.\md5.c       **** 	uint32_t b = state[1];
 102              		.loc 1 166 0
 103 000e 5368     		ldr	r3, [r2, #4]
 167:.\md5.c       **** 	uint32_t c = state[2];
 104              		.loc 1 167 0
 105 0010 A568     		ldr	r5, [r4, #8]
 168:.\md5.c       **** 	uint32_t d = state[3];
 106              		.loc 1 168 0
 107 0012 F768     		ldr	r7, [r6, #12]
 165:.\md5.c       **** 	uint32_t a = state[0];
 108              		.loc 1 165 0
 109 0014 0790     		str	r0, [sp, #28]
 110              	.LVL4:
 269:.\md5.c       **** 
 270:.\md5.c       **** /**
 271:.\md5.c       ****  @brief Decodes input (uint8_t) into output (uint32_t). Assumes len is a multiple of 4.
 272:.\md5.c       ****  */
 273:.\md5.c       **** static void md5_decode(uint32_t *output, uint8_t *input, uint32_t len)
 274:.\md5.c       **** {
 275:.\md5.c       **** 	uint32_t i, j;
 276:.\md5.c       **** 	for (i = 0, j = 0; j < len; i++, j += 4)
 111              		.loc 1 276 0
 112 0016 0020     		mov	r0, #0
ARM GAS  C:\Users\atsu\AppData\Local\Temp\ccFWVBKl.s 			page 8


 113              	.LVL5:
 166:.\md5.c       **** 	uint32_t b = state[1];
 114              		.loc 1 166 0
 115 0018 0393     		str	r3, [sp, #12]
 116              	.LVL6:
 167:.\md5.c       **** 	uint32_t c = state[2];
 117              		.loc 1 167 0
 118 001a 0595     		str	r5, [sp, #20]
 119              	.LVL7:
 168:.\md5.c       **** 	uint32_t d = state[3];
 120              		.loc 1 168 0
 121 001c 0697     		str	r7, [sp, #24]
 122              	.LVL8:
 123              		.loc 1 276 0
 124 001e 0490     		str	r0, [sp, #16]
 125              	.LVL9:
 126              	.L7:
 127              	.LBB260:
 128              	.LBB261:
 277:.\md5.c       **** 		output[i] = ((uint32_t) input[j]) | (((uint32_t) input[j + 1]) << 8) |
 129              		.loc 1 277 0
 130 0020 4A78     		ldrb	r2, [r1, #1]
 278:.\md5.c       **** 				(((uint32_t)input[j + 2]) << 16) | (((uint32_t)input[j + 3]) << 24);
 131              		.loc 1 278 0
 132 0022 8B78     		ldrb	r3, [r1, #2]
 277:.\md5.c       **** 		output[i] = ((uint32_t) input[j]) | (((uint32_t) input[j + 1]) << 8) |
 133              		.loc 1 277 0
 134 0024 1402     		lsl	r4, r2, #8
 135 0026 0E78     		ldrb	r6, [r1]
 136              		.loc 1 278 0
 137 0028 CF78     		ldrb	r7, [r1, #3]
 138 002a 1D04     		lsl	r5, r3, #16
 277:.\md5.c       **** 		output[i] = ((uint32_t) input[j]) | (((uint32_t) input[j + 1]) << 8) |
 139              		.loc 1 277 0
 140 002c 2543     		orr	r5, r4
 141 002e 3543     		orr	r5, r6
 142 0030 049C     		ldr	r4, [sp, #16]
 143              		.loc 1 278 0
 144 0032 3806     		lsl	r0, r7, #24
 145 0034 0543     		orr	r5, r0
 277:.\md5.c       **** 		output[i] = ((uint32_t) input[j]) | (((uint32_t) input[j + 1]) << 8) |
 146              		.loc 1 277 0
 147 0036 08AA     		add	r2, sp, #32
 148 0038 A550     		str	r5, [r4, r2]
 276:.\md5.c       **** 	for (i = 0, j = 0; j < len; i++, j += 4)
 149              		.loc 1 276 0
 150 003a 0434     		add	r4, r4, #4
 151 003c 0494     		str	r4, [sp, #16]
 152              	.LVL10:
 153 003e 0431     		add	r1, r1, #4
 154 0040 402C     		cmp	r4, #64
 155 0042 EDD1     		bne	.L7
 156              	.LVL11:
 157              	.LBE261:
 158              	.LBE260:
 159              	.LBB262:
 160              	.LBB263:
ARM GAS  C:\Users\atsu\AppData\Local\Temp\ccFWVBKl.s 			page 9


  56:.\md5.c       **** 		a += F (b, c, d) + x + (uint32_t)(ac);
 161              		.loc 1 56 0
 162 0044 089B     		ldr	r3, [sp, #32]
 163 0046 FE49     		ldr	r1, .L9
 164 0048 039C     		ldr	r4, [sp, #12]
 165              	.LVL12:
 166 004a 5D18     		add	r5, r3, r1
 167 004c 0698     		ldr	r0, [sp, #24]
 168 004e 059B     		ldr	r3, [sp, #20]
 169 0050 079E     		ldr	r6, [sp, #28]
 170 0052 221C     		mov	r2, r4
 171              	.LVL13:
 172 0054 1A40     		and	r2, r3
 173 0056 A043     		bic	r0, r4
 174 0058 AF19     		add	r7, r5, r6
 175 005a 1043     		orr	r0, r2
  57:.\md5.c       **** 		a = ROTATE_LEFT (a, s);
 176              		.loc 1 57 0
 177 005c 1925     		mov	r5, #25
  56:.\md5.c       **** 		a += F (b, c, d) + x + (uint32_t)(ac);
 178              		.loc 1 56 0
 179 005e 3918     		add	r1, r7, r0
 180              	.LVL14:
  57:.\md5.c       **** 		a = ROTATE_LEFT (a, s);
 181              		.loc 1 57 0
 182 0060 E941     		ror	r1, r1, r5
 183              	.LVL15:
  58:.\md5.c       **** 		a += b;
 184              		.loc 1 58 0
 185 0062 0E19     		add	r6, r1, r4
 186              	.LVL16:
 187              	.LBE263:
 188              	.LBE262:
 189              	.LBB264:
 190              	.LBB265:
  56:.\md5.c       **** 		a += F (b, c, d) + x + (uint32_t)(ac);
 191              		.loc 1 56 0
 192 0064 099F     		ldr	r7, [sp, #36]
 193 0066 0599     		ldr	r1, [sp, #20]
 194 0068 F648     		ldr	r0, .L9+4
 195 006a 069B     		ldr	r3, [sp, #24]
 196 006c 3A18     		add	r2, r7, r0
 197 006e 3440     		and	r4, r6
 198 0070 B143     		bic	r1, r6
 199 0072 D718     		add	r7, r2, r3
 200 0074 2143     		orr	r1, r4
 201 0076 7818     		add	r0, r7, r1
 202              	.LVL17:
  57:.\md5.c       **** 		a = ROTATE_LEFT (a, s);
 203              		.loc 1 57 0
 204 0078 1427     		mov	r7, #20
 205              	.LBE265:
 206              	.LBE264:
 207              	.LBB268:
 208              	.LBB269:
  56:.\md5.c       **** 		a += F (b, c, d) + x + (uint32_t)(ac);
 209              		.loc 1 56 0
ARM GAS  C:\Users\atsu\AppData\Local\Temp\ccFWVBKl.s 			page 10


 210 007a 0A9A     		ldr	r2, [sp, #40]
 211              	.LBE269:
 212              	.LBE268:
 213              	.LBB272:
 214              	.LBB266:
  57:.\md5.c       **** 		a = ROTATE_LEFT (a, s);
 215              		.loc 1 57 0
 216 007c F841     		ror	r0, r0, r7
 217              	.LVL18:
 218              	.LBE266:
 219              	.LBE272:
 220              	.LBB273:
 221              	.LBB270:
  56:.\md5.c       **** 		a += F (b, c, d) + x + (uint32_t)(ac);
 222              		.loc 1 56 0
 223 007e F24B     		ldr	r3, .L9+8
 224              	.LBE270:
 225              	.LBE273:
 226              	.LBB274:
 227              	.LBB267:
  58:.\md5.c       **** 		a += b;
 228              		.loc 1 58 0
 229 0080 8119     		add	r1, r0, r6
 230              	.LVL19:
 231              	.LBE267:
 232              	.LBE274:
 233              	.LBB275:
 234              	.LBB271:
  56:.\md5.c       **** 		a += F (b, c, d) + x + (uint32_t)(ac);
 235              		.loc 1 56 0
 236 0082 0598     		ldr	r0, [sp, #20]
 237 0084 D418     		add	r4, r2, r3
 238 0086 2318     		add	r3, r4, r0
 239 0088 039C     		ldr	r4, [sp, #12]
 240 008a 321C     		mov	r2, r6
 241              	.LVL20:
 242 008c 8C43     		bic	r4, r1
 243 008e 0A40     		and	r2, r1
 244 0090 2243     		orr	r2, r4
 245 0092 9818     		add	r0, r3, r2
 246              	.LVL21:
  57:.\md5.c       **** 		a = ROTATE_LEFT (a, s);
 247              		.loc 1 57 0
 248 0094 0F23     		mov	r3, #15
 249 0096 D841     		ror	r0, r0, r3
 250              	.LVL22:
  58:.\md5.c       **** 		a += b;
 251              		.loc 1 58 0
 252 0098 4218     		add	r2, r0, r1
 253              	.LVL23:
 254              	.LBE271:
 255              	.LBE275:
 256              	.LBB276:
 257              	.LBB277:
  56:.\md5.c       **** 		a += F (b, c, d) + x + (uint32_t)(ac);
 258              		.loc 1 56 0
 259 009a 0B9C     		ldr	r4, [sp, #44]
ARM GAS  C:\Users\atsu\AppData\Local\Temp\ccFWVBKl.s 			page 11


 260 009c EB48     		ldr	r0, .L9+12
 261 009e 2318     		add	r3, r4, r0
 262 00a0 039C     		ldr	r4, [sp, #12]
 263 00a2 1819     		add	r0, r3, r4
 264 00a4 331C     		mov	r3, r6
 265 00a6 9343     		bic	r3, r2
 266 00a8 9C46     		mov	ip, r3
 267 00aa 0B1C     		mov	r3, r1
 268 00ac 6446     		mov	r4, ip
 269 00ae 1340     		and	r3, r2
 270 00b0 2343     		orr	r3, r4
 271 00b2 C318     		add	r3, r0, r3
 272              	.LVL24:
 273              	.LBE277:
 274              	.LBE276:
 275              	.LBB280:
 276              	.LBB281:
 277 00b4 0C9C     		ldr	r4, [sp, #48]
 278              	.LBE281:
 279              	.LBE280:
 280              	.LBB285:
 281              	.LBB278:
  57:.\md5.c       **** 		a = ROTATE_LEFT (a, s);
 282              		.loc 1 57 0
 283 00b6 0A20     		mov	r0, #10
 284 00b8 C341     		ror	r3, r3, r0
 285              	.LVL25:
 286              	.LBE278:
 287              	.LBE285:
 288              	.LBB286:
 289              	.LBB282:
  56:.\md5.c       **** 		a += F (b, c, d) + x + (uint32_t)(ac);
 290              		.loc 1 56 0
 291 00ba E548     		ldr	r0, .L9+16
 292 00bc A446     		mov	ip, r4
 293              	.LBE282:
 294              	.LBE286:
 295              	.LBB287:
 296              	.LBB279:
  58:.\md5.c       **** 		a += b;
 297              		.loc 1 58 0
 298 00be 9B18     		add	r3, r3, r2
 299              	.LVL26:
 300              	.LBE279:
 301              	.LBE287:
 302              	.LBB288:
 303              	.LBB283:
  56:.\md5.c       **** 		a += F (b, c, d) + x + (uint32_t)(ac);
 304              		.loc 1 56 0
 305 00c0 8444     		add	ip, ip, r0
 306 00c2 141C     		mov	r4, r2
 307              	.LVL27:
 308 00c4 081C     		mov	r0, r1
 309 00c6 9843     		bic	r0, r3
 310 00c8 1C40     		and	r4, r3
 311 00ca 0443     		orr	r4, r0
 312 00cc 6644     		add	r6, r6, ip
ARM GAS  C:\Users\atsu\AppData\Local\Temp\ccFWVBKl.s 			page 12


 313              	.LVL28:
 314 00ce 3619     		add	r6, r6, r4
 315              	.LVL29:
 316              	.LBE283:
 317              	.LBE288:
 318              	.LBB289:
 319              	.LBB290:
 320 00d0 0D98     		ldr	r0, [sp, #52]
 321              	.LBE290:
 322              	.LBE289:
 323              	.LBB295:
 324              	.LBB284:
  57:.\md5.c       **** 		a = ROTATE_LEFT (a, s);
 325              		.loc 1 57 0
 326 00d2 EE41     		ror	r6, r6, r5
 327              	.LVL30:
  58:.\md5.c       **** 		a += b;
 328              		.loc 1 58 0
 329 00d4 F418     		add	r4, r6, r3
 330              	.LVL31:
 331              	.LBE284:
 332              	.LBE295:
 333              	.LBB296:
 334              	.LBB291:
  56:.\md5.c       **** 		a += F (b, c, d) + x + (uint32_t)(ac);
 335              		.loc 1 56 0
 336 00d6 DF4E     		ldr	r6, .L9+20
 337 00d8 8446     		mov	ip, r0
 338 00da B444     		add	ip, ip, r6
 339 00dc 101C     		mov	r0, r2
 340              	.LVL32:
 341 00de 1E1C     		mov	r6, r3
 342 00e0 A043     		bic	r0, r4
 343 00e2 2640     		and	r6, r4
 344 00e4 0643     		orr	r6, r0
 345 00e6 6144     		add	r1, r1, ip
 346              	.LVL33:
 347              	.LBE291:
 348              	.LBE296:
 349              	.LBB297:
 350              	.LBB298:
 351 00e8 0E98     		ldr	r0, [sp, #56]
 352              	.LBE298:
 353              	.LBE297:
 354              	.LBB304:
 355              	.LBB292:
 356 00ea 8919     		add	r1, r1, r6
 357              	.LVL34:
 358              	.LBE292:
 359              	.LBE304:
 360              	.LBB305:
 361              	.LBB299:
 362 00ec DA4E     		ldr	r6, .L9+24
 363              	.LBE299:
 364              	.LBE305:
 365              	.LBB306:
 366              	.LBB293:
ARM GAS  C:\Users\atsu\AppData\Local\Temp\ccFWVBKl.s 			page 13


  57:.\md5.c       **** 		a = ROTATE_LEFT (a, s);
 367              		.loc 1 57 0
 368 00ee F941     		ror	r1, r1, r7
 369              	.LVL35:
 370              	.LBE293:
 371              	.LBE306:
 372              	.LBB307:
 373              	.LBB300:
  56:.\md5.c       **** 		a += F (b, c, d) + x + (uint32_t)(ac);
 374              		.loc 1 56 0
 375 00f0 8446     		mov	ip, r0
 376              	.LBE300:
 377              	.LBE307:
 378              	.LBB308:
 379              	.LBB294:
  58:.\md5.c       **** 		a += b;
 380              		.loc 1 58 0
 381 00f2 0919     		add	r1, r1, r4
 382              	.LVL36:
 383              	.LBE294:
 384              	.LBE308:
 385              	.LBB309:
 386              	.LBB301:
  56:.\md5.c       **** 		a += F (b, c, d) + x + (uint32_t)(ac);
 387              		.loc 1 56 0
 388 00f4 B444     		add	ip, ip, r6
 389 00f6 181C     		mov	r0, r3
 390              	.LVL37:
 391 00f8 261C     		mov	r6, r4
 392 00fa 8843     		bic	r0, r1
 393 00fc 0E40     		and	r6, r1
 394 00fe 0643     		orr	r6, r0
 395 0100 6244     		add	r2, r2, ip
 396              	.LVL38:
 397 0102 9219     		add	r2, r2, r6
 398              	.LVL39:
  57:.\md5.c       **** 		a = ROTATE_LEFT (a, s);
 399              		.loc 1 57 0
 400 0104 0F20     		mov	r0, #15
 401              	.LBE301:
 402              	.LBE309:
 403              	.LBB310:
 404              	.LBB311:
  56:.\md5.c       **** 		a += F (b, c, d) + x + (uint32_t)(ac);
 405              		.loc 1 56 0
 406 0106 0F9E     		ldr	r6, [sp, #60]
 407              	.LBE311:
 408              	.LBE310:
 409              	.LBB316:
 410              	.LBB302:
  57:.\md5.c       **** 		a = ROTATE_LEFT (a, s);
 411              		.loc 1 57 0
 412 0108 C241     		ror	r2, r2, r0
 413              	.LVL40:
 414              	.LBE302:
 415              	.LBE316:
 416              	.LBB317:
ARM GAS  C:\Users\atsu\AppData\Local\Temp\ccFWVBKl.s 			page 14


 417              	.LBB312:
  56:.\md5.c       **** 		a += F (b, c, d) + x + (uint32_t)(ac);
 418              		.loc 1 56 0
 419 010a D448     		ldr	r0, .L9+28
 420              	.LBE312:
 421              	.LBE317:
 422              	.LBB318:
 423              	.LBB303:
  58:.\md5.c       **** 		a += b;
 424              		.loc 1 58 0
 425 010c 5218     		add	r2, r2, r1
 426              	.LVL41:
 427              	.LBE303:
 428              	.LBE318:
 429              	.LBB319:
 430              	.LBB313:
  56:.\md5.c       **** 		a += F (b, c, d) + x + (uint32_t)(ac);
 431              		.loc 1 56 0
 432 010e B446     		mov	ip, r6
 433 0110 261C     		mov	r6, r4
 434              	.LVL42:
 435 0112 8444     		add	ip, ip, r0
 436              	.LVL43:
 437 0114 9643     		bic	r6, r2
 438 0116 6344     		add	r3, r3, ip
 439              	.LVL44:
 440 0118 B446     		mov	ip, r6
 441 011a 0E1C     		mov	r6, r1
 442 011c 6046     		mov	r0, ip
 443 011e 1640     		and	r6, r2
 444 0120 0643     		orr	r6, r0
 445 0122 9B19     		add	r3, r3, r6
 446              	.LVL45:
 447              	.LBE313:
 448              	.LBE319:
 449              	.LBB320:
 450              	.LBB321:
 451 0124 1098     		ldr	r0, [sp, #64]
 452              	.LBE321:
 453              	.LBE320:
 454              	.LBB326:
 455              	.LBB314:
  57:.\md5.c       **** 		a = ROTATE_LEFT (a, s);
 456              		.loc 1 57 0
 457 0126 0A26     		mov	r6, #10
 458 0128 F341     		ror	r3, r3, r6
 459              	.LVL46:
 460              	.LBE314:
 461              	.LBE326:
 462              	.LBB327:
 463              	.LBB322:
  56:.\md5.c       **** 		a += F (b, c, d) + x + (uint32_t)(ac);
 464              		.loc 1 56 0
 465 012a CD4E     		ldr	r6, .L9+32
 466 012c 8446     		mov	ip, r0
 467              	.LBE322:
 468              	.LBE327:
ARM GAS  C:\Users\atsu\AppData\Local\Temp\ccFWVBKl.s 			page 15


 469              	.LBB328:
 470              	.LBB315:
  58:.\md5.c       **** 		a += b;
 471              		.loc 1 58 0
 472 012e 9B18     		add	r3, r3, r2
 473              	.LVL47:
 474              	.LBE315:
 475              	.LBE328:
 476              	.LBB329:
 477              	.LBB323:
  56:.\md5.c       **** 		a += F (b, c, d) + x + (uint32_t)(ac);
 478              		.loc 1 56 0
 479 0130 B444     		add	ip, ip, r6
 480 0132 081C     		mov	r0, r1
 481              	.LVL48:
 482 0134 161C     		mov	r6, r2
 483 0136 9843     		bic	r0, r3
 484 0138 1E40     		and	r6, r3
 485 013a 0643     		orr	r6, r0
 486 013c 6444     		add	r4, r4, ip
 487              	.LVL49:
 488 013e A419     		add	r4, r4, r6
 489              	.LVL50:
 490              	.LBE323:
 491              	.LBE329:
 492              	.LBB330:
 493              	.LBB331:
 494 0140 119E     		ldr	r6, [sp, #68]
 495 0142 C848     		ldr	r0, .L9+36
 496              	.LBE331:
 497              	.LBE330:
 498              	.LBB337:
 499              	.LBB324:
  57:.\md5.c       **** 		a = ROTATE_LEFT (a, s);
 500              		.loc 1 57 0
 501 0144 EC41     		ror	r4, r4, r5
 502              	.LVL51:
 503              	.LBE324:
 504              	.LBE337:
 505              	.LBB338:
 506              	.LBB332:
  56:.\md5.c       **** 		a += F (b, c, d) + x + (uint32_t)(ac);
 507              		.loc 1 56 0
 508 0146 B446     		mov	ip, r6
 509              	.LBE332:
 510              	.LBE338:
 511              	.LBB339:
 512              	.LBB325:
  58:.\md5.c       **** 		a += b;
 513              		.loc 1 58 0
 514 0148 E418     		add	r4, r4, r3
 515              	.LVL52:
 516              	.LBE325:
 517              	.LBE339:
 518              	.LBB340:
 519              	.LBB333:
  56:.\md5.c       **** 		a += F (b, c, d) + x + (uint32_t)(ac);
ARM GAS  C:\Users\atsu\AppData\Local\Temp\ccFWVBKl.s 			page 16


 520              		.loc 1 56 0
 521 014a 8444     		add	ip, ip, r0
 522 014c 1E1C     		mov	r6, r3
 523              	.LVL53:
 524 014e 101C     		mov	r0, r2
 525 0150 A043     		bic	r0, r4
 526 0152 2640     		and	r6, r4
 527 0154 0643     		orr	r6, r0
 528 0156 6144     		add	r1, r1, ip
 529              	.LVL54:
 530              	.LBE333:
 531              	.LBE340:
 532              	.LBB341:
 533              	.LBB342:
 534 0158 1298     		ldr	r0, [sp, #72]
 535              	.LBE342:
 536              	.LBE341:
 537              	.LBB348:
 538              	.LBB334:
 539 015a 8919     		add	r1, r1, r6
 540              	.LVL55:
 541              	.LBE334:
 542              	.LBE348:
 543              	.LBB349:
 544              	.LBB343:
 545 015c C24E     		ldr	r6, .L9+40
 546              	.LBE343:
 547              	.LBE349:
 548              	.LBB350:
 549              	.LBB335:
  57:.\md5.c       **** 		a = ROTATE_LEFT (a, s);
 550              		.loc 1 57 0
 551 015e F941     		ror	r1, r1, r7
 552              	.LVL56:
 553              	.LBE335:
 554              	.LBE350:
 555              	.LBB351:
 556              	.LBB344:
  56:.\md5.c       **** 		a += F (b, c, d) + x + (uint32_t)(ac);
 557              		.loc 1 56 0
 558 0160 8446     		mov	ip, r0
 559              	.LBE344:
 560              	.LBE351:
 561              	.LBB352:
 562              	.LBB336:
  58:.\md5.c       **** 		a += b;
 563              		.loc 1 58 0
 564 0162 0919     		add	r1, r1, r4
 565              	.LVL57:
 566              	.LBE336:
 567              	.LBE352:
 568              	.LBB353:
 569              	.LBB345:
  56:.\md5.c       **** 		a += F (b, c, d) + x + (uint32_t)(ac);
 570              		.loc 1 56 0
 571 0164 B444     		add	ip, ip, r6
 572 0166 181C     		mov	r0, r3
ARM GAS  C:\Users\atsu\AppData\Local\Temp\ccFWVBKl.s 			page 17


 573              	.LVL58:
 574 0168 261C     		mov	r6, r4
 575 016a 8843     		bic	r0, r1
 576 016c 0E40     		and	r6, r1
 577 016e 0643     		orr	r6, r0
 578 0170 6244     		add	r2, r2, ip
 579              	.LVL59:
 580 0172 9219     		add	r2, r2, r6
 581              	.LVL60:
  57:.\md5.c       **** 		a = ROTATE_LEFT (a, s);
 582              		.loc 1 57 0
 583 0174 0F20     		mov	r0, #15
 584              	.LBE345:
 585              	.LBE353:
 586              	.LBB354:
 587              	.LBB355:
  56:.\md5.c       **** 		a += F (b, c, d) + x + (uint32_t)(ac);
 588              		.loc 1 56 0
 589 0176 139E     		ldr	r6, [sp, #76]
 590              	.LBE355:
 591              	.LBE354:
 592              	.LBB360:
 593              	.LBB346:
  57:.\md5.c       **** 		a = ROTATE_LEFT (a, s);
 594              		.loc 1 57 0
 595 0178 C241     		ror	r2, r2, r0
 596              	.LVL61:
 597              	.LBE346:
 598              	.LBE360:
 599              	.LBB361:
 600              	.LBB356:
  56:.\md5.c       **** 		a += F (b, c, d) + x + (uint32_t)(ac);
 601              		.loc 1 56 0
 602 017a BC48     		ldr	r0, .L9+44
 603              	.LBE356:
 604              	.LBE361:
 605              	.LBB362:
 606              	.LBB347:
  58:.\md5.c       **** 		a += b;
 607              		.loc 1 58 0
 608 017c 5218     		add	r2, r2, r1
 609              	.LVL62:
 610              	.LBE347:
 611              	.LBE362:
 612              	.LBB363:
 613              	.LBB357:
  56:.\md5.c       **** 		a += F (b, c, d) + x + (uint32_t)(ac);
 614              		.loc 1 56 0
 615 017e B446     		mov	ip, r6
 616 0180 261C     		mov	r6, r4
 617              	.LVL63:
 618 0182 8444     		add	ip, ip, r0
 619              	.LVL64:
 620 0184 9643     		bic	r6, r2
 621 0186 6344     		add	r3, r3, ip
 622              	.LVL65:
 623 0188 B446     		mov	ip, r6
ARM GAS  C:\Users\atsu\AppData\Local\Temp\ccFWVBKl.s 			page 18


 624 018a 0E1C     		mov	r6, r1
 625 018c 6046     		mov	r0, ip
 626 018e 1640     		and	r6, r2
 627 0190 0643     		orr	r6, r0
 628 0192 9B19     		add	r3, r3, r6
 629              	.LVL66:
 630              	.LBE357:
 631              	.LBE363:
 632              	.LBB364:
 633              	.LBB365:
 634 0194 1498     		ldr	r0, [sp, #80]
 635              	.LBE365:
 636              	.LBE364:
 637              	.LBB369:
 638              	.LBB358:
  57:.\md5.c       **** 		a = ROTATE_LEFT (a, s);
 639              		.loc 1 57 0
 640 0196 0A26     		mov	r6, #10
 641 0198 F341     		ror	r3, r3, r6
 642              	.LVL67:
 643              	.LBE358:
 644              	.LBE369:
 645              	.LBB370:
 646              	.LBB366:
  56:.\md5.c       **** 		a += F (b, c, d) + x + (uint32_t)(ac);
 647              		.loc 1 56 0
 648 019a B54E     		ldr	r6, .L9+48
 649 019c 8446     		mov	ip, r0
 650              	.LBE366:
 651              	.LBE370:
 652              	.LBB371:
 653              	.LBB359:
  58:.\md5.c       **** 		a += b;
 654              		.loc 1 58 0
 655 019e 9B18     		add	r3, r3, r2
 656              	.LVL68:
 657              	.LBE359:
 658              	.LBE371:
 659              	.LBB372:
 660              	.LBB367:
  56:.\md5.c       **** 		a += F (b, c, d) + x + (uint32_t)(ac);
 661              		.loc 1 56 0
 662 01a0 B444     		add	ip, ip, r6
 663 01a2 081C     		mov	r0, r1
 664              	.LVL69:
 665 01a4 161C     		mov	r6, r2
 666 01a6 9843     		bic	r0, r3
 667 01a8 1E40     		and	r6, r3
 668 01aa 0643     		orr	r6, r0
 669 01ac 6444     		add	r4, r4, ip
 670              	.LVL70:
 671 01ae A419     		add	r4, r4, r6
 672              	.LVL71:
  57:.\md5.c       **** 		a = ROTATE_LEFT (a, s);
 673              		.loc 1 57 0
 674 01b0 EC41     		ror	r4, r4, r5
 675              	.LVL72:
ARM GAS  C:\Users\atsu\AppData\Local\Temp\ccFWVBKl.s 			page 19


 676              	.LBE367:
 677              	.LBE372:
 678              	.LBB373:
 679              	.LBB374:
  56:.\md5.c       **** 		a += F (b, c, d) + x + (uint32_t)(ac);
 680              		.loc 1 56 0
 681 01b2 B048     		ldr	r0, .L9+52
 682 01b4 159D     		ldr	r5, [sp, #84]
 683              	.LBE374:
 684              	.LBE373:
 685              	.LBB377:
 686              	.LBB368:
  58:.\md5.c       **** 		a += b;
 687              		.loc 1 58 0
 688 01b6 E618     		add	r6, r4, r3
 689              	.LVL73:
 690              	.LBE368:
 691              	.LBE377:
 692              	.LBB378:
 693              	.LBB375:
  56:.\md5.c       **** 		a += F (b, c, d) + x + (uint32_t)(ac);
 694              		.loc 1 56 0
 695 01b8 2C18     		add	r4, r5, r0
 696 01ba 151C     		mov	r5, r2
 697              	.LVL74:
 698 01bc 181C     		mov	r0, r3
 699 01be B543     		bic	r5, r6
 700 01c0 3040     		and	r0, r6
 701 01c2 2843     		orr	r0, r5
 702 01c4 6118     		add	r1, r4, r1
 703              	.LVL75:
 704 01c6 0C18     		add	r4, r1, r0
 705              	.LVL76:
  57:.\md5.c       **** 		a = ROTATE_LEFT (a, s);
 706              		.loc 1 57 0
 707 01c8 FC41     		ror	r4, r4, r7
 708              	.LVL77:
 709              	.LBE375:
 710              	.LBE378:
 711              	.LBB379:
 712              	.LBB380:
  56:.\md5.c       **** 		a += F (b, c, d) + x + (uint32_t)(ac);
 713              		.loc 1 56 0
 714 01ca 1699     		ldr	r1, [sp, #88]
 715 01cc AA48     		ldr	r0, .L9+56
 716              	.LBE380:
 717              	.LBE379:
 718              	.LBB383:
 719              	.LBB376:
  58:.\md5.c       **** 		a += b;
 720              		.loc 1 58 0
 721 01ce A519     		add	r5, r4, r6
 722              	.LVL78:
 723              	.LBE376:
 724              	.LBE383:
 725              	.LBB384:
 726              	.LBB381:
ARM GAS  C:\Users\atsu\AppData\Local\Temp\ccFWVBKl.s 			page 20


  56:.\md5.c       **** 		a += F (b, c, d) + x + (uint32_t)(ac);
 727              		.loc 1 56 0
 728 01d0 EF43     		mvn	r7, r5
 729 01d2 0C18     		add	r4, r1, r0
 730 01d4 181C     		mov	r0, r3
 731 01d6 311C     		mov	r1, r6
 732              	.LVL79:
 733 01d8 3840     		and	r0, r7
 734 01da 2940     		and	r1, r5
 735 01dc 0143     		orr	r1, r0
 736 01de A218     		add	r2, r4, r2
 737              	.LVL80:
 738 01e0 5418     		add	r4, r2, r1
 739              	.LVL81:
  57:.\md5.c       **** 		a = ROTATE_LEFT (a, s);
 740              		.loc 1 57 0
 741 01e2 0F22     		mov	r2, #15
 742              	.LBE381:
 743              	.LBE384:
 744              	.LBB385:
 745              	.LBB386:
  56:.\md5.c       **** 		a += F (b, c, d) + x + (uint32_t)(ac);
 746              		.loc 1 56 0
 747 01e4 1798     		ldr	r0, [sp, #92]
 748              	.LBE386:
 749              	.LBE385:
 750              	.LBB388:
 751              	.LBB382:
  57:.\md5.c       **** 		a = ROTATE_LEFT (a, s);
 752              		.loc 1 57 0
 753 01e6 D441     		ror	r4, r4, r2
 754              	.LVL82:
  58:.\md5.c       **** 		a += b;
 755              		.loc 1 58 0
 756 01e8 6219     		add	r2, r4, r5
 757              	.LVL83:
 758              	.LBE382:
 759              	.LBE388:
 760              	.LBB389:
 761              	.LBB387:
  56:.\md5.c       **** 		a += F (b, c, d) + x + (uint32_t)(ac);
 762              		.loc 1 56 0
 763 01ea A44C     		ldr	r4, .L9+60
 764 01ec 8446     		mov	ip, r0
 765 01ee D143     		mvn	r1, r2
 766 01f0 A444     		add	ip, ip, r4
 767 01f2 281C     		mov	r0, r5
 768              	.LVL84:
 769 01f4 341C     		mov	r4, r6
 770 01f6 0C40     		and	r4, r1
 771 01f8 1040     		and	r0, r2
 772 01fa 6344     		add	r3, r3, ip
 773              	.LVL85:
 774 01fc 2043     		orr	r0, r4
 775 01fe 1C18     		add	r4, r3, r0
 776              	.LVL86:
  57:.\md5.c       **** 		a = ROTATE_LEFT (a, s);
ARM GAS  C:\Users\atsu\AppData\Local\Temp\ccFWVBKl.s 			page 21


 777              		.loc 1 57 0
 778 0200 0A23     		mov	r3, #10
 779 0202 DC41     		ror	r4, r4, r3
 780              	.LVL87:
  58:.\md5.c       **** 		a += b;
 781              		.loc 1 58 0
 782 0204 A018     		add	r0, r4, r2
 783              	.LVL88:
 784              	.LBE387:
 785              	.LBE389:
 786              	.LBB390:
 787              	.LBB391:
  63:.\md5.c       **** 		a += G (b, c, d) + x + (uint32_t)(ac);
 788              		.loc 1 63 0
 789 0206 099C     		ldr	r4, [sp, #36]
 790 0208 9D4B     		ldr	r3, .L9+64
 791 020a A446     		mov	ip, r4
 792 020c 2C1C     		mov	r4, r5
 793 020e 9C44     		add	ip, ip, r3
 794 0210 0440     		and	r4, r0
 795 0212 1740     		and	r7, r2
 796 0214 6644     		add	r6, r6, ip
 797              	.LVL89:
 798 0216 2743     		orr	r7, r4
 799              	.LBE391:
 800              	.LBE390:
 801              	.LBB394:
 802              	.LBB395:
 803 0218 0E9B     		ldr	r3, [sp, #56]
 804              	.LBE395:
 805              	.LBE394:
 806              	.LBB400:
 807              	.LBB392:
 808 021a F719     		add	r7, r6, r7
 809              	.LVL90:
 810              	.LBE392:
 811              	.LBE400:
 812              	.LBB401:
 813              	.LBB396:
 814 021c 994C     		ldr	r4, .L9+68
 815              	.LBE396:
 816              	.LBE401:
 817              	.LBB402:
 818              	.LBB393:
  64:.\md5.c       **** 		a = ROTATE_LEFT (a, s);
 819              		.loc 1 64 0
 820 021e 1B26     		mov	r6, #27
 821 0220 F741     		ror	r7, r7, r6
 822              	.LVL91:
  65:.\md5.c       **** 		a += b;
 823              		.loc 1 65 0
 824 0222 3F18     		add	r7, r7, r0
 825              	.LVL92:
 826              	.LBE393:
 827              	.LBE402:
 828              	.LBB403:
 829              	.LBB397:
ARM GAS  C:\Users\atsu\AppData\Local\Temp\ccFWVBKl.s 			page 22


  63:.\md5.c       **** 		a += G (b, c, d) + x + (uint32_t)(ac);
 830              		.loc 1 63 0
 831 0224 1E19     		add	r6, r3, r4
 832 0226 131C     		mov	r3, r2
 833 0228 3B40     		and	r3, r7
 834 022a 0140     		and	r1, r0
 835 022c 7519     		add	r5, r6, r5
 836              	.LVL93:
 837 022e 1943     		orr	r1, r3
 838              	.LBE397:
 839              	.LBE403:
 840              	.LBB404:
 841              	.LBB405:
 842 0230 139E     		ldr	r6, [sp, #76]
 843              	.LBE405:
 844              	.LBE404:
 845              	.LBB410:
 846              	.LBB398:
 847 0232 6C18     		add	r4, r5, r1
 848              	.LVL94:
  64:.\md5.c       **** 		a = ROTATE_LEFT (a, s);
 849              		.loc 1 64 0
 850 0234 1721     		mov	r1, #23
 851              	.LBE398:
 852              	.LBE410:
 853              	.LBB411:
 854              	.LBB406:
  63:.\md5.c       **** 		a += G (b, c, d) + x + (uint32_t)(ac);
 855              		.loc 1 63 0
 856 0236 944D     		ldr	r5, .L9+72
 857              	.LBE406:
 858              	.LBE411:
 859              	.LBB412:
 860              	.LBB399:
  64:.\md5.c       **** 		a = ROTATE_LEFT (a, s);
 861              		.loc 1 64 0
 862 0238 CC41     		ror	r4, r4, r1
 863              	.LVL95:
  65:.\md5.c       **** 		a += b;
 864              		.loc 1 65 0
 865 023a E119     		add	r1, r4, r7
 866              	.LVL96:
 867              	.LBE399:
 868              	.LBE412:
 869              	.LBB413:
 870              	.LBB407:
  63:.\md5.c       **** 		a += G (b, c, d) + x + (uint32_t)(ac);
 871              		.loc 1 63 0
 872 023c 7319     		add	r3, r6, r5
 873 023e 041C     		mov	r4, r0
 874 0240 3E1C     		mov	r6, r7
 875 0242 0C40     		and	r4, r1
 876 0244 8643     		bic	r6, r0
 877 0246 9A18     		add	r2, r3, r2
 878              	.LVL97:
 879 0248 2643     		orr	r6, r4
 880              	.LBE407:
ARM GAS  C:\Users\atsu\AppData\Local\Temp\ccFWVBKl.s 			page 23


 881              	.LBE413:
 882              	.LBB414:
 883              	.LBB415:
 884 024a 089B     		ldr	r3, [sp, #32]
 885              	.LBE415:
 886              	.LBE414:
 887              	.LBB419:
 888              	.LBB408:
 889 024c 9519     		add	r5, r2, r6
 890              	.LVL98:
 891              	.LBE408:
 892              	.LBE419:
 893              	.LBB420:
 894              	.LBB416:
 895 024e 8F4C     		ldr	r4, .L9+76
 896              	.LBE416:
 897              	.LBE420:
 898              	.LBB421:
 899              	.LBB409:
  64:.\md5.c       **** 		a = ROTATE_LEFT (a, s);
 900              		.loc 1 64 0
 901 0250 1226     		mov	r6, #18
 902 0252 F541     		ror	r5, r5, r6
 903              	.LVL99:
  65:.\md5.c       **** 		a += b;
 904              		.loc 1 65 0
 905 0254 6A18     		add	r2, r5, r1
 906              	.LVL100:
 907              	.LBE409:
 908              	.LBE421:
 909              	.LBB422:
 910              	.LBB417:
  63:.\md5.c       **** 		a += G (b, c, d) + x + (uint32_t)(ac);
 911              		.loc 1 63 0
 912 0256 1D19     		add	r5, r3, r4
 913 0258 3C1C     		mov	r4, r7
 914 025a 0B1C     		mov	r3, r1
 915 025c 1440     		and	r4, r2
 916 025e BB43     		bic	r3, r7
 917 0260 2343     		orr	r3, r4
 918 0262 2818     		add	r0, r5, r0
 919              	.LVL101:
 920 0264 C018     		add	r0, r0, r3
 921              	.LVL102:
  64:.\md5.c       **** 		a = ROTATE_LEFT (a, s);
 922              		.loc 1 64 0
 923 0266 0C25     		mov	r5, #12
 924              	.LBE417:
 925              	.LBE422:
 926              	.LBB423:
 927              	.LBB424:
  63:.\md5.c       **** 		a += G (b, c, d) + x + (uint32_t)(ac);
 928              		.loc 1 63 0
 929 0268 0D9C     		ldr	r4, [sp, #52]
 930              	.LBE424:
 931              	.LBE423:
 932              	.LBB426:
ARM GAS  C:\Users\atsu\AppData\Local\Temp\ccFWVBKl.s 			page 24


 933              	.LBB418:
  64:.\md5.c       **** 		a = ROTATE_LEFT (a, s);
 934              		.loc 1 64 0
 935 026a E841     		ror	r0, r0, r5
 936              	.LVL103:
  65:.\md5.c       **** 		a += b;
 937              		.loc 1 65 0
 938 026c 8318     		add	r3, r0, r2
 939              	.LVL104:
 940              	.LBE418:
 941              	.LBE426:
 942              	.LBB427:
 943              	.LBB425:
  63:.\md5.c       **** 		a += G (b, c, d) + x + (uint32_t)(ac);
 944              		.loc 1 63 0
 945 026e 8848     		ldr	r0, .L9+80
 946 0270 A446     		mov	ip, r4
 947 0272 8444     		add	ip, ip, r0
 948 0274 0C1C     		mov	r4, r1
 949 0276 101C     		mov	r0, r2
 950 0278 1C40     		and	r4, r3
 951 027a 8843     		bic	r0, r1
 952 027c 6744     		add	r7, r7, ip
 953              	.LVL105:
 954 027e 2043     		orr	r0, r4
 955 0280 3C18     		add	r4, r7, r0
 956              	.LVL106:
  64:.\md5.c       **** 		a = ROTATE_LEFT (a, s);
 957              		.loc 1 64 0
 958 0282 1B27     		mov	r7, #27
 959 0284 FC41     		ror	r4, r4, r7
 960              	.LVL107:
  65:.\md5.c       **** 		a += b;
 961              		.loc 1 65 0
 962 0286 E018     		add	r0, r4, r3
 963              	.LVL108:
 964              	.LBE425:
 965              	.LBE427:
 966              	.LBB428:
 967              	.LBB429:
  63:.\md5.c       **** 		a += G (b, c, d) + x + (uint32_t)(ac);
 968              		.loc 1 63 0
 969 0288 129C     		ldr	r4, [sp, #72]
 970 028a 824F     		ldr	r7, .L9+84
 971 028c A446     		mov	ip, r4
 972 028e BC44     		add	ip, ip, r7
 973 0290 141C     		mov	r4, r2
 974 0292 1F1C     		mov	r7, r3
 975 0294 0440     		and	r4, r0
 976 0296 9743     		bic	r7, r2
 977 0298 2743     		orr	r7, r4
 978 029a 6144     		add	r1, r1, ip
 979              	.LVL109:
 980              	.LBE429:
 981              	.LBE428:
 982              	.LBB432:
 983              	.LBB433:
ARM GAS  C:\Users\atsu\AppData\Local\Temp\ccFWVBKl.s 			page 25


 984 029c 179C     		ldr	r4, [sp, #92]
 985              	.LBE433:
 986              	.LBE432:
 987              	.LBB438:
 988              	.LBB430:
 989 029e C919     		add	r1, r1, r7
 990              	.LVL110:
  64:.\md5.c       **** 		a = ROTATE_LEFT (a, s);
 991              		.loc 1 64 0
 992 02a0 1727     		mov	r7, #23
 993 02a2 F941     		ror	r1, r1, r7
 994              	.LVL111:
 995              	.LBE430:
 996              	.LBE438:
 997              	.LBB439:
 998              	.LBB434:
  63:.\md5.c       **** 		a += G (b, c, d) + x + (uint32_t)(ac);
 999              		.loc 1 63 0
 1000 02a4 7C4F     		ldr	r7, .L9+88
 1001 02a6 A446     		mov	ip, r4
 1002              	.LBE434:
 1003              	.LBE439:
 1004              	.LBB440:
 1005              	.LBB431:
  65:.\md5.c       **** 		a += b;
 1006              		.loc 1 65 0
 1007 02a8 0918     		add	r1, r1, r0
 1008              	.LVL112:
 1009              	.LBE431:
 1010              	.LBE440:
 1011              	.LBB441:
 1012              	.LBB435:
  63:.\md5.c       **** 		a += G (b, c, d) + x + (uint32_t)(ac);
 1013              		.loc 1 63 0
 1014 02aa BC44     		add	ip, ip, r7
 1015 02ac 1C1C     		mov	r4, r3
 1016 02ae 071C     		mov	r7, r0
 1017 02b0 0C40     		and	r4, r1
 1018 02b2 9F43     		bic	r7, r3
 1019 02b4 2743     		orr	r7, r4
 1020 02b6 6244     		add	r2, r2, ip
 1021              	.LVL113:
 1022 02b8 D219     		add	r2, r2, r7
 1023              	.LVL114:
 1024              	.LBE435:
 1025              	.LBE441:
 1026              	.LBB442:
 1027              	.LBB443:
 1028 02ba 0C9F     		ldr	r7, [sp, #48]
 1029 02bc 774C     		ldr	r4, .L9+92
 1030              	.LBE443:
 1031              	.LBE442:
 1032              	.LBB449:
 1033              	.LBB436:
  64:.\md5.c       **** 		a = ROTATE_LEFT (a, s);
 1034              		.loc 1 64 0
 1035 02be F241     		ror	r2, r2, r6
ARM GAS  C:\Users\atsu\AppData\Local\Temp\ccFWVBKl.s 			page 26


 1036              	.LVL115:
 1037              	.LBE436:
 1038              	.LBE449:
 1039              	.LBB450:
 1040              	.LBB444:
  63:.\md5.c       **** 		a += G (b, c, d) + x + (uint32_t)(ac);
 1041              		.loc 1 63 0
 1042 02c0 BC46     		mov	ip, r7
 1043              	.LBE444:
 1044              	.LBE450:
 1045              	.LBB451:
 1046              	.LBB437:
  65:.\md5.c       **** 		a += b;
 1047              		.loc 1 65 0
 1048 02c2 5218     		add	r2, r2, r1
 1049              	.LVL116:
 1050              	.LBE437:
 1051              	.LBE451:
 1052              	.LBB452:
 1053              	.LBB445:
  63:.\md5.c       **** 		a += G (b, c, d) + x + (uint32_t)(ac);
 1054              		.loc 1 63 0
 1055 02c4 A444     		add	ip, ip, r4
 1056 02c6 0F1C     		mov	r7, r1
 1057 02c8 041C     		mov	r4, r0
 1058 02ca 1440     		and	r4, r2
 1059 02cc 8743     		bic	r7, r0
 1060 02ce 2743     		orr	r7, r4
 1061 02d0 6344     		add	r3, r3, ip
 1062              	.LVL117:
 1063              	.LBE445:
 1064              	.LBE452:
 1065              	.LBB453:
 1066              	.LBB454:
 1067 02d2 119C     		ldr	r4, [sp, #68]
 1068              	.LBE454:
 1069              	.LBE453:
 1070              	.LBB460:
 1071              	.LBB446:
 1072 02d4 DB19     		add	r3, r3, r7
 1073              	.LVL118:
 1074              	.LBE446:
 1075              	.LBE460:
 1076              	.LBB461:
 1077              	.LBB455:
 1078 02d6 724F     		ldr	r7, .L9+96
 1079              	.LBE455:
 1080              	.LBE461:
 1081              	.LBB462:
 1082              	.LBB447:
  64:.\md5.c       **** 		a = ROTATE_LEFT (a, s);
 1083              		.loc 1 64 0
 1084 02d8 EB41     		ror	r3, r3, r5
 1085              	.LVL119:
 1086              	.LBE447:
 1087              	.LBE462:
 1088              	.LBB463:
ARM GAS  C:\Users\atsu\AppData\Local\Temp\ccFWVBKl.s 			page 27


 1089              	.LBB456:
  63:.\md5.c       **** 		a += G (b, c, d) + x + (uint32_t)(ac);
 1090              		.loc 1 63 0
 1091 02da A446     		mov	ip, r4
 1092              	.LBE456:
 1093              	.LBE463:
 1094              	.LBB464:
 1095              	.LBB448:
  65:.\md5.c       **** 		a += b;
 1096              		.loc 1 65 0
 1097 02dc 9B18     		add	r3, r3, r2
 1098              	.LVL120:
 1099              	.LBE448:
 1100              	.LBE464:
 1101              	.LBB465:
 1102              	.LBB457:
  63:.\md5.c       **** 		a += G (b, c, d) + x + (uint32_t)(ac);
 1103              		.loc 1 63 0
 1104 02de BC44     		add	ip, ip, r7
 1105 02e0 0C1C     		mov	r4, r1
 1106 02e2 171C     		mov	r7, r2
 1107 02e4 1C40     		and	r4, r3
 1108 02e6 8F43     		bic	r7, r1
 1109 02e8 2743     		orr	r7, r4
 1110 02ea 6044     		add	r0, r0, ip
 1111              	.LVL121:
 1112 02ec C019     		add	r0, r0, r7
 1113              	.LVL122:
  64:.\md5.c       **** 		a = ROTATE_LEFT (a, s);
 1114              		.loc 1 64 0
 1115 02ee 1B24     		mov	r4, #27
 1116              	.LBE457:
 1117              	.LBE465:
 1118              	.LBB466:
 1119              	.LBB467:
  63:.\md5.c       **** 		a += G (b, c, d) + x + (uint32_t)(ac);
 1120              		.loc 1 63 0
 1121 02f0 169F     		ldr	r7, [sp, #88]
 1122              	.LBE467:
 1123              	.LBE466:
 1124              	.LBB472:
 1125              	.LBB458:
  64:.\md5.c       **** 		a = ROTATE_LEFT (a, s);
 1126              		.loc 1 64 0
 1127 02f2 E041     		ror	r0, r0, r4
 1128              	.LVL123:
 1129              	.LBE458:
 1130              	.LBE472:
 1131              	.LBB473:
 1132              	.LBB468:
  63:.\md5.c       **** 		a += G (b, c, d) + x + (uint32_t)(ac);
 1133              		.loc 1 63 0
 1134 02f4 6B4C     		ldr	r4, .L9+100
 1135              	.LBE468:
 1136              	.LBE473:
 1137              	.LBB474:
 1138              	.LBB459:
ARM GAS  C:\Users\atsu\AppData\Local\Temp\ccFWVBKl.s 			page 28


  65:.\md5.c       **** 		a += b;
 1139              		.loc 1 65 0
 1140 02f6 C018     		add	r0, r0, r3
 1141              	.LVL124:
 1142              	.LBE459:
 1143              	.LBE474:
 1144              	.LBB475:
 1145              	.LBB469:
  63:.\md5.c       **** 		a += G (b, c, d) + x + (uint32_t)(ac);
 1146              		.loc 1 63 0
 1147 02f8 BC46     		mov	ip, r7
 1148 02fa 171C     		mov	r7, r2
 1149 02fc A444     		add	ip, ip, r4
 1150 02fe 0740     		and	r7, r0
 1151 0300 6144     		add	r1, r1, ip
 1152              	.LVL125:
 1153 0302 BC46     		mov	ip, r7
 1154 0304 1F1C     		mov	r7, r3
 1155 0306 6446     		mov	r4, ip
 1156 0308 9743     		bic	r7, r2
 1157 030a 2743     		orr	r7, r4
 1158 030c C919     		add	r1, r1, r7
 1159              	.LVL126:
 1160              	.LBE469:
 1161              	.LBE475:
 1162              	.LBB476:
 1163              	.LBB477:
 1164 030e 0B9C     		ldr	r4, [sp, #44]
 1165              	.LBE477:
 1166              	.LBE476:
 1167              	.LBB482:
 1168              	.LBB470:
  64:.\md5.c       **** 		a = ROTATE_LEFT (a, s);
 1169              		.loc 1 64 0
 1170 0310 1727     		mov	r7, #23
 1171 0312 F941     		ror	r1, r1, r7
 1172              	.LVL127:
 1173              	.LBE470:
 1174              	.LBE482:
 1175              	.LBB483:
 1176              	.LBB478:
  63:.\md5.c       **** 		a += G (b, c, d) + x + (uint32_t)(ac);
 1177              		.loc 1 63 0
 1178 0314 644F     		ldr	r7, .L9+104
 1179 0316 A446     		mov	ip, r4
 1180              	.LBE478:
 1181              	.LBE483:
 1182              	.LBB484:
 1183              	.LBB471:
  65:.\md5.c       **** 		a += b;
 1184              		.loc 1 65 0
 1185 0318 0918     		add	r1, r1, r0
 1186              	.LVL128:
 1187              	.LBE471:
 1188              	.LBE484:
 1189              	.LBB485:
 1190              	.LBB479:
ARM GAS  C:\Users\atsu\AppData\Local\Temp\ccFWVBKl.s 			page 29


  63:.\md5.c       **** 		a += G (b, c, d) + x + (uint32_t)(ac);
 1191              		.loc 1 63 0
 1192 031a BC44     		add	ip, ip, r7
 1193 031c 1C1C     		mov	r4, r3
 1194 031e 071C     		mov	r7, r0
 1195 0320 0C40     		and	r4, r1
 1196 0322 9F43     		bic	r7, r3
 1197 0324 2743     		orr	r7, r4
 1198 0326 6244     		add	r2, r2, ip
 1199              	.LVL129:
 1200 0328 D219     		add	r2, r2, r7
 1201              	.LVL130:
 1202              	.LBE479:
 1203              	.LBE485:
 1204              	.LBB486:
 1205              	.LBB487:
 1206 032a 109F     		ldr	r7, [sp, #64]
 1207 032c 5F4C     		ldr	r4, .L9+108
 1208              	.LBE487:
 1209              	.LBE486:
 1210              	.LBB493:
 1211              	.LBB480:
  64:.\md5.c       **** 		a = ROTATE_LEFT (a, s);
 1212              		.loc 1 64 0
 1213 032e F241     		ror	r2, r2, r6
 1214              	.LVL131:
 1215              	.LBE480:
 1216              	.LBE493:
 1217              	.LBB494:
 1218              	.LBB488:
  63:.\md5.c       **** 		a += G (b, c, d) + x + (uint32_t)(ac);
 1219              		.loc 1 63 0
 1220 0330 BC46     		mov	ip, r7
 1221              	.LBE488:
 1222              	.LBE494:
 1223              	.LBB495:
 1224              	.LBB481:
  65:.\md5.c       **** 		a += b;
 1225              		.loc 1 65 0
 1226 0332 5218     		add	r2, r2, r1
 1227              	.LVL132:
 1228              	.LBE481:
 1229              	.LBE495:
 1230              	.LBB496:
 1231              	.LBB489:
  63:.\md5.c       **** 		a += G (b, c, d) + x + (uint32_t)(ac);
 1232              		.loc 1 63 0
 1233 0334 A444     		add	ip, ip, r4
 1234 0336 0F1C     		mov	r7, r1
 1235 0338 041C     		mov	r4, r0
 1236 033a 1440     		and	r4, r2
 1237 033c 8743     		bic	r7, r0
 1238 033e 2743     		orr	r7, r4
 1239 0340 6344     		add	r3, r3, ip
 1240              	.LVL133:
 1241              	.LBE489:
 1242              	.LBE496:
ARM GAS  C:\Users\atsu\AppData\Local\Temp\ccFWVBKl.s 			page 30


 1243              	.LBB497:
 1244              	.LBB498:
 1245 0342 159C     		ldr	r4, [sp, #84]
 1246              	.LBE498:
 1247              	.LBE497:
 1248              	.LBB504:
 1249              	.LBB490:
 1250 0344 DB19     		add	r3, r3, r7
 1251              	.LVL134:
 1252              	.LBE490:
 1253              	.LBE504:
 1254              	.LBB505:
 1255              	.LBB499:
 1256 0346 5A4F     		ldr	r7, .L9+112
 1257              	.LBE499:
 1258              	.LBE505:
 1259              	.LBB506:
 1260              	.LBB491:
  64:.\md5.c       **** 		a = ROTATE_LEFT (a, s);
 1261              		.loc 1 64 0
 1262 0348 EB41     		ror	r3, r3, r5
 1263              	.LVL135:
 1264              	.LBE491:
 1265              	.LBE506:
 1266              	.LBB507:
 1267              	.LBB500:
  63:.\md5.c       **** 		a += G (b, c, d) + x + (uint32_t)(ac);
 1268              		.loc 1 63 0
 1269 034a A446     		mov	ip, r4
 1270              	.LBE500:
 1271              	.LBE507:
 1272              	.LBB508:
 1273              	.LBB492:
  65:.\md5.c       **** 		a += b;
 1274              		.loc 1 65 0
 1275 034c 9B18     		add	r3, r3, r2
 1276              	.LVL136:
 1277              	.LBE492:
 1278              	.LBE508:
 1279              	.LBB509:
 1280              	.LBB501:
  63:.\md5.c       **** 		a += G (b, c, d) + x + (uint32_t)(ac);
 1281              		.loc 1 63 0
 1282 034e BC44     		add	ip, ip, r7
 1283 0350 0C1C     		mov	r4, r1
 1284 0352 171C     		mov	r7, r2
 1285 0354 1C40     		and	r4, r3
 1286 0356 8F43     		bic	r7, r1
 1287 0358 2743     		orr	r7, r4
 1288 035a 6044     		add	r0, r0, ip
 1289              	.LVL137:
 1290 035c C019     		add	r0, r0, r7
 1291              	.LVL138:
  64:.\md5.c       **** 		a = ROTATE_LEFT (a, s);
 1292              		.loc 1 64 0
 1293 035e 1B24     		mov	r4, #27
 1294              	.LBE501:
ARM GAS  C:\Users\atsu\AppData\Local\Temp\ccFWVBKl.s 			page 31


 1295              	.LBE509:
 1296              	.LBB510:
 1297              	.LBB511:
  63:.\md5.c       **** 		a += G (b, c, d) + x + (uint32_t)(ac);
 1298              		.loc 1 63 0
 1299 0360 0A9F     		ldr	r7, [sp, #40]
 1300              	.LBE511:
 1301              	.LBE510:
 1302              	.LBB516:
 1303              	.LBB502:
  64:.\md5.c       **** 		a = ROTATE_LEFT (a, s);
 1304              		.loc 1 64 0
 1305 0362 E041     		ror	r0, r0, r4
 1306              	.LVL139:
 1307              	.LBE502:
 1308              	.LBE516:
 1309              	.LBB517:
 1310              	.LBB512:
  63:.\md5.c       **** 		a += G (b, c, d) + x + (uint32_t)(ac);
 1311              		.loc 1 63 0
 1312 0364 534C     		ldr	r4, .L9+116
 1313              	.LBE512:
 1314              	.LBE517:
 1315              	.LBB518:
 1316              	.LBB503:
  65:.\md5.c       **** 		a += b;
 1317              		.loc 1 65 0
 1318 0366 C018     		add	r0, r0, r3
 1319              	.LVL140:
 1320              	.LBE503:
 1321              	.LBE518:
 1322              	.LBB519:
 1323              	.LBB513:
  63:.\md5.c       **** 		a += G (b, c, d) + x + (uint32_t)(ac);
 1324              		.loc 1 63 0
 1325 0368 BC46     		mov	ip, r7
 1326 036a 171C     		mov	r7, r2
 1327 036c A444     		add	ip, ip, r4
 1328 036e 0740     		and	r7, r0
 1329 0370 6144     		add	r1, r1, ip
 1330              	.LVL141:
 1331 0372 BC46     		mov	ip, r7
 1332 0374 1F1C     		mov	r7, r3
 1333 0376 6446     		mov	r4, ip
 1334 0378 9743     		bic	r7, r2
 1335 037a 2743     		orr	r7, r4
 1336 037c C919     		add	r1, r1, r7
 1337              	.LVL142:
 1338              	.LBE513:
 1339              	.LBE519:
 1340              	.LBB520:
 1341              	.LBB521:
 1342 037e 0F9C     		ldr	r4, [sp, #60]
 1343              	.LBE521:
 1344              	.LBE520:
 1345              	.LBB525:
 1346              	.LBB514:
ARM GAS  C:\Users\atsu\AppData\Local\Temp\ccFWVBKl.s 			page 32


  64:.\md5.c       **** 		a = ROTATE_LEFT (a, s);
 1347              		.loc 1 64 0
 1348 0380 1727     		mov	r7, #23
 1349 0382 F941     		ror	r1, r1, r7
 1350              	.LVL143:
 1351              	.LBE514:
 1352              	.LBE525:
 1353              	.LBB526:
 1354              	.LBB522:
  63:.\md5.c       **** 		a += G (b, c, d) + x + (uint32_t)(ac);
 1355              		.loc 1 63 0
 1356 0384 4C4F     		ldr	r7, .L9+120
 1357 0386 A446     		mov	ip, r4
 1358              	.LBE522:
 1359              	.LBE526:
 1360              	.LBB527:
 1361              	.LBB515:
  65:.\md5.c       **** 		a += b;
 1362              		.loc 1 65 0
 1363 0388 0918     		add	r1, r1, r0
 1364              	.LVL144:
 1365              	.LBE515:
 1366              	.LBE527:
 1367              	.LBB528:
 1368              	.LBB523:
  63:.\md5.c       **** 		a += G (b, c, d) + x + (uint32_t)(ac);
 1369              		.loc 1 63 0
 1370 038a BC44     		add	ip, ip, r7
 1371 038c 1C1C     		mov	r4, r3
 1372 038e 071C     		mov	r7, r0
 1373 0390 0C40     		and	r4, r1
 1374 0392 9F43     		bic	r7, r3
 1375 0394 2743     		orr	r7, r4
 1376 0396 6244     		add	r2, r2, ip
 1377              	.LVL145:
 1378 0398 D219     		add	r2, r2, r7
 1379              	.LVL146:
  64:.\md5.c       **** 		a = ROTATE_LEFT (a, s);
 1380              		.loc 1 64 0
 1381 039a F241     		ror	r2, r2, r6
 1382              	.LVL147:
 1383              	.LBE523:
 1384              	.LBE528:
 1385              	.LBB529:
 1386              	.LBB530:
  63:.\md5.c       **** 		a += G (b, c, d) + x + (uint32_t)(ac);
 1387              		.loc 1 63 0
 1388 039c 474C     		ldr	r4, .L9+124
 1389 039e 149E     		ldr	r6, [sp, #80]
 1390              	.LBE530:
 1391              	.LBE529:
 1392              	.LBB533:
 1393              	.LBB524:
  65:.\md5.c       **** 		a += b;
 1394              		.loc 1 65 0
 1395 03a0 5218     		add	r2, r2, r1
 1396              	.LVL148:
ARM GAS  C:\Users\atsu\AppData\Local\Temp\ccFWVBKl.s 			page 33


 1397              	.LBE524:
 1398              	.LBE533:
 1399              	.LBB534:
 1400              	.LBB531:
  63:.\md5.c       **** 		a += G (b, c, d) + x + (uint32_t)(ac);
 1401              		.loc 1 63 0
 1402 03a2 3719     		add	r7, r6, r4
 1403 03a4 041C     		mov	r4, r0
 1404 03a6 0E1C     		mov	r6, r1
 1405 03a8 1440     		and	r4, r2
 1406 03aa 8643     		bic	r6, r0
 1407 03ac 2643     		orr	r6, r4
 1408 03ae FB18     		add	r3, r7, r3
 1409              	.LVL149:
 1410 03b0 9F19     		add	r7, r3, r6
 1411              	.LVL150:
  64:.\md5.c       **** 		a = ROTATE_LEFT (a, s);
 1412              		.loc 1 64 0
 1413 03b2 EF41     		ror	r7, r7, r5
 1414              	.LVL151:
 1415              	.LBE531:
 1416              	.LBE534:
 1417              	.LBB535:
 1418              	.LBB536:
  71:.\md5.c       **** 		a += H (b, c, d) + x + (uint32_t)(ac);
 1419              		.loc 1 71 0
 1420 03b4 424C     		ldr	r4, .L9+128
 1421 03b6 0D9D     		ldr	r5, [sp, #52]
 1422              	.LBE536:
 1423              	.LBE535:
 1424              	.LBB541:
 1425              	.LBB532:
  65:.\md5.c       **** 		a += b;
 1426              		.loc 1 65 0
 1427 03b8 BB18     		add	r3, r7, r2
 1428              	.LVL152:
 1429              	.LBE532:
 1430              	.LBE541:
 1431              	.LBB542:
 1432              	.LBB537:
  71:.\md5.c       **** 		a += H (b, c, d) + x + (uint32_t)(ac);
 1433              		.loc 1 71 0
 1434 03ba 171C     		mov	r7, r2
 1435 03bc 2E19     		add	r6, r5, r4
 1436 03be 4F40     		eor	r7, r1
 1437 03c0 3018     		add	r0, r6, r0
 1438              	.LVL153:
 1439 03c2 5F40     		eor	r7, r3
 1440              	.LBE537:
 1441              	.LBE542:
 1442              	.LBB543:
 1443              	.LBB544:
 1444 03c4 109E     		ldr	r6, [sp, #64]
 1445              	.LBE544:
 1446              	.LBE543:
 1447              	.LBB550:
 1448              	.LBB538:
ARM GAS  C:\Users\atsu\AppData\Local\Temp\ccFWVBKl.s 			page 34


 1449 03c6 C519     		add	r5, r0, r7
 1450              	.LVL154:
  72:.\md5.c       **** 		a = ROTATE_LEFT (a, s);
 1451              		.loc 1 72 0
 1452 03c8 1C24     		mov	r4, #28
 1453              	.LBE538:
 1454              	.LBE550:
 1455              	.LBB551:
 1456              	.LBB545:
  71:.\md5.c       **** 		a += H (b, c, d) + x + (uint32_t)(ac);
 1457              		.loc 1 71 0
 1458 03ca 3E4F     		ldr	r7, .L9+132
 1459              	.LBE545:
 1460              	.LBE551:
 1461              	.LBB552:
 1462              	.LBB539:
  72:.\md5.c       **** 		a = ROTATE_LEFT (a, s);
 1463              		.loc 1 72 0
 1464 03cc E541     		ror	r5, r5, r4
 1465              	.LVL155:
 1466              	.LBE539:
 1467              	.LBE552:
 1468              	.LBB553:
 1469              	.LBB546:
  71:.\md5.c       **** 		a += H (b, c, d) + x + (uint32_t)(ac);
 1470              		.loc 1 71 0
 1471 03ce 1C1C     		mov	r4, r3
 1472              	.LBE546:
 1473              	.LBE553:
 1474              	.LBB554:
 1475              	.LBB540:
  73:.\md5.c       **** 		a += b;
 1476              		.loc 1 73 0
 1477 03d0 E818     		add	r0, r5, r3
 1478              	.LVL156:
 1479              	.LBE540:
 1480              	.LBE554:
 1481              	.LBB555:
 1482              	.LBB547:
  71:.\md5.c       **** 		a += H (b, c, d) + x + (uint32_t)(ac);
 1483              		.loc 1 71 0
 1484 03d2 5440     		eor	r4, r2
 1485 03d4 F519     		add	r5, r6, r7
 1486 03d6 6918     		add	r1, r5, r1
 1487              	.LVL157:
 1488 03d8 4440     		eor	r4, r0
  72:.\md5.c       **** 		a = ROTATE_LEFT (a, s);
 1489              		.loc 1 72 0
 1490 03da 1527     		mov	r7, #21
 1491              	.LBE547:
 1492              	.LBE555:
 1493              	.LBB556:
 1494              	.LBB557:
  71:.\md5.c       **** 		a += H (b, c, d) + x + (uint32_t)(ac);
 1495              		.loc 1 71 0
 1496 03dc 139D     		ldr	r5, [sp, #76]
 1497              	.LBE557:
ARM GAS  C:\Users\atsu\AppData\Local\Temp\ccFWVBKl.s 			page 35


 1498              	.LBE556:
 1499              	.LBB561:
 1500              	.LBB548:
 1501 03de 0E19     		add	r6, r1, r4
 1502              	.LVL158:
 1503              	.LBE548:
 1504              	.LBE561:
 1505              	.LBB562:
 1506              	.LBB558:
 1507 03e0 394C     		ldr	r4, .L9+136
 1508              	.LBE558:
 1509              	.LBE562:
 1510              	.LBB563:
 1511              	.LBB549:
  72:.\md5.c       **** 		a = ROTATE_LEFT (a, s);
 1512              		.loc 1 72 0
 1513 03e2 FE41     		ror	r6, r6, r7
 1514              	.LVL159:
  73:.\md5.c       **** 		a += b;
 1515              		.loc 1 73 0
 1516 03e4 3118     		add	r1, r6, r0
 1517              	.LVL160:
 1518              	.LBE549:
 1519              	.LBE563:
 1520              	.LBB564:
 1521              	.LBB559:
  71:.\md5.c       **** 		a += H (b, c, d) + x + (uint32_t)(ac);
 1522              		.loc 1 71 0
 1523 03e6 2E19     		add	r6, r5, r4
 1524 03e8 051C     		mov	r5, r0
 1525 03ea 5D40     		eor	r5, r3
 1526 03ec B218     		add	r2, r6, r2
 1527              	.LVL161:
 1528 03ee 4D40     		eor	r5, r1
  72:.\md5.c       **** 		a = ROTATE_LEFT (a, s);
 1529              		.loc 1 72 0
 1530 03f0 1026     		mov	r6, #16
  71:.\md5.c       **** 		a += H (b, c, d) + x + (uint32_t)(ac);
 1531              		.loc 1 71 0
 1532 03f2 5419     		add	r4, r2, r5
 1533              	.LVL162:
  72:.\md5.c       **** 		a = ROTATE_LEFT (a, s);
 1534              		.loc 1 72 0
 1535 03f4 F441     		ror	r4, r4, r6
 1536              	.LVL163:
 1537              	.LBE559:
 1538              	.LBE564:
 1539              	.LBB565:
 1540              	.LBB566:
  71:.\md5.c       **** 		a += H (b, c, d) + x + (uint32_t)(ac);
 1541              		.loc 1 71 0
 1542 03f6 169D     		ldr	r5, [sp, #88]
 1543              	.LBE566:
 1544              	.LBE565:
 1545              	.LBB573:
 1546              	.LBB560:
  73:.\md5.c       **** 		a += b;
ARM GAS  C:\Users\atsu\AppData\Local\Temp\ccFWVBKl.s 			page 36


 1547              		.loc 1 73 0
 1548 03f8 6218     		add	r2, r4, r1
 1549              	.LVL164:
 1550              	.LBE560:
 1551              	.LBE573:
 1552              	.LBB574:
 1553              	.LBB567:
  71:.\md5.c       **** 		a += H (b, c, d) + x + (uint32_t)(ac);
 1554              		.loc 1 71 0
 1555 03fa 344C     		ldr	r4, .L9+140
 1556 03fc AC46     		mov	ip, r5
 1557 03fe A444     		add	ip, ip, r4
 1558              	.LBE567:
 1559              	.LBE574:
 1560              	.LBB575:
 1561              	.LBB576:
 1562 0400 099C     		ldr	r4, [sp, #36]
 1563              	.LBE576:
 1564              	.LBE575:
 1565              	.LBB583:
 1566              	.LBB568:
 1567 0402 0D1C     		mov	r5, r1
 1568 0404 6344     		add	r3, r3, ip
 1569              	.LVL165:
 1570 0406 4540     		eor	r5, r0
 1571              	.LBE568:
 1572              	.LBE583:
 1573              	.LBB584:
 1574              	.LBB577:
 1575 0408 A446     		mov	ip, r4
 1576 040a 314C     		ldr	r4, .L9+144
 1577              	.LBE577:
 1578              	.LBE584:
 1579              	.LBB585:
 1580              	.LBB569:
 1581 040c 5540     		eor	r5, r2
 1582 040e 5B19     		add	r3, r3, r5
 1583              	.LVL166:
 1584              	.LBE569:
 1585              	.LBE585:
 1586              	.LBB586:
 1587              	.LBB578:
 1588 0410 A444     		add	ip, ip, r4
 1589              	.LBE578:
 1590              	.LBE586:
 1591              	.LBB587:
 1592              	.LBB570:
  72:.\md5.c       **** 		a = ROTATE_LEFT (a, s);
 1593              		.loc 1 72 0
 1594 0412 0925     		mov	r5, #9
 1595              	.LBE570:
 1596              	.LBE587:
 1597              	.LBB588:
 1598              	.LBB579:
  71:.\md5.c       **** 		a += H (b, c, d) + x + (uint32_t)(ac);
 1599              		.loc 1 71 0
 1600 0414 8444     		add	ip, ip, r0
ARM GAS  C:\Users\atsu\AppData\Local\Temp\ccFWVBKl.s 			page 37


 1601              	.LBE579:
 1602              	.LBE588:
 1603              	.LBB589:
 1604              	.LBB571:
  72:.\md5.c       **** 		a = ROTATE_LEFT (a, s);
 1605              		.loc 1 72 0
 1606 0416 EB41     		ror	r3, r3, r5
 1607              	.LVL167:
 1608              	.LBE571:
 1609              	.LBE589:
 1610              	.LBB590:
 1611              	.LBB580:
  71:.\md5.c       **** 		a += H (b, c, d) + x + (uint32_t)(ac);
 1612              		.loc 1 71 0
 1613 0418 101C     		mov	r0, r2
 1614              	.LVL168:
 1615              	.LBE580:
 1616              	.LBE590:
 1617              	.LBB591:
 1618              	.LBB572:
  73:.\md5.c       **** 		a += b;
 1619              		.loc 1 73 0
 1620 041a 9B18     		add	r3, r3, r2
 1621              	.LVL169:
 1622              	.LBE572:
 1623              	.LBE591:
 1624              	.LBB592:
 1625              	.LBB581:
  71:.\md5.c       **** 		a += H (b, c, d) + x + (uint32_t)(ac);
 1626              		.loc 1 71 0
 1627 041c 4840     		eor	r0, r1
 1628 041e 5840     		eor	r0, r3
 1629 0420 6044     		add	r0, r0, ip
 1630              	.LVL170:
  72:.\md5.c       **** 		a = ROTATE_LEFT (a, s);
 1631              		.loc 1 72 0
 1632 0422 1C24     		mov	r4, #28
 1633 0424 E041     		ror	r0, r0, r4
 1634              	.LVL171:
 1635              	.LBE581:
 1636              	.LBE592:
 1637              	.LBB593:
 1638              	.LBB594:
  71:.\md5.c       **** 		a += H (b, c, d) + x + (uint32_t)(ac);
 1639              		.loc 1 71 0
 1640 0426 0C9C     		ldr	r4, [sp, #48]
 1641              	.LBE594:
 1642              	.LBE593:
 1643              	.LBB599:
 1644              	.LBB582:
  73:.\md5.c       **** 		a += b;
 1645              		.loc 1 73 0
 1646 0428 C018     		add	r0, r0, r3
 1647              	.LVL172:
 1648              	.LBE582:
 1649              	.LBE599:
 1650              	.LBB600:
ARM GAS  C:\Users\atsu\AppData\Local\Temp\ccFWVBKl.s 			page 38


 1651              	.LBB595:
  71:.\md5.c       **** 		a += H (b, c, d) + x + (uint32_t)(ac);
 1652              		.loc 1 71 0
 1653 042a A446     		mov	ip, r4
 1654 042c 294C     		ldr	r4, .L9+148
 1655 042e A444     		add	ip, ip, r4
 1656 0430 8C44     		add	ip, ip, r1
 1657 0432 191C     		mov	r1, r3
 1658              	.LVL173:
 1659              	.LBE595:
 1660              	.LBE600:
 1661              	.LBB601:
 1662              	.LBB602:
 1663 0434 0F9C     		ldr	r4, [sp, #60]
 1664              	.LBE602:
 1665              	.LBE601:
 1666              	.LBB608:
 1667              	.LBB596:
 1668 0436 5140     		eor	r1, r2
 1669 0438 4140     		eor	r1, r0
 1670 043a 6144     		add	r1, r1, ip
 1671              	.LVL174:
 1672              	.LBE596:
 1673              	.LBE608:
 1674              	.LBB609:
 1675              	.LBB603:
 1676 043c A446     		mov	ip, r4
 1677 043e 4BE0     		b	.L10
 1678              	.L11:
 1679              		.align	2
 1680              	.L9:
 1681 0440 78A46AD7 		.word	-680876936
 1682 0444 56B7C7E8 		.word	-389564586
 1683 0448 DB702024 		.word	606105819
 1684 044c EECEBDC1 		.word	-1044525330
 1685 0450 AF0F7CF5 		.word	-176418897
 1686 0454 2AC68747 		.word	1200080426
 1687 0458 134630A8 		.word	-1473231341
 1688 045c 019546FD 		.word	-45705983
 1689 0460 D8988069 		.word	1770035416
 1690 0464 AFF7448B 		.word	-1958414417
 1691 0468 B15BFFFF 		.word	-42063
 1692 046c BED75C89 		.word	-1990404162
 1693 0470 2211906B 		.word	1804603682
 1694 0474 937198FD 		.word	-40341101
 1695 0478 8E4379A6 		.word	-1502002290
 1696 047c 2108B449 		.word	1236535329
 1697 0480 62251EF6 		.word	-165796510
 1698 0484 40B340C0 		.word	-1069501632
 1699 0488 515A5E26 		.word	643717713
 1700 048c AAC7B6E9 		.word	-373897302
 1701 0490 5D102FD6 		.word	-701558691
 1702 0494 53144402 		.word	38016083
 1703 0498 81E6A1D8 		.word	-660478335
 1704 049c C8FBD3E7 		.word	-405537848
 1705 04a0 E6CDE121 		.word	568446438
 1706 04a4 D60737C3 		.word	-1019803690
ARM GAS  C:\Users\atsu\AppData\Local\Temp\ccFWVBKl.s 			page 39


 1707 04a8 870DD5F4 		.word	-187363961
 1708 04ac ED145A45 		.word	1163531501
 1709 04b0 05E9E3A9 		.word	-1444681467
 1710 04b4 F8A3EFFC 		.word	-51403784
 1711 04b8 D9026F67 		.word	1735328473
 1712 04bc 8A4C2A8D 		.word	-1926607734
 1713 04c0 4239FAFF 		.word	-378558
 1714 04c4 81F67187 		.word	-2022574463
 1715 04c8 22619D6D 		.word	1839030562
 1716 04cc 0C38E5FD 		.word	-35309556
 1717 04d0 44EABEA4 		.word	-1530992060
 1718 04d4 A9CFDE4B 		.word	1272893353
 1719              	.L10:
 1720 04d8 974C     		ldr	r4, .L12
 1721              	.LBE603:
 1722              	.LBE609:
 1723              	.LBB610:
 1724              	.LBB597:
  72:.\md5.c       **** 		a = ROTATE_LEFT (a, s);
 1725              		.loc 1 72 0
 1726 04da F941     		ror	r1, r1, r7
 1727              	.LVL175:
 1728              	.LBE597:
 1729              	.LBE610:
 1730              	.LBB611:
 1731              	.LBB604:
  71:.\md5.c       **** 		a += H (b, c, d) + x + (uint32_t)(ac);
 1732              		.loc 1 71 0
 1733 04dc A444     		add	ip, ip, r4
 1734 04de 9444     		add	ip, ip, r2
 1735 04e0 021C     		mov	r2, r0
 1736              	.LVL176:
 1737              	.LBE604:
 1738              	.LBE611:
 1739              	.LBB612:
 1740              	.LBB598:
  73:.\md5.c       **** 		a += b;
 1741              		.loc 1 73 0
 1742 04e2 0918     		add	r1, r1, r0
 1743              	.LVL177:
 1744              	.LBE598:
 1745              	.LBE612:
 1746              	.LBB613:
 1747              	.LBB614:
  71:.\md5.c       **** 		a += H (b, c, d) + x + (uint32_t)(ac);
 1748              		.loc 1 71 0
 1749 04e4 129C     		ldr	r4, [sp, #72]
 1750              	.LBE614:
 1751              	.LBE613:
 1752              	.LBB620:
 1753              	.LBB605:
 1754 04e6 5A40     		eor	r2, r3
 1755 04e8 4A40     		eor	r2, r1
 1756 04ea 6244     		add	r2, r2, ip
 1757              	.LVL178:
 1758              	.LBE605:
 1759              	.LBE620:
ARM GAS  C:\Users\atsu\AppData\Local\Temp\ccFWVBKl.s 			page 40


 1760              	.LBB621:
 1761              	.LBB615:
 1762 04ec A446     		mov	ip, r4
 1763 04ee 934C     		ldr	r4, .L12+4
 1764              	.LBE615:
 1765              	.LBE621:
 1766              	.LBB622:
 1767              	.LBB606:
  72:.\md5.c       **** 		a = ROTATE_LEFT (a, s);
 1768              		.loc 1 72 0
 1769 04f0 F241     		ror	r2, r2, r6
 1770              	.LVL179:
 1771              	.LBE606:
 1772              	.LBE622:
 1773              	.LBB623:
 1774              	.LBB616:
  71:.\md5.c       **** 		a += H (b, c, d) + x + (uint32_t)(ac);
 1775              		.loc 1 71 0
 1776 04f2 A444     		add	ip, ip, r4
 1777 04f4 9C44     		add	ip, ip, r3
 1778 04f6 0B1C     		mov	r3, r1
 1779              	.LVL180:
 1780              	.LBE616:
 1781              	.LBE623:
 1782              	.LBB624:
 1783              	.LBB607:
  73:.\md5.c       **** 		a += b;
 1784              		.loc 1 73 0
 1785 04f8 5218     		add	r2, r2, r1
 1786              	.LVL181:
 1787              	.LBE607:
 1788              	.LBE624:
 1789              	.LBB625:
 1790              	.LBB626:
  71:.\md5.c       **** 		a += H (b, c, d) + x + (uint32_t)(ac);
 1791              		.loc 1 71 0
 1792 04fa 159C     		ldr	r4, [sp, #84]
 1793              	.LBE626:
 1794              	.LBE625:
 1795              	.LBB631:
 1796              	.LBB617:
 1797 04fc 4340     		eor	r3, r0
 1798 04fe 5340     		eor	r3, r2
 1799 0500 6344     		add	r3, r3, ip
 1800              	.LVL182:
 1801              	.LBE617:
 1802              	.LBE631:
 1803              	.LBB632:
 1804              	.LBB627:
 1805 0502 A446     		mov	ip, r4
 1806 0504 8E4C     		ldr	r4, .L12+8
 1807              	.LBE627:
 1808              	.LBE632:
 1809              	.LBB633:
 1810              	.LBB618:
  72:.\md5.c       **** 		a = ROTATE_LEFT (a, s);
 1811              		.loc 1 72 0
ARM GAS  C:\Users\atsu\AppData\Local\Temp\ccFWVBKl.s 			page 41


 1812 0506 EB41     		ror	r3, r3, r5
 1813              	.LVL183:
 1814              	.LBE618:
 1815              	.LBE633:
 1816              	.LBB634:
 1817              	.LBB628:
  71:.\md5.c       **** 		a += H (b, c, d) + x + (uint32_t)(ac);
 1818              		.loc 1 71 0
 1819 0508 A444     		add	ip, ip, r4
 1820 050a 8444     		add	ip, ip, r0
 1821 050c 101C     		mov	r0, r2
 1822              	.LVL184:
 1823              	.LBE628:
 1824              	.LBE634:
 1825              	.LBB635:
 1826              	.LBB619:
  73:.\md5.c       **** 		a += b;
 1827              		.loc 1 73 0
 1828 050e 9B18     		add	r3, r3, r2
 1829              	.LVL185:
 1830              	.LBE619:
 1831              	.LBE635:
 1832              	.LBB636:
 1833              	.LBB629:
  71:.\md5.c       **** 		a += H (b, c, d) + x + (uint32_t)(ac);
 1834              		.loc 1 71 0
 1835 0510 4840     		eor	r0, r1
 1836 0512 5840     		eor	r0, r3
 1837 0514 6044     		add	r0, r0, ip
 1838              	.LVL186:
  72:.\md5.c       **** 		a = ROTATE_LEFT (a, s);
 1839              		.loc 1 72 0
 1840 0516 1C24     		mov	r4, #28
 1841 0518 E041     		ror	r0, r0, r4
 1842              	.LVL187:
 1843              	.LBE629:
 1844              	.LBE636:
 1845              	.LBB637:
 1846              	.LBB638:
  71:.\md5.c       **** 		a += H (b, c, d) + x + (uint32_t)(ac);
 1847              		.loc 1 71 0
 1848 051a 089C     		ldr	r4, [sp, #32]
 1849              	.LBE638:
 1850              	.LBE637:
 1851              	.LBB643:
 1852              	.LBB630:
  73:.\md5.c       **** 		a += b;
 1853              		.loc 1 73 0
 1854 051c C018     		add	r0, r0, r3
 1855              	.LVL188:
 1856              	.LBE630:
 1857              	.LBE643:
 1858              	.LBB644:
 1859              	.LBB639:
  71:.\md5.c       **** 		a += H (b, c, d) + x + (uint32_t)(ac);
 1860              		.loc 1 71 0
 1861 051e A446     		mov	ip, r4
ARM GAS  C:\Users\atsu\AppData\Local\Temp\ccFWVBKl.s 			page 42


 1862 0520 884C     		ldr	r4, .L12+12
 1863 0522 A444     		add	ip, ip, r4
 1864 0524 8C44     		add	ip, ip, r1
 1865 0526 191C     		mov	r1, r3
 1866              	.LVL189:
 1867              	.LBE639:
 1868              	.LBE644:
 1869              	.LBB645:
 1870              	.LBB646:
 1871 0528 0B9C     		ldr	r4, [sp, #44]
 1872              	.LBE646:
 1873              	.LBE645:
 1874              	.LBB652:
 1875              	.LBB640:
 1876 052a 5140     		eor	r1, r2
 1877 052c 4140     		eor	r1, r0
 1878 052e 6144     		add	r1, r1, ip
 1879              	.LVL190:
 1880              	.LBE640:
 1881              	.LBE652:
 1882              	.LBB653:
 1883              	.LBB647:
 1884 0530 A446     		mov	ip, r4
 1885 0532 854C     		ldr	r4, .L12+16
 1886              	.LBE647:
 1887              	.LBE653:
 1888              	.LBB654:
 1889              	.LBB641:
  72:.\md5.c       **** 		a = ROTATE_LEFT (a, s);
 1890              		.loc 1 72 0
 1891 0534 F941     		ror	r1, r1, r7
 1892              	.LVL191:
 1893              	.LBE641:
 1894              	.LBE654:
 1895              	.LBB655:
 1896              	.LBB648:
  71:.\md5.c       **** 		a += H (b, c, d) + x + (uint32_t)(ac);
 1897              		.loc 1 71 0
 1898 0536 A444     		add	ip, ip, r4
 1899 0538 9444     		add	ip, ip, r2
 1900 053a 021C     		mov	r2, r0
 1901              	.LVL192:
 1902              	.LBE648:
 1903              	.LBE655:
 1904              	.LBB656:
 1905              	.LBB642:
  73:.\md5.c       **** 		a += b;
 1906              		.loc 1 73 0
 1907 053c 0918     		add	r1, r1, r0
 1908              	.LVL193:
 1909              	.LBE642:
 1910              	.LBE656:
 1911              	.LBB657:
 1912              	.LBB658:
  71:.\md5.c       **** 		a += H (b, c, d) + x + (uint32_t)(ac);
 1913              		.loc 1 71 0
 1914 053e 0E9C     		ldr	r4, [sp, #56]
ARM GAS  C:\Users\atsu\AppData\Local\Temp\ccFWVBKl.s 			page 43


 1915              	.LBE658:
 1916              	.LBE657:
 1917              	.LBB664:
 1918              	.LBB649:
 1919 0540 5A40     		eor	r2, r3
 1920 0542 4A40     		eor	r2, r1
 1921 0544 6244     		add	r2, r2, ip
 1922              	.LVL194:
 1923              	.LBE649:
 1924              	.LBE664:
 1925              	.LBB665:
 1926              	.LBB659:
 1927 0546 A446     		mov	ip, r4
 1928 0548 804C     		ldr	r4, .L12+20
 1929              	.LBE659:
 1930              	.LBE665:
 1931              	.LBB666:
 1932              	.LBB650:
  72:.\md5.c       **** 		a = ROTATE_LEFT (a, s);
 1933              		.loc 1 72 0
 1934 054a F241     		ror	r2, r2, r6
 1935              	.LVL195:
 1936              	.LBE650:
 1937              	.LBE666:
 1938              	.LBB667:
 1939              	.LBB660:
  71:.\md5.c       **** 		a += H (b, c, d) + x + (uint32_t)(ac);
 1940              		.loc 1 71 0
 1941 054c A444     		add	ip, ip, r4
 1942 054e 9C44     		add	ip, ip, r3
 1943 0550 0B1C     		mov	r3, r1
 1944              	.LVL196:
 1945              	.LBE660:
 1946              	.LBE667:
 1947              	.LBB668:
 1948              	.LBB651:
  73:.\md5.c       **** 		a += b;
 1949              		.loc 1 73 0
 1950 0552 5218     		add	r2, r2, r1
 1951              	.LVL197:
 1952              	.LBE651:
 1953              	.LBE668:
 1954              	.LBB669:
 1955              	.LBB670:
  71:.\md5.c       **** 		a += H (b, c, d) + x + (uint32_t)(ac);
 1956              		.loc 1 71 0
 1957 0554 119C     		ldr	r4, [sp, #68]
 1958              	.LBE670:
 1959              	.LBE669:
 1960              	.LBB675:
 1961              	.LBB661:
 1962 0556 4340     		eor	r3, r0
 1963 0558 5340     		eor	r3, r2
 1964 055a 6344     		add	r3, r3, ip
 1965              	.LVL198:
 1966              	.LBE661:
 1967              	.LBE675:
ARM GAS  C:\Users\atsu\AppData\Local\Temp\ccFWVBKl.s 			page 44


 1968              	.LBB676:
 1969              	.LBB671:
 1970 055c A446     		mov	ip, r4
 1971 055e 7C4C     		ldr	r4, .L12+24
 1972              	.LBE671:
 1973              	.LBE676:
 1974              	.LBB677:
 1975              	.LBB662:
  72:.\md5.c       **** 		a = ROTATE_LEFT (a, s);
 1976              		.loc 1 72 0
 1977 0560 EB41     		ror	r3, r3, r5
 1978              	.LVL199:
 1979              	.LBE662:
 1980              	.LBE677:
 1981              	.LBB678:
 1982              	.LBB672:
  71:.\md5.c       **** 		a += H (b, c, d) + x + (uint32_t)(ac);
 1983              		.loc 1 71 0
 1984 0562 A444     		add	ip, ip, r4
 1985 0564 8444     		add	ip, ip, r0
 1986 0566 101C     		mov	r0, r2
 1987              	.LVL200:
 1988              	.LBE672:
 1989              	.LBE678:
 1990              	.LBB679:
 1991              	.LBB663:
  73:.\md5.c       **** 		a += b;
 1992              		.loc 1 73 0
 1993 0568 9B18     		add	r3, r3, r2
 1994              	.LVL201:
 1995              	.LBE663:
 1996              	.LBE679:
 1997              	.LBB680:
 1998              	.LBB673:
  71:.\md5.c       **** 		a += H (b, c, d) + x + (uint32_t)(ac);
 1999              		.loc 1 71 0
 2000 056a 4840     		eor	r0, r1
 2001 056c 5840     		eor	r0, r3
 2002 056e 6044     		add	r0, r0, ip
 2003              	.LVL202:
  72:.\md5.c       **** 		a = ROTATE_LEFT (a, s);
 2004              		.loc 1 72 0
 2005 0570 1C24     		mov	r4, #28
 2006 0572 E041     		ror	r0, r0, r4
 2007              	.LVL203:
 2008              	.LBE673:
 2009              	.LBE680:
 2010              	.LBB681:
 2011              	.LBB682:
  71:.\md5.c       **** 		a += H (b, c, d) + x + (uint32_t)(ac);
 2012              		.loc 1 71 0
 2013 0574 149C     		ldr	r4, [sp, #80]
 2014              	.LBE682:
 2015              	.LBE681:
 2016              	.LBB685:
 2017              	.LBB674:
  73:.\md5.c       **** 		a += b;
ARM GAS  C:\Users\atsu\AppData\Local\Temp\ccFWVBKl.s 			page 45


 2018              		.loc 1 73 0
 2019 0576 C018     		add	r0, r0, r3
 2020              	.LVL204:
 2021              	.LBE674:
 2022              	.LBE685:
 2023              	.LBB686:
 2024              	.LBB683:
  71:.\md5.c       **** 		a += H (b, c, d) + x + (uint32_t)(ac);
 2025              		.loc 1 71 0
 2026 0578 A446     		mov	ip, r4
 2027 057a 764C     		ldr	r4, .L12+28
 2028 057c A444     		add	ip, ip, r4
 2029 057e 8C44     		add	ip, ip, r1
 2030 0580 191C     		mov	r1, r3
 2031              	.LVL205:
 2032 0582 5140     		eor	r1, r2
 2033 0584 4140     		eor	r1, r0
 2034 0586 6144     		add	r1, r1, ip
 2035              	.LVL206:
  72:.\md5.c       **** 		a = ROTATE_LEFT (a, s);
 2036              		.loc 1 72 0
 2037 0588 F941     		ror	r1, r1, r7
 2038              	.LVL207:
 2039              	.LBE683:
 2040              	.LBE686:
 2041              	.LBB687:
 2042              	.LBB688:
  71:.\md5.c       **** 		a += H (b, c, d) + x + (uint32_t)(ac);
 2043              		.loc 1 71 0
 2044 058a 179F     		ldr	r7, [sp, #92]
 2045 058c 724C     		ldr	r4, .L12+32
 2046 058e BC46     		mov	ip, r7
 2047 0590 071C     		mov	r7, r0
 2048              	.LBE688:
 2049              	.LBE687:
 2050              	.LBB691:
 2051              	.LBB684:
  73:.\md5.c       **** 		a += b;
 2052              		.loc 1 73 0
 2053 0592 0918     		add	r1, r1, r0
 2054              	.LVL208:
 2055              	.LBE684:
 2056              	.LBE691:
 2057              	.LBB692:
 2058              	.LBB689:
  71:.\md5.c       **** 		a += H (b, c, d) + x + (uint32_t)(ac);
 2059              		.loc 1 71 0
 2060 0594 A444     		add	ip, ip, r4
 2061 0596 5F40     		eor	r7, r3
 2062 0598 4F40     		eor	r7, r1
 2063 059a 6244     		add	r2, r2, ip
 2064              	.LVL209:
 2065 059c D219     		add	r2, r2, r7
 2066              	.LVL210:
  72:.\md5.c       **** 		a = ROTATE_LEFT (a, s);
 2067              		.loc 1 72 0
 2068 059e F241     		ror	r2, r2, r6
ARM GAS  C:\Users\atsu\AppData\Local\Temp\ccFWVBKl.s 			page 46


 2069              	.LVL211:
 2070              	.LBE689:
 2071              	.LBE692:
 2072              	.LBB693:
 2073              	.LBB694:
  71:.\md5.c       **** 		a += H (b, c, d) + x + (uint32_t)(ac);
 2074              		.loc 1 71 0
 2075 05a0 6E4C     		ldr	r4, .L12+36
 2076 05a2 0A9E     		ldr	r6, [sp, #40]
 2077              	.LBE694:
 2078              	.LBE693:
 2079              	.LBB697:
 2080              	.LBB690:
  73:.\md5.c       **** 		a += b;
 2081              		.loc 1 73 0
 2082 05a4 5218     		add	r2, r2, r1
 2083              	.LVL212:
 2084              	.LBE690:
 2085              	.LBE697:
 2086              	.LBB698:
 2087              	.LBB695:
  71:.\md5.c       **** 		a += H (b, c, d) + x + (uint32_t)(ac);
 2088              		.loc 1 71 0
 2089 05a6 3719     		add	r7, r6, r4
 2090 05a8 0E1C     		mov	r6, r1
 2091 05aa 4640     		eor	r6, r0
 2092 05ac FB18     		add	r3, r7, r3
 2093              	.LVL213:
 2094 05ae 5640     		eor	r6, r2
 2095 05b0 9C19     		add	r4, r3, r6
 2096              	.LVL214:
  72:.\md5.c       **** 		a = ROTATE_LEFT (a, s);
 2097              		.loc 1 72 0
 2098 05b2 EC41     		ror	r4, r4, r5
 2099              	.LVL215:
 2100              	.LBE695:
 2101              	.LBE698:
 2102              	.LBB699:
 2103              	.LBB700:
  79:.\md5.c       **** 		a += I (b, c, d) + x + (uint32_t)(ac);
 2104              		.loc 1 79 0
 2105 05b4 6A4F     		ldr	r7, .L12+40
 2106 05b6 089D     		ldr	r5, [sp, #32]
 2107              	.LBE700:
 2108              	.LBE699:
 2109              	.LBB704:
 2110              	.LBB696:
  73:.\md5.c       **** 		a += b;
 2111              		.loc 1 73 0
 2112 05b8 A318     		add	r3, r4, r2
 2113              	.LVL216:
 2114              	.LBE696:
 2115              	.LBE704:
 2116              	.LBB705:
 2117              	.LBB701:
  79:.\md5.c       **** 		a += I (b, c, d) + x + (uint32_t)(ac);
 2118              		.loc 1 79 0
ARM GAS  C:\Users\atsu\AppData\Local\Temp\ccFWVBKl.s 			page 47


 2119 05ba CC43     		mvn	r4, r1
 2120 05bc EE19     		add	r6, r5, r7
 2121 05be 1C43     		orr	r4, r3
 2122 05c0 3018     		add	r0, r6, r0
 2123              	.LVL217:
 2124 05c2 5440     		eor	r4, r2
 2125 05c4 0519     		add	r5, r0, r4
 2126              	.LVL218:
  80:.\md5.c       **** 		a = ROTATE_LEFT (a, s);
 2127              		.loc 1 80 0
 2128 05c6 1A27     		mov	r7, #26
 2129              	.LBE701:
 2130              	.LBE705:
 2131              	.LBB706:
 2132              	.LBB707:
  79:.\md5.c       **** 		a += I (b, c, d) + x + (uint32_t)(ac);
 2133              		.loc 1 79 0
 2134 05c8 0F98     		ldr	r0, [sp, #60]
 2135              	.LBE707:
 2136              	.LBE706:
 2137              	.LBB711:
 2138              	.LBB702:
  80:.\md5.c       **** 		a = ROTATE_LEFT (a, s);
 2139              		.loc 1 80 0
 2140 05ca FD41     		ror	r5, r5, r7
 2141              	.LVL219:
 2142              	.LBE702:
 2143              	.LBE711:
 2144              	.LBB712:
 2145              	.LBB708:
  79:.\md5.c       **** 		a += I (b, c, d) + x + (uint32_t)(ac);
 2146              		.loc 1 79 0
 2147 05cc 654E     		ldr	r6, .L12+44
 2148              	.LBE708:
 2149              	.LBE712:
 2150              	.LBB713:
 2151              	.LBB703:
  81:.\md5.c       **** 		a += b;
 2152              		.loc 1 81 0
 2153 05ce ED18     		add	r5, r5, r3
 2154              	.LVL220:
 2155              	.LBE703:
 2156              	.LBE713:
 2157              	.LBB714:
 2158              	.LBB709:
  79:.\md5.c       **** 		a += I (b, c, d) + x + (uint32_t)(ac);
 2159              		.loc 1 79 0
 2160 05d0 D743     		mvn	r7, r2
 2161 05d2 8419     		add	r4, r0, r6
 2162 05d4 2F43     		orr	r7, r5
 2163 05d6 6118     		add	r1, r4, r1
 2164              	.LVL221:
 2165 05d8 5F40     		eor	r7, r3
  80:.\md5.c       **** 		a = ROTATE_LEFT (a, s);
 2166              		.loc 1 80 0
 2167 05da 1626     		mov	r6, #22
  79:.\md5.c       **** 		a += I (b, c, d) + x + (uint32_t)(ac);
ARM GAS  C:\Users\atsu\AppData\Local\Temp\ccFWVBKl.s 			page 48


 2168              		.loc 1 79 0
 2169 05dc C819     		add	r0, r1, r7
 2170              	.LVL222:
 2171              	.LBE709:
 2172              	.LBE714:
 2173              	.LBB715:
 2174              	.LBB716:
 2175 05de 624C     		ldr	r4, .L12+48
 2176 05e0 1699     		ldr	r1, [sp, #88]
 2177              	.LBE716:
 2178              	.LBE715:
 2179              	.LBB719:
 2180              	.LBB710:
  80:.\md5.c       **** 		a = ROTATE_LEFT (a, s);
 2181              		.loc 1 80 0
 2182 05e2 F041     		ror	r0, r0, r6
 2183              	.LVL223:
  81:.\md5.c       **** 		a += b;
 2184              		.loc 1 81 0
 2185 05e4 4019     		add	r0, r0, r5
 2186              	.LVL224:
 2187              	.LBE710:
 2188              	.LBE719:
 2189              	.LBB720:
 2190              	.LBB717:
  79:.\md5.c       **** 		a += I (b, c, d) + x + (uint32_t)(ac);
 2191              		.loc 1 79 0
 2192 05e6 0F19     		add	r7, r1, r4
 2193 05e8 D943     		mvn	r1, r3
 2194 05ea 0143     		orr	r1, r0
 2195 05ec BA18     		add	r2, r7, r2
 2196              	.LVL225:
 2197 05ee 6940     		eor	r1, r5
  80:.\md5.c       **** 		a = ROTATE_LEFT (a, s);
 2198              		.loc 1 80 0
 2199 05f0 1127     		mov	r7, #17
  79:.\md5.c       **** 		a += I (b, c, d) + x + (uint32_t)(ac);
 2200              		.loc 1 79 0
 2201 05f2 5418     		add	r4, r2, r1
 2202              	.LVL226:
  80:.\md5.c       **** 		a = ROTATE_LEFT (a, s);
 2203              		.loc 1 80 0
 2204 05f4 FC41     		ror	r4, r4, r7
 2205              	.LVL227:
 2206              	.LBE717:
 2207              	.LBE720:
 2208              	.LBB721:
 2209              	.LBB722:
  79:.\md5.c       **** 		a += I (b, c, d) + x + (uint32_t)(ac);
 2210              		.loc 1 79 0
 2211 05f6 0D9A     		ldr	r2, [sp, #52]
 2212              	.LBE722:
 2213              	.LBE721:
 2214              	.LBB725:
 2215              	.LBB718:
  81:.\md5.c       **** 		a += b;
 2216              		.loc 1 81 0
ARM GAS  C:\Users\atsu\AppData\Local\Temp\ccFWVBKl.s 			page 49


 2217 05f8 2118     		add	r1, r4, r0
 2218              	.LVL228:
 2219              	.LBE718:
 2220              	.LBE725:
 2221              	.LBB726:
 2222              	.LBB723:
  79:.\md5.c       **** 		a += I (b, c, d) + x + (uint32_t)(ac);
 2223              		.loc 1 79 0
 2224 05fa 5C4C     		ldr	r4, .L12+52
 2225 05fc 9446     		mov	ip, r2
 2226 05fe EA43     		mvn	r2, r5
 2227 0600 A444     		add	ip, ip, r4
 2228 0602 0A43     		orr	r2, r1
 2229 0604 4240     		eor	r2, r0
 2230 0606 6344     		add	r3, r3, ip
 2231              	.LVL229:
  80:.\md5.c       **** 		a = ROTATE_LEFT (a, s);
 2232              		.loc 1 80 0
 2233 0608 0B24     		mov	r4, #11
  79:.\md5.c       **** 		a += I (b, c, d) + x + (uint32_t)(ac);
 2234              		.loc 1 79 0
 2235 060a 9B18     		add	r3, r3, r2
 2236              	.LVL230:
  80:.\md5.c       **** 		a = ROTATE_LEFT (a, s);
 2237              		.loc 1 80 0
 2238 060c A446     		mov	ip, r4
 2239 060e E341     		ror	r3, r3, r4
 2240              	.LVL231:
 2241              	.LBE723:
 2242              	.LBE726:
 2243              	.LBB727:
 2244              	.LBB728:
  79:.\md5.c       **** 		a += I (b, c, d) + x + (uint32_t)(ac);
 2245              		.loc 1 79 0
 2246 0610 574A     		ldr	r2, .L12+56
 2247 0612 149C     		ldr	r4, [sp, #80]
 2248              	.LBE728:
 2249              	.LBE727:
 2250              	.LBB731:
 2251              	.LBB724:
  81:.\md5.c       **** 		a += b;
 2252              		.loc 1 81 0
 2253 0614 5B18     		add	r3, r3, r1
 2254              	.LVL232:
 2255              	.LBE724:
 2256              	.LBE731:
 2257              	.LBB732:
 2258              	.LBB729:
  79:.\md5.c       **** 		a += I (b, c, d) + x + (uint32_t)(ac);
 2259              		.loc 1 79 0
 2260 0616 A218     		add	r2, r4, r2
 2261 0618 C443     		mvn	r4, r0
 2262 061a 1C43     		orr	r4, r3
 2263 061c 4C40     		eor	r4, r1
 2264 061e 5519     		add	r5, r2, r5
 2265              	.LVL233:
 2266 0620 2A19     		add	r2, r5, r4
ARM GAS  C:\Users\atsu\AppData\Local\Temp\ccFWVBKl.s 			page 50


 2267              	.LVL234:
  80:.\md5.c       **** 		a = ROTATE_LEFT (a, s);
 2268              		.loc 1 80 0
 2269 0622 1A25     		mov	r5, #26
 2270 0624 EA41     		ror	r2, r2, r5
 2271              	.LVL235:
 2272              	.LBE729:
 2273              	.LBE732:
 2274              	.LBB733:
 2275              	.LBB734:
  79:.\md5.c       **** 		a += I (b, c, d) + x + (uint32_t)(ac);
 2276              		.loc 1 79 0
 2277 0626 534C     		ldr	r4, .L12+60
 2278 0628 0B9D     		ldr	r5, [sp, #44]
 2279              	.LBE734:
 2280              	.LBE733:
 2281              	.LBB736:
 2282              	.LBB730:
  81:.\md5.c       **** 		a += b;
 2283              		.loc 1 81 0
 2284 062a D218     		add	r2, r2, r3
 2285              	.LVL236:
 2286              	.LBE730:
 2287              	.LBE736:
 2288              	.LBB737:
 2289              	.LBB735:
  79:.\md5.c       **** 		a += I (b, c, d) + x + (uint32_t)(ac);
 2290              		.loc 1 79 0
 2291 062c 2C19     		add	r4, r5, r4
 2292 062e CD43     		mvn	r5, r1
 2293 0630 1543     		orr	r5, r2
 2294 0632 5D40     		eor	r5, r3
 2295 0634 2018     		add	r0, r4, r0
 2296              	.LVL237:
 2297 0636 4419     		add	r4, r0, r5
 2298              	.LVL238:
  80:.\md5.c       **** 		a = ROTATE_LEFT (a, s);
 2299              		.loc 1 80 0
 2300 0638 F441     		ror	r4, r4, r6
 2301              	.LVL239:
  81:.\md5.c       **** 		a += b;
 2302              		.loc 1 81 0
 2303 063a A018     		add	r0, r4, r2
 2304              	.LVL240:
 2305              	.LBE735:
 2306              	.LBE737:
 2307              	.LBB738:
 2308              	.LBB739:
  79:.\md5.c       **** 		a += I (b, c, d) + x + (uint32_t)(ac);
 2309              		.loc 1 79 0
 2310 063c 129D     		ldr	r5, [sp, #72]
 2311 063e 4E4C     		ldr	r4, .L12+64
 2312 0640 2C19     		add	r4, r5, r4
 2313 0642 DD43     		mvn	r5, r3
 2314 0644 0543     		orr	r5, r0
 2315 0646 5540     		eor	r5, r2
 2316 0648 6118     		add	r1, r4, r1
ARM GAS  C:\Users\atsu\AppData\Local\Temp\ccFWVBKl.s 			page 51


 2317              	.LVL241:
 2318 064a 4C19     		add	r4, r1, r5
 2319              	.LVL242:
  80:.\md5.c       **** 		a = ROTATE_LEFT (a, s);
 2320              		.loc 1 80 0
 2321 064c FC41     		ror	r4, r4, r7
 2322              	.LVL243:
  81:.\md5.c       **** 		a += b;
 2323              		.loc 1 81 0
 2324 064e 2118     		add	r1, r4, r0
 2325              	.LVL244:
 2326              	.LBE739:
 2327              	.LBE738:
 2328              	.LBB740:
 2329              	.LBB741:
  79:.\md5.c       **** 		a += I (b, c, d) + x + (uint32_t)(ac);
 2330              		.loc 1 79 0
 2331 0650 099D     		ldr	r5, [sp, #36]
 2332 0652 4A4C     		ldr	r4, .L12+68
 2333 0654 2C19     		add	r4, r5, r4
 2334 0656 D543     		mvn	r5, r2
 2335 0658 0D43     		orr	r5, r1
 2336 065a 4540     		eor	r5, r0
 2337 065c E318     		add	r3, r4, r3
 2338              	.LVL245:
 2339 065e 5C19     		add	r4, r3, r5
 2340              	.LVL246:
  80:.\md5.c       **** 		a = ROTATE_LEFT (a, s);
 2341              		.loc 1 80 0
 2342 0660 6346     		mov	r3, ip
 2343 0662 DC41     		ror	r4, r4, r3
 2344              	.LVL247:
  81:.\md5.c       **** 		a += b;
 2345              		.loc 1 81 0
 2346 0664 6318     		add	r3, r4, r1
 2347              	.LVL248:
 2348              	.LBE741:
 2349              	.LBE740:
 2350              	.LBB742:
 2351              	.LBB743:
  79:.\md5.c       **** 		a += I (b, c, d) + x + (uint32_t)(ac);
 2352              		.loc 1 79 0
 2353 0666 464D     		ldr	r5, .L12+72
 2354 0668 109C     		ldr	r4, [sp, #64]
 2355 066a 6519     		add	r5, r4, r5
 2356 066c C443     		mvn	r4, r0
 2357 066e 1C43     		orr	r4, r3
 2358 0670 4C40     		eor	r4, r1
 2359 0672 AA18     		add	r2, r5, r2
 2360              	.LVL249:
 2361 0674 1519     		add	r5, r2, r4
 2362              	.LVL250:
  80:.\md5.c       **** 		a = ROTATE_LEFT (a, s);
 2363              		.loc 1 80 0
 2364 0676 1A22     		mov	r2, #26
 2365 0678 D541     		ror	r5, r5, r2
 2366              	.LVL251:
ARM GAS  C:\Users\atsu\AppData\Local\Temp\ccFWVBKl.s 			page 52


  81:.\md5.c       **** 		a += b;
 2367              		.loc 1 81 0
 2368 067a EA18     		add	r2, r5, r3
 2369              	.LVL252:
 2370              	.LBE743:
 2371              	.LBE742:
 2372              	.LBB744:
 2373              	.LBB745:
  79:.\md5.c       **** 		a += I (b, c, d) + x + (uint32_t)(ac);
 2374              		.loc 1 79 0
 2375 067c 414C     		ldr	r4, .L12+76
 2376 067e 179D     		ldr	r5, [sp, #92]
 2377 0680 2C19     		add	r4, r5, r4
 2378 0682 CD43     		mvn	r5, r1
 2379 0684 1543     		orr	r5, r2
 2380 0686 5D40     		eor	r5, r3
 2381 0688 2018     		add	r0, r4, r0
 2382              	.LVL253:
 2383 068a 4419     		add	r4, r0, r5
 2384              	.LVL254:
  80:.\md5.c       **** 		a = ROTATE_LEFT (a, s);
 2385              		.loc 1 80 0
 2386 068c F441     		ror	r4, r4, r6
 2387              	.LVL255:
  81:.\md5.c       **** 		a += b;
 2388              		.loc 1 81 0
 2389 068e A018     		add	r0, r4, r2
 2390              	.LVL256:
 2391              	.LBE745:
 2392              	.LBE744:
 2393              	.LBB746:
 2394              	.LBB747:
  79:.\md5.c       **** 		a += I (b, c, d) + x + (uint32_t)(ac);
 2395              		.loc 1 79 0
 2396 0690 0E9D     		ldr	r5, [sp, #56]
 2397 0692 3D4C     		ldr	r4, .L12+80
 2398 0694 2C19     		add	r4, r5, r4
 2399 0696 DD43     		mvn	r5, r3
 2400 0698 0543     		orr	r5, r0
 2401 069a 5540     		eor	r5, r2
 2402 069c 6118     		add	r1, r4, r1
 2403              	.LVL257:
 2404 069e 4C19     		add	r4, r1, r5
 2405              	.LVL258:
  80:.\md5.c       **** 		a = ROTATE_LEFT (a, s);
 2406              		.loc 1 80 0
 2407 06a0 FC41     		ror	r4, r4, r7
 2408              	.LVL259:
  81:.\md5.c       **** 		a += b;
 2409              		.loc 1 81 0
 2410 06a2 2118     		add	r1, r4, r0
 2411              	.LVL260:
 2412              	.LBE747:
 2413              	.LBE746:
 2414              	.LBB748:
 2415              	.LBB749:
  79:.\md5.c       **** 		a += I (b, c, d) + x + (uint32_t)(ac);
ARM GAS  C:\Users\atsu\AppData\Local\Temp\ccFWVBKl.s 			page 53


 2416              		.loc 1 79 0
 2417 06a4 159D     		ldr	r5, [sp, #84]
 2418 06a6 394C     		ldr	r4, .L12+84
 2419 06a8 2C19     		add	r4, r5, r4
 2420 06aa D543     		mvn	r5, r2
 2421 06ac 0D43     		orr	r5, r1
 2422 06ae 4540     		eor	r5, r0
 2423 06b0 E318     		add	r3, r4, r3
 2424              	.LVL261:
 2425 06b2 5C19     		add	r4, r3, r5
 2426              	.LVL262:
  80:.\md5.c       **** 		a = ROTATE_LEFT (a, s);
 2427              		.loc 1 80 0
 2428 06b4 6346     		mov	r3, ip
 2429 06b6 DC41     		ror	r4, r4, r3
 2430              	.LVL263:
  81:.\md5.c       **** 		a += b;
 2431              		.loc 1 81 0
 2432 06b8 6318     		add	r3, r4, r1
 2433              	.LVL264:
 2434              	.LBE749:
 2435              	.LBE748:
 2436              	.LBB750:
 2437              	.LBB751:
  79:.\md5.c       **** 		a += I (b, c, d) + x + (uint32_t)(ac);
 2438              		.loc 1 79 0
 2439 06ba 354D     		ldr	r5, .L12+88
 2440 06bc 0C9C     		ldr	r4, [sp, #48]
 2441 06be 6519     		add	r5, r4, r5
 2442 06c0 C443     		mvn	r4, r0
 2443 06c2 1C43     		orr	r4, r3
 2444 06c4 4C40     		eor	r4, r1
 2445 06c6 AA18     		add	r2, r5, r2
 2446              	.LVL265:
 2447 06c8 1519     		add	r5, r2, r4
 2448              	.LVL266:
  80:.\md5.c       **** 		a = ROTATE_LEFT (a, s);
 2449              		.loc 1 80 0
 2450 06ca 1A22     		mov	r2, #26
 2451 06cc D541     		ror	r5, r5, r2
 2452              	.LVL267:
  81:.\md5.c       **** 		a += b;
 2453              		.loc 1 81 0
 2454 06ce EA18     		add	r2, r5, r3
 2455              	.LVL268:
 2456              	.LBE751:
 2457              	.LBE750:
 2458              	.LBB752:
 2459              	.LBB753:
  79:.\md5.c       **** 		a += I (b, c, d) + x + (uint32_t)(ac);
 2460              		.loc 1 79 0
 2461 06d0 304C     		ldr	r4, .L12+92
 2462 06d2 139D     		ldr	r5, [sp, #76]
 2463 06d4 2C19     		add	r4, r5, r4
 2464 06d6 CD43     		mvn	r5, r1
 2465 06d8 1543     		orr	r5, r2
 2466 06da 5D40     		eor	r5, r3
ARM GAS  C:\Users\atsu\AppData\Local\Temp\ccFWVBKl.s 			page 54


 2467 06dc 2018     		add	r0, r4, r0
 2468              	.LVL269:
 2469 06de 4419     		add	r4, r0, r5
 2470              	.LVL270:
  80:.\md5.c       **** 		a = ROTATE_LEFT (a, s);
 2471              		.loc 1 80 0
 2472 06e0 F441     		ror	r4, r4, r6
 2473              	.LVL271:
 2474              	.LBE753:
 2475              	.LBE752:
 2476              	.LBB755:
 2477              	.LBB756:
  79:.\md5.c       **** 		a += I (b, c, d) + x + (uint32_t)(ac);
 2478              		.loc 1 79 0
 2479 06e2 0A9D     		ldr	r5, [sp, #40]
 2480 06e4 2C4E     		ldr	r6, .L12+96
 2481              	.LBE756:
 2482              	.LBE755:
 2483              	.LBB759:
 2484              	.LBB754:
  81:.\md5.c       **** 		a += b;
 2485              		.loc 1 81 0
 2486 06e6 A018     		add	r0, r4, r2
 2487              	.LVL272:
 2488              	.LBE754:
 2489              	.LBE759:
 2490              	.LBB760:
 2491              	.LBB757:
  79:.\md5.c       **** 		a += I (b, c, d) + x + (uint32_t)(ac);
 2492              		.loc 1 79 0
 2493 06e8 AC19     		add	r4, r5, r6
 2494 06ea DD43     		mvn	r5, r3
 2495 06ec 0543     		orr	r5, r0
 2496 06ee 6118     		add	r1, r4, r1
 2497              	.LVL273:
 2498 06f0 5540     		eor	r5, r2
 2499 06f2 4E19     		add	r6, r1, r5
 2500              	.LVL274:
  80:.\md5.c       **** 		a = ROTATE_LEFT (a, s);
 2501              		.loc 1 80 0
 2502 06f4 FE41     		ror	r6, r6, r7
 2503              	.LVL275:
 2504              	.LBE757:
 2505              	.LBE760:
 2506              	.LBB761:
 2507              	.LBB762:
  79:.\md5.c       **** 		a += I (b, c, d) + x + (uint32_t)(ac);
 2508              		.loc 1 79 0
 2509 06f6 294C     		ldr	r4, .L12+100
 2510 06f8 119F     		ldr	r7, [sp, #68]
 2511              	.LBE762:
 2512              	.LBE761:
 2513              	.LBB768:
 2514              	.LBB758:
  81:.\md5.c       **** 		a += b;
 2515              		.loc 1 81 0
 2516 06fa 3118     		add	r1, r6, r0
ARM GAS  C:\Users\atsu\AppData\Local\Temp\ccFWVBKl.s 			page 55


 2517              	.LVL276:
 2518              	.LBE758:
 2519              	.LBE768:
 2520              	.LBB769:
 2521              	.LBB763:
  79:.\md5.c       **** 		a += I (b, c, d) + x + (uint32_t)(ac);
 2522              		.loc 1 79 0
 2523 06fc 3D19     		add	r5, r7, r4
 2524              	.LBE763:
 2525              	.LBE769:
 245:.\md5.c       **** 	state[0] += a;
 2526              		.loc 1 245 0
 2527 06fe 079F     		ldr	r7, [sp, #28]
 2528              	.LBB770:
 2529              	.LBB764:
  79:.\md5.c       **** 		a += I (b, c, d) + x + (uint32_t)(ac);
 2530              		.loc 1 79 0
 2531 0700 D643     		mvn	r6, r2
 2532              	.LBE764:
 2533              	.LBE770:
 245:.\md5.c       **** 	state[0] += a;
 2534              		.loc 1 245 0
 2535 0702 D219     		add	r2, r2, r7
 2536              	.LVL277:
 2537 0704 029F     		ldr	r7, [sp, #8]
 2538              	.LBB771:
 2539              	.LBB765:
  79:.\md5.c       **** 		a += I (b, c, d) + x + (uint32_t)(ac);
 2540              		.loc 1 79 0
 2541 0706 0E43     		orr	r6, r1
 2542              	.LVL278:
 2543              	.LBE765:
 2544              	.LBE771:
 245:.\md5.c       **** 	state[0] += a;
 2545              		.loc 1 245 0
 2546 0708 3A60     		str	r2, [r7]
 2547              	.LBB772:
 2548              	.LBB766:
  79:.\md5.c       **** 		a += I (b, c, d) + x + (uint32_t)(ac);
 2549              		.loc 1 79 0
 2550 070a 4640     		eor	r6, r0
  81:.\md5.c       **** 		a += b;
 2551              		.loc 1 81 0
 2552 070c 039C     		ldr	r4, [sp, #12]
  79:.\md5.c       **** 		a += I (b, c, d) + x + (uint32_t)(ac);
 2553              		.loc 1 79 0
 2554 070e EB18     		add	r3, r5, r3
 2555              	.LVL279:
 2556              	.LBE766:
 2557              	.LBE772:
 247:.\md5.c       **** 	state[2] += c;
 2558              		.loc 1 247 0
 2559 0710 059A     		ldr	r2, [sp, #20]
 2560              	.LBB773:
 2561              	.LBB767:
  80:.\md5.c       **** 		a = ROTATE_LEFT (a, s);
 2562              		.loc 1 80 0
ARM GAS  C:\Users\atsu\AppData\Local\Temp\ccFWVBKl.s 			page 56


 2563 0712 6546     		mov	r5, ip
  79:.\md5.c       **** 		a += I (b, c, d) + x + (uint32_t)(ac);
 2564              		.loc 1 79 0
 2565 0714 9B19     		add	r3, r3, r6
 2566              	.LVL280:
  80:.\md5.c       **** 		a = ROTATE_LEFT (a, s);
 2567              		.loc 1 80 0
 2568 0716 EB41     		ror	r3, r3, r5
 2569              	.LVL281:
  81:.\md5.c       **** 		a += b;
 2570              		.loc 1 81 0
 2571 0718 0E19     		add	r6, r1, r4
 2572              	.LBE767:
 2573              	.LBE773:
 246:.\md5.c       **** 	state[1] += b;
 2574              		.loc 1 246 0
 2575 071a F318     		add	r3, r6, r3
 247:.\md5.c       **** 	state[2] += c;
 2576              		.loc 1 247 0
 2577 071c 8918     		add	r1, r1, r2
 2578              	.LVL282:
 246:.\md5.c       **** 	state[1] += b;
 2579              		.loc 1 246 0
 2580 071e 7B60     		str	r3, [r7, #4]
 247:.\md5.c       **** 	state[2] += c;
 2581              		.loc 1 247 0
 2582 0720 B960     		str	r1, [r7, #8]
 248:.\md5.c       **** 	state[3] += d;
 2583              		.loc 1 248 0
 2584 0722 069F     		ldr	r7, [sp, #24]
 2585 0724 029C     		ldr	r4, [sp, #8]
 2586 0726 C019     		add	r0, r0, r7
 2587              	.LVL283:
 2588 0728 E060     		str	r0, [r4, #12]
 251:.\md5.c       **** 	memset(&x,0,sizeof(x));
 2589              		.loc 1 251 0
 2590 072a 0021     		mov	r1, #0
 2591 072c 08A8     		add	r0, sp, #32
 2592              	.LVL284:
 2593 072e 049A     		ldr	r2, [sp, #16]
 2594 0730 FFF7FEFF 		bl	memset
 2595              	.LVL285:
 252:.\md5.c       **** }
 2596              		.loc 1 252 0
 2597 0734 19B0     		add	sp, sp, #100
 2598              		@ sp needed for prologue
 2599 0736 F0BD     		pop	{r4, r5, r6, r7, pc}
 2600              	.L13:
 2601              		.align	2
 2602              	.L12:
 2603 0738 604BBBF6 		.word	-155497632
 2604 073c 70BCBFBE 		.word	-1094730640
 2605 0740 C67E9B28 		.word	681279174
 2606 0744 FA27A1EA 		.word	-358537222
 2607 0748 8530EFD4 		.word	-722521979
 2608 074c 051D8804 		.word	76029189
 2609 0750 39D0D4D9 		.word	-640364487
ARM GAS  C:\Users\atsu\AppData\Local\Temp\ccFWVBKl.s 			page 57


 2610 0754 E599DBE6 		.word	-421815835
 2611 0758 F87CA21F 		.word	530742520
 2612 075c 6556ACC4 		.word	-995338651
 2613 0760 442229F4 		.word	-198630844
 2614 0764 97FF2A43 		.word	1126891415
 2615 0768 A72394AB 		.word	-1416354905
 2616 076c 39A093FC 		.word	-57434055
 2617 0770 C3595B65 		.word	1700485571
 2618 0774 92CC0C8F 		.word	-1894986606
 2619 0778 7DF4EFFF 		.word	-1051523
 2620 077c D15D8485 		.word	-2054922799
 2621 0780 4F7EA86F 		.word	1873313359
 2622 0784 E0E62CFE 		.word	-30611744
 2623 0788 144301A3 		.word	-1560198380
 2624 078c A111084E 		.word	1309151649
 2625 0790 827E53F7 		.word	-145523070
 2626 0794 35F23ABD 		.word	-1120210379
 2627 0798 BBD2D72A 		.word	718787259
 2628 079c 91D386EB 		.word	-343485551
 2629              		.cfi_endproc
 2630              	.LFE7:
 2631              		.size	md5_transform, .-md5_transform
 2632              		.section	.text.FF,"ax",%progbits
 2633              		.align	1
 2634              		.global	FF
 2635              		.code	16
 2636              		.thumb_func
 2637              		.type	FF, %function
 2638              	FF:
 2639              	.LFB0:
  55:.\md5.c       **** 	{
 2640              		.loc 1 55 0
 2641              		.cfi_startproc
 2642              	.LVL286:
 2643 0000 30B5     		push	{r4, r5, lr}
 2644              	.LCFI3:
 2645              		.cfi_def_cfa_offset 12
 2646              		.cfi_offset 4, -12
 2647              		.cfi_offset 5, -8
 2648              		.cfi_offset 14, -4
  56:.\md5.c       **** 		a += F (b, c, d) + x + (uint32_t)(ac);
 2649              		.loc 1 56 0
 2650 0002 039D     		ldr	r5, [sp, #12]
 2651 0004 0A40     		and	r2, r1
 2652              	.LVL287:
 2653 0006 2C18     		add	r4, r5, r0
 2654 0008 181C     		mov	r0, r3
 2655              	.LVL288:
 2656 000a 8843     		bic	r0, r1
  57:.\md5.c       **** 		a = ROTATE_LEFT (a, s);
 2657              		.loc 1 57 0
 2658 000c 049D     		ldr	r5, [sp, #16]
  56:.\md5.c       **** 		a += F (b, c, d) + x + (uint32_t)(ac);
 2659              		.loc 1 56 0
 2660 000e 0243     		orr	r2, r0
 2661 0010 059B     		ldr	r3, [sp, #20]
 2662              	.LVL289:
ARM GAS  C:\Users\atsu\AppData\Local\Temp\ccFWVBKl.s 			page 58


 2663 0012 A218     		add	r2, r4, r2
  57:.\md5.c       **** 		a = ROTATE_LEFT (a, s);
 2664              		.loc 1 57 0
 2665 0014 2024     		mov	r4, #32
  56:.\md5.c       **** 		a += F (b, c, d) + x + (uint32_t)(ac);
 2666              		.loc 1 56 0
 2667 0016 D018     		add	r0, r2, r3
 2668              	.LVL290:
  57:.\md5.c       **** 		a = ROTATE_LEFT (a, s);
 2669              		.loc 1 57 0
 2670 0018 621B     		sub	r2, r4, r5
 2671 001a D041     		ror	r0, r0, r2
 2672              	.LVL291:
  58:.\md5.c       **** 		a += b;
 2673              		.loc 1 58 0
 2674 001c 4018     		add	r0, r0, r1
 2675              	.LVL292:
  60:.\md5.c       **** 	}
 2676              		.loc 1 60 0
 2677              		@ sp needed for prologue
 2678 001e 30BD     		pop	{r4, r5, pc}
 2679              		.cfi_endproc
 2680              	.LFE0:
 2681              		.size	FF, .-FF
 2682              		.section	.text.GG,"ax",%progbits
 2683              		.align	1
 2684              		.global	GG
 2685              		.code	16
 2686              		.thumb_func
 2687              		.type	GG, %function
 2688              	GG:
 2689              	.LFB1:
  62:.\md5.c       **** 	{
 2690              		.loc 1 62 0
 2691              		.cfi_startproc
 2692              	.LVL293:
 2693 0000 30B5     		push	{r4, r5, lr}
 2694              	.LCFI4:
 2695              		.cfi_def_cfa_offset 12
 2696              		.cfi_offset 4, -12
 2697              		.cfi_offset 5, -8
 2698              		.cfi_offset 14, -4
  63:.\md5.c       **** 		a += G (b, c, d) + x + (uint32_t)(ac);
 2699              		.loc 1 63 0
 2700 0002 039D     		ldr	r5, [sp, #12]
 2701 0004 9A43     		bic	r2, r3
 2702              	.LVL294:
 2703 0006 0B40     		and	r3, r1
 2704              	.LVL295:
 2705 0008 2C18     		add	r4, r5, r0
 2706 000a 1343     		orr	r3, r2
 2707 000c E018     		add	r0, r4, r3
 2708              	.LVL296:
  64:.\md5.c       **** 		a = ROTATE_LEFT (a, s);
 2709              		.loc 1 64 0
 2710 000e 049D     		ldr	r5, [sp, #16]
  63:.\md5.c       **** 		a += G (b, c, d) + x + (uint32_t)(ac);
ARM GAS  C:\Users\atsu\AppData\Local\Temp\ccFWVBKl.s 			page 59


 2711              		.loc 1 63 0
 2712 0010 059B     		ldr	r3, [sp, #20]
  64:.\md5.c       **** 		a = ROTATE_LEFT (a, s);
 2713              		.loc 1 64 0
 2714 0012 2024     		mov	r4, #32
  63:.\md5.c       **** 		a += G (b, c, d) + x + (uint32_t)(ac);
 2715              		.loc 1 63 0
 2716 0014 C218     		add	r2, r0, r3
 2717              	.LVL297:
  64:.\md5.c       **** 		a = ROTATE_LEFT (a, s);
 2718              		.loc 1 64 0
 2719 0016 601B     		sub	r0, r4, r5
 2720 0018 C241     		ror	r2, r2, r0
 2721              	.LVL298:
  65:.\md5.c       **** 		a += b;
 2722              		.loc 1 65 0
 2723 001a 5018     		add	r0, r2, r1
 2724              	.LVL299:
  67:.\md5.c       **** 	}
 2725              		.loc 1 67 0
 2726              		@ sp needed for prologue
 2727 001c 30BD     		pop	{r4, r5, pc}
 2728              		.cfi_endproc
 2729              	.LFE1:
 2730              		.size	GG, .-GG
 2731              		.section	.text.HH,"ax",%progbits
 2732              		.align	1
 2733              		.global	HH
 2734              		.code	16
 2735              		.thumb_func
 2736              		.type	HH, %function
 2737              	HH:
 2738              	.LFB2:
  70:.\md5.c       **** 	{
 2739              		.loc 1 70 0
 2740              		.cfi_startproc
 2741              	.LVL300:
  71:.\md5.c       **** 		a += H (b, c, d) + x + (uint32_t)(ac);
 2742              		.loc 1 71 0
 2743 0000 4A40     		eor	r2, r1
 2744              	.LVL301:
 2745 0002 5340     		eor	r3, r2
 2746              	.LVL302:
 2747 0004 009A     		ldr	r2, [sp]
  75:.\md5.c       **** 	}
 2748              		.loc 1 75 0
 2749              		@ sp needed for prologue
  71:.\md5.c       **** 		a += H (b, c, d) + x + (uint32_t)(ac);
 2750              		.loc 1 71 0
 2751 0006 9B18     		add	r3, r3, r2
 2752 0008 029A     		ldr	r2, [sp, #8]
 2753 000a 1818     		add	r0, r3, r0
 2754              	.LVL303:
 2755 000c 8018     		add	r0, r0, r2
 2756              	.LVL304:
  72:.\md5.c       **** 		a = ROTATE_LEFT (a, s);
 2757              		.loc 1 72 0
ARM GAS  C:\Users\atsu\AppData\Local\Temp\ccFWVBKl.s 			page 60


 2758 000e 019A     		ldr	r2, [sp, #4]
 2759 0010 2023     		mov	r3, #32
 2760 0012 9B1A     		sub	r3, r3, r2
 2761 0014 D841     		ror	r0, r0, r3
 2762              	.LVL305:
  73:.\md5.c       **** 		a += b;
 2763              		.loc 1 73 0
 2764 0016 4018     		add	r0, r0, r1
 2765              	.LVL306:
  75:.\md5.c       **** 	}
 2766              		.loc 1 75 0
 2767 0018 7047     		bx	lr
 2768              		.cfi_endproc
 2769              	.LFE2:
 2770              		.size	HH, .-HH
 2771              		.section	.text.II,"ax",%progbits
 2772              		.align	1
 2773              		.global	II
 2774              		.code	16
 2775              		.thumb_func
 2776              		.type	II, %function
 2777              	II:
 2778              	.LFB3:
  78:.\md5.c       **** 	{
 2779              		.loc 1 78 0
 2780              		.cfi_startproc
 2781              	.LVL307:
 2782 0000 30B5     		push	{r4, r5, lr}
 2783              	.LCFI5:
 2784              		.cfi_def_cfa_offset 12
 2785              		.cfi_offset 4, -12
 2786              		.cfi_offset 5, -8
 2787              		.cfi_offset 14, -4
  79:.\md5.c       **** 		a += I (b, c, d) + x + (uint32_t)(ac);
 2788              		.loc 1 79 0
 2789 0002 039D     		ldr	r5, [sp, #12]
  83:.\md5.c       **** 	}
 2790              		.loc 1 83 0
 2791              		@ sp needed for prologue
  79:.\md5.c       **** 		a += I (b, c, d) + x + (uint32_t)(ac);
 2792              		.loc 1 79 0
 2793 0004 2C18     		add	r4, r5, r0
 2794 0006 D843     		mvn	r0, r3
 2795              	.LVL308:
 2796 0008 0843     		orr	r0, r1
 2797 000a 4240     		eor	r2, r0
 2798              	.LVL309:
 2799 000c A318     		add	r3, r4, r2
 2800              	.LVL310:
 2801 000e 059A     		ldr	r2, [sp, #20]
  80:.\md5.c       **** 		a = ROTATE_LEFT (a, s);
 2802              		.loc 1 80 0
 2803 0010 049C     		ldr	r4, [sp, #16]
 2804 0012 2020     		mov	r0, #32
  79:.\md5.c       **** 		a += I (b, c, d) + x + (uint32_t)(ac);
 2805              		.loc 1 79 0
 2806 0014 9D18     		add	r5, r3, r2
ARM GAS  C:\Users\atsu\AppData\Local\Temp\ccFWVBKl.s 			page 61


 2807              	.LVL311:
  80:.\md5.c       **** 		a = ROTATE_LEFT (a, s);
 2808              		.loc 1 80 0
 2809 0016 031B     		sub	r3, r0, r4
 2810 0018 DD41     		ror	r5, r5, r3
 2811              	.LVL312:
  81:.\md5.c       **** 		a += b;
 2812              		.loc 1 81 0
 2813 001a 6818     		add	r0, r5, r1
 2814              	.LVL313:
  83:.\md5.c       **** 	}
 2815              		.loc 1 83 0
 2816 001c 30BD     		pop	{r4, r5, pc}
 2817              		.cfi_endproc
 2818              	.LFE3:
 2819              		.size	II, .-II
 2820              		.section	.text.md5_init,"ax",%progbits
 2821              		.align	1
 2822              		.global	md5_init
 2823              		.code	16
 2824              		.thumb_func
 2825              		.type	md5_init, %function
 2826              	md5_init:
 2827              	.LFB4:
  89:.\md5.c       **** {
 2828              		.loc 1 89 0
 2829              		.cfi_startproc
 2830              	.LVL314:
  93:.\md5.c       **** 	context->state[0] = 0x67452301;
 2831              		.loc 1 93 0
 2832 0000 0549     		ldr	r1, .L19
  90:.\md5.c       **** 	context->count[0] = context->count[1] = 0;
 2833              		.loc 1 90 0
 2834 0002 0023     		mov	r3, #0
 2835 0004 4361     		str	r3, [r0, #20]
 2836 0006 0361     		str	r3, [r0, #16]
  93:.\md5.c       **** 	context->state[0] = 0x67452301;
 2837              		.loc 1 93 0
 2838 0008 0160     		str	r1, [r0]
  94:.\md5.c       **** 	context->state[1] = 0xefcdab89;
 2839              		.loc 1 94 0
 2840 000a 044A     		ldr	r2, .L19+4
  95:.\md5.c       **** 	context->state[2] = 0x98badcfe;
 2841              		.loc 1 95 0
 2842 000c 044B     		ldr	r3, .L19+8
  96:.\md5.c       **** 	context->state[3] = 0x10325476;
 2843              		.loc 1 96 0
 2844 000e 0549     		ldr	r1, .L19+12
  94:.\md5.c       **** 	context->state[1] = 0xefcdab89;
 2845              		.loc 1 94 0
 2846 0010 4260     		str	r2, [r0, #4]
  95:.\md5.c       **** 	context->state[2] = 0x98badcfe;
 2847              		.loc 1 95 0
 2848 0012 8360     		str	r3, [r0, #8]
  96:.\md5.c       **** 	context->state[3] = 0x10325476;
 2849              		.loc 1 96 0
 2850 0014 C160     		str	r1, [r0, #12]
ARM GAS  C:\Users\atsu\AppData\Local\Temp\ccFWVBKl.s 			page 62


  97:.\md5.c       **** }
 2851              		.loc 1 97 0
 2852              		@ sp needed for prologue
 2853 0016 7047     		bx	lr
 2854              	.L20:
 2855              		.align	2
 2856              	.L19:
 2857 0018 01234567 		.word	1732584193
 2858 001c 89ABCDEF 		.word	-271733879
 2859 0020 FEDCBA98 		.word	-1732584194
 2860 0024 76543210 		.word	271733878
 2861              		.cfi_endproc
 2862              	.LFE4:
 2863              		.size	md5_init, .-md5_init
 2864              		.section	.text.md5_update,"ax",%progbits
 2865              		.align	1
 2866              		.global	md5_update
 2867              		.code	16
 2868              		.thumb_func
 2869              		.type	md5_update, %function
 2870              	md5_update:
 2871              	.LFB5:
 104:.\md5.c       **** {
 2872              		.loc 1 104 0
 2873              		.cfi_startproc
 2874              	.LVL315:
 108:.\md5.c       **** 	index = (uint32_t)((context->count[0] >> 3) & 0x3F);
 2875              		.loc 1 108 0
 2876 0000 0369     		ldr	r3, [r0, #16]
 104:.\md5.c       **** {
 2877              		.loc 1 104 0
 2878 0002 F7B5     		push	{r0, r1, r2, r4, r5, r6, r7, lr}
 2879              	.LCFI6:
 2880              		.cfi_def_cfa_offset 32
 2881              		.cfi_offset 0, -32
 2882              		.cfi_offset 1, -28
 2883              		.cfi_offset 2, -24
 2884              		.cfi_offset 4, -20
 2885              		.cfi_offset 5, -16
 2886              		.cfi_offset 6, -12
 2887              		.cfi_offset 7, -8
 2888              		.cfi_offset 14, -4
 104:.\md5.c       **** {
 2889              		.loc 1 104 0
 2890 0004 161C     		mov	r6, r2
 111:.\md5.c       **** 	if ((context->count[0] += ((uint32_t)inputLen << 3)) < ((uint32_t)inputLen << 3))
 2891              		.loc 1 111 0
 2892 0006 D200     		lsl	r2, r2, #3
 2893              	.LVL316:
 104:.\md5.c       **** {
 2894              		.loc 1 104 0
 2895 0008 041C     		mov	r4, r0
 2896 000a 0F1C     		mov	r7, r1
 108:.\md5.c       **** 	index = (uint32_t)((context->count[0] >> 3) & 0x3F);
 2897              		.loc 1 108 0
 2898 000c D805     		lsl	r0, r3, #23
 2899              	.LVL317:
ARM GAS  C:\Users\atsu\AppData\Local\Temp\ccFWVBKl.s 			page 63


 111:.\md5.c       **** 	if ((context->count[0] += ((uint32_t)inputLen << 3)) < ((uint32_t)inputLen << 3))
 2900              		.loc 1 111 0
 2901 000e D118     		add	r1, r2, r3
 2902              	.LVL318:
 108:.\md5.c       **** 	index = (uint32_t)((context->count[0] >> 3) & 0x3F);
 2903              		.loc 1 108 0
 2904 0010 800E     		lsr	r0, r0, #26
 2905              	.LVL319:
 111:.\md5.c       **** 	if ((context->count[0] += ((uint32_t)inputLen << 3)) < ((uint32_t)inputLen << 3))
 2906              		.loc 1 111 0
 2907 0012 2161     		str	r1, [r4, #16]
 2908 0014 9142     		cmp	r1, r2
 2909 0016 02D2     		bcs	.L22
 112:.\md5.c       **** 		context->count[1]++;
 2910              		.loc 1 112 0
 2911 0018 6569     		ldr	r5, [r4, #20]
 2912 001a 0135     		add	r5, r5, #1
 2913 001c 6561     		str	r5, [r4, #20]
 2914              	.L22:
 113:.\md5.c       **** 	context->count[1] += ((uint32_t)inputLen >> 29);
 2915              		.loc 1 113 0
 2916 001e 6269     		ldr	r2, [r4, #20]
 2917 0020 730F     		lsr	r3, r6, #29
 115:.\md5.c       **** 	partLen = 64 - index;
 2918              		.loc 1 115 0
 2919 0022 4025     		mov	r5, #64
 113:.\md5.c       **** 	context->count[1] += ((uint32_t)inputLen >> 29);
 2920              		.loc 1 113 0
 2921 0024 D118     		add	r1, r2, r3
 115:.\md5.c       **** 	partLen = 64 - index;
 2922              		.loc 1 115 0
 2923 0026 2B1A     		sub	r3, r5, r0
 113:.\md5.c       **** 	context->count[1] += ((uint32_t)inputLen >> 29);
 2924              		.loc 1 113 0
 2925 0028 6161     		str	r1, [r4, #20]
 115:.\md5.c       **** 	partLen = 64 - index;
 2926              		.loc 1 115 0
 2927 002a 0193     		str	r3, [sp, #4]
 2928              	.LVL320:
 128:.\md5.c       **** 		i = 0;
 2929              		.loc 1 128 0
 2930 002c 0025     		mov	r5, #0
 118:.\md5.c       **** 	if (inputLen >= partLen)
 2931              		.loc 1 118 0
 2932 002e 9E42     		cmp	r6, r3
 2933 0030 16D3     		bcc	.L23
 120:.\md5.c       **** 		memcpy(&context->buffer[index], input, partLen);
 2934              		.loc 1 120 0
 2935 0032 1830     		add	r0, r0, #24
 2936              	.LVL321:
 2937 0034 391C     		mov	r1, r7
 2938 0036 1A1C     		mov	r2, r3
 2939 0038 2018     		add	r0, r4, r0
 2940              	.LVL322:
 2941 003a FFF7FEFF 		bl	memcpy
 2942              	.LVL323:
 121:.\md5.c       **** 		md5_transform(context->state, context->buffer);
ARM GAS  C:\Users\atsu\AppData\Local\Temp\ccFWVBKl.s 			page 64


 2943              		.loc 1 121 0
 2944 003e 211C     		mov	r1, r4
 2945 0040 1831     		add	r1, r1, #24
 2946 0042 201C     		mov	r0, r4
 2947 0044 FFF7FEFF 		bl	md5_transform
 2948              	.LVL324:
 123:.\md5.c       **** 		for (i = partLen; i + 63 < inputLen; i += 64)
 2949              		.loc 1 123 0
 2950 0048 019D     		ldr	r5, [sp, #4]
 2951              	.LVL325:
 2952              	.L24:
 123:.\md5.c       **** 		for (i = partLen; i + 63 < inputLen; i += 64)
 2953              		.loc 1 123 0 is_stmt 0 discriminator 1
 2954 004a 281C     		mov	r0, r5
 2955 004c 3F30     		add	r0, r0, #63
 2956 004e B042     		cmp	r0, r6
 2957 0050 05D2     		bcs	.L27
 2958              	.L25:
 103:.\md5.c       **** void md5_update(md5_ctx * context, uint8_t *input, uint32_t inputLen)
 2959              		.loc 1 103 0 is_stmt 1 discriminator 2
 2960 0052 7919     		add	r1, r7, r5
 124:.\md5.c       **** 			md5_transform(context->state, &input[i]);
 2961              		.loc 1 124 0 discriminator 2
 2962 0054 201C     		mov	r0, r4
 2963 0056 FFF7FEFF 		bl	md5_transform
 2964              	.LVL326:
 123:.\md5.c       **** 		for (i = partLen; i + 63 < inputLen; i += 64)
 2965              		.loc 1 123 0 discriminator 2
 2966 005a 4035     		add	r5, r5, #64
 2967              	.LVL327:
 2968 005c F5E7     		b	.L24
 2969              	.L27:
 125:.\md5.c       **** 		index = 0;
 2970              		.loc 1 125 0
 2971 005e 0020     		mov	r0, #0
 2972              	.LVL328:
 2973              	.L23:
 131:.\md5.c       **** 	memcpy(&context->buffer[index], &input[i], inputLen - i);
 2974              		.loc 1 131 0
 2975 0060 1830     		add	r0, r0, #24
 2976              	.LVL329:
 2977 0062 721B     		sub	r2, r6, r5
 2978 0064 7919     		add	r1, r7, r5
 2979 0066 2018     		add	r0, r4, r0
 2980              	.LVL330:
 2981 0068 FFF7FEFF 		bl	memcpy
 2982              	.LVL331:
 132:.\md5.c       **** }
 2983              		.loc 1 132 0
 2984              		@ sp needed for prologue
 2985              	.LVL332:
 2986              	.LVL333:
 2987              	.LVL334:
 2988              	.LVL335:
 2989 006c F7BD     		pop	{r0, r1, r2, r4, r5, r6, r7, pc}
 2990              		.cfi_endproc
 2991              	.LFE5:
ARM GAS  C:\Users\atsu\AppData\Local\Temp\ccFWVBKl.s 			page 65


 2992              		.size	md5_update, .-md5_update
 2993              		.section	.text.md5_final,"ax",%progbits
 2994              		.align	1
 2995              		.global	md5_final
 2996              		.code	16
 2997              		.thumb_func
 2998              		.type	md5_final, %function
 2999              	md5_final:
 3000              	.LFB6:
 139:.\md5.c       **** {
 3001              		.loc 1 139 0
 3002              		.cfi_startproc
 3003              	.LVL336:
 3004 0000 37B5     		push	{r0, r1, r2, r4, r5, lr}
 3005              	.LCFI7:
 3006              		.cfi_def_cfa_offset 24
 3007              		.cfi_offset 0, -24
 3008              		.cfi_offset 1, -20
 3009              		.cfi_offset 2, -16
 3010              		.cfi_offset 4, -12
 3011              		.cfi_offset 5, -8
 3012              		.cfi_offset 14, -4
 139:.\md5.c       **** {
 3013              		.loc 1 139 0
 3014 0002 0C1C     		mov	r4, r1
 144:.\md5.c       **** 	md5_encode(bits, context->count, 8);
 3015              		.loc 1 144 0
 3016 0004 0822     		mov	r2, #8
 3017 0006 1031     		add	r1, r1, #16
 3018              	.LVL337:
 139:.\md5.c       **** {
 3019              		.loc 1 139 0
 3020 0008 051C     		mov	r5, r0
 144:.\md5.c       **** 	md5_encode(bits, context->count, 8);
 3021              		.loc 1 144 0
 3022 000a 6846     		mov	r0, sp
 3023              	.LVL338:
 3024 000c FFF7FEFF 		bl	md5_encode
 3025              	.LVL339:
 147:.\md5.c       **** 	index  = (uint32_t)((context->count[0] >> 3) & 0x3f);
 3026              		.loc 1 147 0
 3027 0010 2269     		ldr	r2, [r4, #16]
 148:.\md5.c       **** 	padLen = (index < 56) ? (56 - index) : (120 - index);
 3028              		.loc 1 148 0
 3029 0012 3821     		mov	r1, #56
 147:.\md5.c       **** 	index  = (uint32_t)((context->count[0] >> 3) & 0x3f);
 3030              		.loc 1 147 0
 3031 0014 D305     		lsl	r3, r2, #23
 3032 0016 980E     		lsr	r0, r3, #26
 3033              	.LVL340:
 148:.\md5.c       **** 	padLen = (index < 56) ? (56 - index) : (120 - index);
 3034              		.loc 1 148 0
 3035 0018 3728     		cmp	r0, #55
 3036 001a 00D9     		bls	.L31
 148:.\md5.c       **** 	padLen = (index < 56) ? (56 - index) : (120 - index);
 3037              		.loc 1 148 0 is_stmt 0 discriminator 2
 3038 001c 7821     		mov	r1, #120
ARM GAS  C:\Users\atsu\AppData\Local\Temp\ccFWVBKl.s 			page 66


 3039              	.L31:
 3040 001e 0A1A     		sub	r2, r1, r0
 3041              	.LVL341:
 149:.\md5.c       **** 	md5_update(context, padding, padLen);
 3042              		.loc 1 149 0 is_stmt 1 discriminator 2
 3043 0020 201C     		mov	r0, r4
 3044              	.LVL342:
 3045 0022 0949     		ldr	r1, .L32
 3046 0024 FFF7FEFF 		bl	md5_update
 3047              	.LVL343:
 152:.\md5.c       **** 	md5_update(context, bits, 8);
 3048              		.loc 1 152 0 discriminator 2
 3049 0028 201C     		mov	r0, r4
 3050 002a 6946     		mov	r1, sp
 3051 002c 0822     		mov	r2, #8
 3052 002e FFF7FEFF 		bl	md5_update
 3053              	.LVL344:
 154:.\md5.c       **** 	md5_encode(digest, context->state, 16);
 3054              		.loc 1 154 0 discriminator 2
 3055 0032 281C     		mov	r0, r5
 3056 0034 211C     		mov	r1, r4
 3057 0036 1022     		mov	r2, #16
 3058 0038 FFF7FEFF 		bl	md5_encode
 3059              	.LVL345:
 157:.\md5.c       **** 	memset((void*)context,0,sizeof(*context));
 3060              		.loc 1 157 0 discriminator 2
 3061 003c 201C     		mov	r0, r4
 3062 003e 0021     		mov	r1, #0
 3063 0040 5822     		mov	r2, #88
 3064 0042 FFF7FEFF 		bl	memset
 3065              	.LVL346:
 158:.\md5.c       **** }
 3066              		.loc 1 158 0 discriminator 2
 3067              		@ sp needed for prologue
 3068              	.LVL347:
 3069              	.LVL348:
 3070 0046 37BD     		pop	{r0, r1, r2, r4, r5, pc}
 3071              	.L33:
 3072              		.align	2
 3073              	.L32:
 3074 0048 00000000 		.word	.LANCHOR0
 3075              		.cfi_endproc
 3076              	.LFE6:
 3077              		.size	md5_final, .-md5_final
 3078              		.data
 3079              		.set	.LANCHOR0,. + 0
 3080              		.type	padding, %object
 3081              		.size	padding, 64
 3082              	padding:
 3083 0000 80       		.byte	-128
 3084 0001 00       		.byte	0
 3085 0002 00       		.byte	0
 3086 0003 00       		.byte	0
 3087 0004 00       		.byte	0
 3088 0005 00       		.byte	0
 3089 0006 00       		.byte	0
 3090 0007 00       		.byte	0
ARM GAS  C:\Users\atsu\AppData\Local\Temp\ccFWVBKl.s 			page 67


 3091 0008 00       		.byte	0
 3092 0009 00       		.byte	0
 3093 000a 00       		.byte	0
 3094 000b 00       		.byte	0
 3095 000c 00       		.byte	0
 3096 000d 00       		.byte	0
 3097 000e 00       		.byte	0
 3098 000f 00       		.byte	0
 3099 0010 00       		.byte	0
 3100 0011 00       		.byte	0
 3101 0012 00       		.byte	0
 3102 0013 00       		.byte	0
 3103 0014 00       		.byte	0
 3104 0015 00       		.byte	0
 3105 0016 00       		.byte	0
 3106 0017 00       		.byte	0
 3107 0018 00       		.byte	0
 3108 0019 00       		.byte	0
 3109 001a 00       		.byte	0
 3110 001b 00       		.byte	0
 3111 001c 00       		.byte	0
 3112 001d 00       		.byte	0
 3113 001e 00       		.byte	0
 3114 001f 00       		.byte	0
 3115 0020 00       		.byte	0
 3116 0021 00       		.byte	0
 3117 0022 00       		.byte	0
 3118 0023 00       		.byte	0
 3119 0024 00       		.byte	0
 3120 0025 00       		.byte	0
 3121 0026 00       		.byte	0
 3122 0027 00       		.byte	0
 3123 0028 00       		.byte	0
 3124 0029 00       		.byte	0
 3125 002a 00       		.byte	0
 3126 002b 00       		.byte	0
 3127 002c 00       		.byte	0
 3128 002d 00       		.byte	0
 3129 002e 00       		.byte	0
 3130 002f 00       		.byte	0
 3131 0030 00       		.byte	0
 3132 0031 00       		.byte	0
 3133 0032 00       		.byte	0
 3134 0033 00       		.byte	0
 3135 0034 00       		.byte	0
 3136 0035 00       		.byte	0
 3137 0036 00       		.byte	0
 3138 0037 00       		.byte	0
 3139 0038 00       		.byte	0
 3140 0039 00       		.byte	0
 3141 003a 00       		.byte	0
 3142 003b 00       		.byte	0
 3143 003c 00       		.byte	0
 3144 003d 00       		.byte	0
 3145 003e 00       		.byte	0
 3146 003f 00       		.byte	0
 3147              		.text
ARM GAS  C:\Users\atsu\AppData\Local\Temp\ccFWVBKl.s 			page 68


 3148              	.Letext0:
 3149              		.file 2 "c:\\program files (x86)\\cypress\\psoc creator\\3.0\\psoc creator\\import\\gnu_cs\\arm\\4
 3150              		.file 3 ".\\md5.h"
 3151              		.section	.debug_info,"",%progbits
 3152              	.Ldebug_info0:
 3153 0000 D51B0000 		.4byte	0x1bd5
 3154 0004 0200     		.2byte	0x2
 3155 0006 00000000 		.4byte	.Ldebug_abbrev0
 3156 000a 04       		.byte	0x4
 3157 000b 01       		.uleb128 0x1
 3158 000c 89010000 		.4byte	.LASF37
 3159 0010 01       		.byte	0x1
 3160 0011 32010000 		.4byte	.LASF38
 3161 0015 9B000000 		.4byte	.LASF39
 3162 0019 80090000 		.4byte	.Ldebug_ranges0+0x980
 3163 001d 00000000 		.4byte	0
 3164 0021 00000000 		.4byte	0
 3165 0025 00000000 		.4byte	.Ldebug_line0
 3166 0029 02       		.uleb128 0x2
 3167 002a 01       		.byte	0x1
 3168 002b 06       		.byte	0x6
 3169 002c ED010000 		.4byte	.LASF0
 3170 0030 02       		.uleb128 0x2
 3171 0031 01       		.byte	0x1
 3172 0032 08       		.byte	0x8
 3173 0033 49000000 		.4byte	.LASF1
 3174 0037 02       		.uleb128 0x2
 3175 0038 02       		.byte	0x2
 3176 0039 05       		.byte	0x5
 3177 003a 78010000 		.4byte	.LASF2
 3178 003e 02       		.uleb128 0x2
 3179 003f 02       		.byte	0x2
 3180 0040 07       		.byte	0x7
 3181 0041 6F000000 		.4byte	.LASF3
 3182 0045 03       		.uleb128 0x3
 3183 0046 04       		.byte	0x4
 3184 0047 05       		.byte	0x5
 3185 0048 696E7400 		.ascii	"int\000"
 3186 004c 02       		.uleb128 0x2
 3187 004d 04       		.byte	0x4
 3188 004e 07       		.byte	0x7
 3189 004f FE000000 		.4byte	.LASF4
 3190 0053 02       		.uleb128 0x2
 3191 0054 08       		.byte	0x8
 3192 0055 05       		.byte	0x5
 3193 0056 53010000 		.4byte	.LASF5
 3194 005a 02       		.uleb128 0x2
 3195 005b 08       		.byte	0x8
 3196 005c 07       		.byte	0x7
 3197 005d 0B010000 		.4byte	.LASF6
 3198 0061 02       		.uleb128 0x2
 3199 0062 04       		.byte	0x4
 3200 0063 05       		.byte	0x5
 3201 0064 DF010000 		.4byte	.LASF7
 3202 0068 02       		.uleb128 0x2
 3203 0069 04       		.byte	0x4
 3204 006a 07       		.byte	0x7
ARM GAS  C:\Users\atsu\AppData\Local\Temp\ccFWVBKl.s 			page 69


 3205 006b 42010000 		.4byte	.LASF8
 3206 006f 04       		.uleb128 0x4
 3207 0070 04       		.byte	0x4
 3208 0071 02       		.uleb128 0x2
 3209 0072 04       		.byte	0x4
 3210 0073 07       		.byte	0x7
 3211 0074 5D000000 		.4byte	.LASF9
 3212 0078 02       		.uleb128 0x2
 3213 0079 01       		.byte	0x1
 3214 007a 08       		.byte	0x8
 3215 007b E8010000 		.4byte	.LASF10
 3216 007f 05       		.uleb128 0x5
 3217 0080 22010000 		.4byte	.LASF11
 3218 0084 02       		.byte	0x2
 3219 0085 2A       		.byte	0x2a
 3220 0086 30000000 		.4byte	0x30
 3221 008a 05       		.uleb128 0x5
 3222 008b 82000000 		.4byte	.LASF12
 3223 008f 02       		.byte	0x2
 3224 0090 50       		.byte	0x50
 3225 0091 71000000 		.4byte	0x71
 3226 0095 02       		.uleb128 0x2
 3227 0096 04       		.byte	0x4
 3228 0097 04       		.byte	0x4
 3229 0098 3D000000 		.4byte	.LASF13
 3230 009c 02       		.uleb128 0x2
 3231 009d 08       		.byte	0x8
 3232 009e 04       		.byte	0x4
 3233 009f 94000000 		.4byte	.LASF14
 3234 00a3 06       		.uleb128 0x6
 3235 00a4 58       		.byte	0x58
 3236 00a5 03       		.byte	0x3
 3237 00a6 0C       		.byte	0xc
 3238 00a7 D6000000 		.4byte	0xd6
 3239 00ab 07       		.uleb128 0x7
 3240 00ac 0E000000 		.4byte	.LASF15
 3241 00b0 03       		.byte	0x3
 3242 00b1 0D       		.byte	0xd
 3243 00b2 D6000000 		.4byte	0xd6
 3244 00b6 02       		.byte	0x2
 3245 00b7 23       		.byte	0x23
 3246 00b8 00       		.uleb128 0
 3247 00b9 07       		.uleb128 0x7
 3248 00ba 1B000000 		.4byte	.LASF16
 3249 00be 03       		.byte	0x3
 3250 00bf 0E       		.byte	0xe
 3251 00c0 E6000000 		.4byte	0xe6
 3252 00c4 02       		.byte	0x2
 3253 00c5 23       		.byte	0x23
 3254 00c6 10       		.uleb128 0x10
 3255 00c7 07       		.uleb128 0x7
 3256 00c8 14000000 		.4byte	.LASF17
 3257 00cc 03       		.byte	0x3
 3258 00cd 0F       		.byte	0xf
 3259 00ce F6000000 		.4byte	0xf6
 3260 00d2 02       		.byte	0x2
 3261 00d3 23       		.byte	0x23
ARM GAS  C:\Users\atsu\AppData\Local\Temp\ccFWVBKl.s 			page 70


 3262 00d4 18       		.uleb128 0x18
 3263 00d5 00       		.byte	0
 3264 00d6 08       		.uleb128 0x8
 3265 00d7 8A000000 		.4byte	0x8a
 3266 00db E6000000 		.4byte	0xe6
 3267 00df 09       		.uleb128 0x9
 3268 00e0 68000000 		.4byte	0x68
 3269 00e4 03       		.byte	0x3
 3270 00e5 00       		.byte	0
 3271 00e6 08       		.uleb128 0x8
 3272 00e7 8A000000 		.4byte	0x8a
 3273 00eb F6000000 		.4byte	0xf6
 3274 00ef 09       		.uleb128 0x9
 3275 00f0 68000000 		.4byte	0x68
 3276 00f4 01       		.byte	0x1
 3277 00f5 00       		.byte	0
 3278 00f6 08       		.uleb128 0x8
 3279 00f7 7F000000 		.4byte	0x7f
 3280 00fb 06010000 		.4byte	0x106
 3281 00ff 09       		.uleb128 0x9
 3282 0100 68000000 		.4byte	0x68
 3283 0104 3F       		.byte	0x3f
 3284 0105 00       		.byte	0
 3285 0106 05       		.uleb128 0x5
 3286 0107 00020000 		.4byte	.LASF18
 3287 010b 03       		.byte	0x3
 3288 010c 10       		.byte	0x10
 3289 010d A3000000 		.4byte	0xa3
 3290 0111 0A       		.uleb128 0xa
 3291 0112 01       		.byte	0x1
 3292 0113 464600   		.ascii	"FF\000"
 3293 0116 01       		.byte	0x1
 3294 0117 36       		.byte	0x36
 3295 0118 01       		.byte	0x1
 3296 0119 8A000000 		.4byte	0x8a
 3297 011d 01       		.byte	0x1
 3298 011e 63010000 		.4byte	0x163
 3299 0122 0B       		.uleb128 0xb
 3300 0123 6100     		.ascii	"a\000"
 3301 0125 01       		.byte	0x1
 3302 0126 36       		.byte	0x36
 3303 0127 8A000000 		.4byte	0x8a
 3304 012b 0B       		.uleb128 0xb
 3305 012c 6200     		.ascii	"b\000"
 3306 012e 01       		.byte	0x1
 3307 012f 36       		.byte	0x36
 3308 0130 8A000000 		.4byte	0x8a
 3309 0134 0B       		.uleb128 0xb
 3310 0135 6300     		.ascii	"c\000"
 3311 0137 01       		.byte	0x1
 3312 0138 36       		.byte	0x36
 3313 0139 8A000000 		.4byte	0x8a
 3314 013d 0B       		.uleb128 0xb
 3315 013e 6400     		.ascii	"d\000"
 3316 0140 01       		.byte	0x1
 3317 0141 36       		.byte	0x36
 3318 0142 8A000000 		.4byte	0x8a
ARM GAS  C:\Users\atsu\AppData\Local\Temp\ccFWVBKl.s 			page 71


 3319 0146 0B       		.uleb128 0xb
 3320 0147 7800     		.ascii	"x\000"
 3321 0149 01       		.byte	0x1
 3322 014a 36       		.byte	0x36
 3323 014b 8A000000 		.4byte	0x8a
 3324 014f 0B       		.uleb128 0xb
 3325 0150 7300     		.ascii	"s\000"
 3326 0152 01       		.byte	0x1
 3327 0153 36       		.byte	0x36
 3328 0154 8A000000 		.4byte	0x8a
 3329 0158 0B       		.uleb128 0xb
 3330 0159 616300   		.ascii	"ac\000"
 3331 015c 01       		.byte	0x1
 3332 015d 36       		.byte	0x36
 3333 015e 8A000000 		.4byte	0x8a
 3334 0162 00       		.byte	0
 3335 0163 0A       		.uleb128 0xa
 3336 0164 01       		.byte	0x1
 3337 0165 474700   		.ascii	"GG\000"
 3338 0168 01       		.byte	0x1
 3339 0169 3D       		.byte	0x3d
 3340 016a 01       		.byte	0x1
 3341 016b 8A000000 		.4byte	0x8a
 3342 016f 01       		.byte	0x1
 3343 0170 B5010000 		.4byte	0x1b5
 3344 0174 0B       		.uleb128 0xb
 3345 0175 6100     		.ascii	"a\000"
 3346 0177 01       		.byte	0x1
 3347 0178 3D       		.byte	0x3d
 3348 0179 8A000000 		.4byte	0x8a
 3349 017d 0B       		.uleb128 0xb
 3350 017e 6200     		.ascii	"b\000"
 3351 0180 01       		.byte	0x1
 3352 0181 3D       		.byte	0x3d
 3353 0182 8A000000 		.4byte	0x8a
 3354 0186 0B       		.uleb128 0xb
 3355 0187 6300     		.ascii	"c\000"
 3356 0189 01       		.byte	0x1
 3357 018a 3D       		.byte	0x3d
 3358 018b 8A000000 		.4byte	0x8a
 3359 018f 0B       		.uleb128 0xb
 3360 0190 6400     		.ascii	"d\000"
 3361 0192 01       		.byte	0x1
 3362 0193 3D       		.byte	0x3d
 3363 0194 8A000000 		.4byte	0x8a
 3364 0198 0B       		.uleb128 0xb
 3365 0199 7800     		.ascii	"x\000"
 3366 019b 01       		.byte	0x1
 3367 019c 3D       		.byte	0x3d
 3368 019d 8A000000 		.4byte	0x8a
 3369 01a1 0B       		.uleb128 0xb
 3370 01a2 7300     		.ascii	"s\000"
 3371 01a4 01       		.byte	0x1
 3372 01a5 3D       		.byte	0x3d
 3373 01a6 8A000000 		.4byte	0x8a
 3374 01aa 0B       		.uleb128 0xb
 3375 01ab 616300   		.ascii	"ac\000"
ARM GAS  C:\Users\atsu\AppData\Local\Temp\ccFWVBKl.s 			page 72


 3376 01ae 01       		.byte	0x1
 3377 01af 3D       		.byte	0x3d
 3378 01b0 8A000000 		.4byte	0x8a
 3379 01b4 00       		.byte	0
 3380 01b5 0A       		.uleb128 0xa
 3381 01b6 01       		.byte	0x1
 3382 01b7 484800   		.ascii	"HH\000"
 3383 01ba 01       		.byte	0x1
 3384 01bb 45       		.byte	0x45
 3385 01bc 01       		.byte	0x1
 3386 01bd 8A000000 		.4byte	0x8a
 3387 01c1 01       		.byte	0x1
 3388 01c2 07020000 		.4byte	0x207
 3389 01c6 0B       		.uleb128 0xb
 3390 01c7 6100     		.ascii	"a\000"
 3391 01c9 01       		.byte	0x1
 3392 01ca 45       		.byte	0x45
 3393 01cb 8A000000 		.4byte	0x8a
 3394 01cf 0B       		.uleb128 0xb
 3395 01d0 6200     		.ascii	"b\000"
 3396 01d2 01       		.byte	0x1
 3397 01d3 45       		.byte	0x45
 3398 01d4 8A000000 		.4byte	0x8a
 3399 01d8 0B       		.uleb128 0xb
 3400 01d9 6300     		.ascii	"c\000"
 3401 01db 01       		.byte	0x1
 3402 01dc 45       		.byte	0x45
 3403 01dd 8A000000 		.4byte	0x8a
 3404 01e1 0B       		.uleb128 0xb
 3405 01e2 6400     		.ascii	"d\000"
 3406 01e4 01       		.byte	0x1
 3407 01e5 45       		.byte	0x45
 3408 01e6 8A000000 		.4byte	0x8a
 3409 01ea 0B       		.uleb128 0xb
 3410 01eb 7800     		.ascii	"x\000"
 3411 01ed 01       		.byte	0x1
 3412 01ee 45       		.byte	0x45
 3413 01ef 8A000000 		.4byte	0x8a
 3414 01f3 0B       		.uleb128 0xb
 3415 01f4 7300     		.ascii	"s\000"
 3416 01f6 01       		.byte	0x1
 3417 01f7 45       		.byte	0x45
 3418 01f8 8A000000 		.4byte	0x8a
 3419 01fc 0B       		.uleb128 0xb
 3420 01fd 616300   		.ascii	"ac\000"
 3421 0200 01       		.byte	0x1
 3422 0201 45       		.byte	0x45
 3423 0202 8A000000 		.4byte	0x8a
 3424 0206 00       		.byte	0
 3425 0207 0A       		.uleb128 0xa
 3426 0208 01       		.byte	0x1
 3427 0209 494900   		.ascii	"II\000"
 3428 020c 01       		.byte	0x1
 3429 020d 4D       		.byte	0x4d
 3430 020e 01       		.byte	0x1
 3431 020f 8A000000 		.4byte	0x8a
 3432 0213 01       		.byte	0x1
ARM GAS  C:\Users\atsu\AppData\Local\Temp\ccFWVBKl.s 			page 73


 3433 0214 59020000 		.4byte	0x259
 3434 0218 0B       		.uleb128 0xb
 3435 0219 6100     		.ascii	"a\000"
 3436 021b 01       		.byte	0x1
 3437 021c 4D       		.byte	0x4d
 3438 021d 8A000000 		.4byte	0x8a
 3439 0221 0B       		.uleb128 0xb
 3440 0222 6200     		.ascii	"b\000"
 3441 0224 01       		.byte	0x1
 3442 0225 4D       		.byte	0x4d
 3443 0226 8A000000 		.4byte	0x8a
 3444 022a 0B       		.uleb128 0xb
 3445 022b 6300     		.ascii	"c\000"
 3446 022d 01       		.byte	0x1
 3447 022e 4D       		.byte	0x4d
 3448 022f 8A000000 		.4byte	0x8a
 3449 0233 0B       		.uleb128 0xb
 3450 0234 6400     		.ascii	"d\000"
 3451 0236 01       		.byte	0x1
 3452 0237 4D       		.byte	0x4d
 3453 0238 8A000000 		.4byte	0x8a
 3454 023c 0B       		.uleb128 0xb
 3455 023d 7800     		.ascii	"x\000"
 3456 023f 01       		.byte	0x1
 3457 0240 4D       		.byte	0x4d
 3458 0241 8A000000 		.4byte	0x8a
 3459 0245 0B       		.uleb128 0xb
 3460 0246 7300     		.ascii	"s\000"
 3461 0248 01       		.byte	0x1
 3462 0249 4D       		.byte	0x4d
 3463 024a 8A000000 		.4byte	0x8a
 3464 024e 0B       		.uleb128 0xb
 3465 024f 616300   		.ascii	"ac\000"
 3466 0252 01       		.byte	0x1
 3467 0253 4D       		.byte	0x4d
 3468 0254 8A000000 		.4byte	0x8a
 3469 0258 00       		.byte	0
 3470 0259 0C       		.uleb128 0xc
 3471 025a 68010000 		.4byte	.LASF40
 3472 025e 01       		.byte	0x1
 3473 025f 1101     		.2byte	0x111
 3474 0261 01       		.byte	0x1
 3475 0262 01       		.byte	0x1
 3476 0263 A0020000 		.4byte	0x2a0
 3477 0267 0D       		.uleb128 0xd
 3478 0268 82010000 		.4byte	.LASF19
 3479 026c 01       		.byte	0x1
 3480 026d 1101     		.2byte	0x111
 3481 026f A0020000 		.4byte	0x2a0
 3482 0273 0D       		.uleb128 0xd
 3483 0274 57000000 		.4byte	.LASF20
 3484 0278 01       		.byte	0x1
 3485 0279 1101     		.2byte	0x111
 3486 027b A6020000 		.4byte	0x2a6
 3487 027f 0E       		.uleb128 0xe
 3488 0280 6C656E00 		.ascii	"len\000"
 3489 0284 01       		.byte	0x1
ARM GAS  C:\Users\atsu\AppData\Local\Temp\ccFWVBKl.s 			page 74


 3490 0285 1101     		.2byte	0x111
 3491 0287 8A000000 		.4byte	0x8a
 3492 028b 0F       		.uleb128 0xf
 3493 028c 6900     		.ascii	"i\000"
 3494 028e 01       		.byte	0x1
 3495 028f 1301     		.2byte	0x113
 3496 0291 8A000000 		.4byte	0x8a
 3497 0295 0F       		.uleb128 0xf
 3498 0296 6A00     		.ascii	"j\000"
 3499 0298 01       		.byte	0x1
 3500 0299 1301     		.2byte	0x113
 3501 029b 8A000000 		.4byte	0x8a
 3502 029f 00       		.byte	0
 3503 02a0 10       		.uleb128 0x10
 3504 02a1 04       		.byte	0x4
 3505 02a2 8A000000 		.4byte	0x8a
 3506 02a6 10       		.uleb128 0x10
 3507 02a7 04       		.byte	0x4
 3508 02a8 7F000000 		.4byte	0x7f
 3509 02ac 11       		.uleb128 0x11
 3510 02ad 32000000 		.4byte	.LASF21
 3511 02b1 01       		.byte	0x1
 3512 02b2 0101     		.2byte	0x101
 3513 02b4 01       		.byte	0x1
 3514 02b5 00000000 		.4byte	.LFB8
 3515 02b9 26000000 		.4byte	.LFE8
 3516 02bd 00000000 		.4byte	.LLST0
 3517 02c1 01       		.byte	0x1
 3518 02c2 0F030000 		.4byte	0x30f
 3519 02c6 12       		.uleb128 0x12
 3520 02c7 82010000 		.4byte	.LASF19
 3521 02cb 01       		.byte	0x1
 3522 02cc 0101     		.2byte	0x101
 3523 02ce A6020000 		.4byte	0x2a6
 3524 02d2 01       		.byte	0x1
 3525 02d3 50       		.byte	0x50
 3526 02d4 13       		.uleb128 0x13
 3527 02d5 57000000 		.4byte	.LASF20
 3528 02d9 01       		.byte	0x1
 3529 02da 0101     		.2byte	0x101
 3530 02dc A0020000 		.4byte	0x2a0
 3531 02e0 20000000 		.4byte	.LLST1
 3532 02e4 14       		.uleb128 0x14
 3533 02e5 6C656E00 		.ascii	"len\000"
 3534 02e9 01       		.byte	0x1
 3535 02ea 0101     		.2byte	0x101
 3536 02ec 8A000000 		.4byte	0x8a
 3537 02f0 01       		.byte	0x1
 3538 02f1 52       		.byte	0x52
 3539 02f2 15       		.uleb128 0x15
 3540 02f3 6900     		.ascii	"i\000"
 3541 02f5 01       		.byte	0x1
 3542 02f6 0301     		.2byte	0x103
 3543 02f8 8A000000 		.4byte	0x8a
 3544 02fc 41000000 		.4byte	.LLST2
 3545 0300 15       		.uleb128 0x15
 3546 0301 6A00     		.ascii	"j\000"
ARM GAS  C:\Users\atsu\AppData\Local\Temp\ccFWVBKl.s 			page 75


 3547 0303 01       		.byte	0x1
 3548 0304 0301     		.2byte	0x103
 3549 0306 8A000000 		.4byte	0x8a
 3550 030a 41000000 		.4byte	.LLST2
 3551 030e 00       		.byte	0
 3552 030f 16       		.uleb128 0x16
 3553 0310 00000000 		.4byte	.LASF22
 3554 0314 01       		.byte	0x1
 3555 0315 A3       		.byte	0xa3
 3556 0316 01       		.byte	0x1
 3557 0317 00000000 		.4byte	.LFB7
 3558 031b A0070000 		.4byte	.LFE7
 3559 031f 55000000 		.4byte	.LLST4
 3560 0323 01       		.byte	0x1
 3561 0324 13180000 		.4byte	0x1813
 3562 0328 17       		.uleb128 0x17
 3563 0329 0E000000 		.4byte	.LASF15
 3564 032d 01       		.byte	0x1
 3565 032e A3       		.byte	0xa3
 3566 032f A0020000 		.4byte	0x2a0
 3567 0333 82000000 		.4byte	.LLST5
 3568 0337 17       		.uleb128 0x17
 3569 0338 43000000 		.4byte	.LASF23
 3570 033c 01       		.byte	0x1
 3571 033d A3       		.byte	0xa3
 3572 033e A6020000 		.4byte	0x2a6
 3573 0342 AD000000 		.4byte	.LLST6
 3574 0346 18       		.uleb128 0x18
 3575 0347 6100     		.ascii	"a\000"
 3576 0349 01       		.byte	0x1
 3577 034a A5       		.byte	0xa5
 3578 034b 8A000000 		.4byte	0x8a
 3579 034f CE000000 		.4byte	.LLST7
 3580 0353 18       		.uleb128 0x18
 3581 0354 6200     		.ascii	"b\000"
 3582 0356 01       		.byte	0x1
 3583 0357 A6       		.byte	0xa6
 3584 0358 8A000000 		.4byte	0x8a
 3585 035c FB000000 		.4byte	.LLST8
 3586 0360 18       		.uleb128 0x18
 3587 0361 6300     		.ascii	"c\000"
 3588 0363 01       		.byte	0x1
 3589 0364 A7       		.byte	0xa7
 3590 0365 8A000000 		.4byte	0x8a
 3591 0369 1E010000 		.4byte	.LLST9
 3592 036d 18       		.uleb128 0x18
 3593 036e 6400     		.ascii	"d\000"
 3594 0370 01       		.byte	0x1
 3595 0371 A8       		.byte	0xa8
 3596 0372 8A000000 		.4byte	0x8a
 3597 0376 41010000 		.4byte	.LLST10
 3598 037a 19       		.uleb128 0x19
 3599 037b 7800     		.ascii	"x\000"
 3600 037d 01       		.byte	0x1
 3601 037e A9       		.byte	0xa9
 3602 037f 13180000 		.4byte	0x1813
 3603 0383 03       		.byte	0x3
ARM GAS  C:\Users\atsu\AppData\Local\Temp\ccFWVBKl.s 			page 76


 3604 0384 91       		.byte	0x91
 3605 0385 A87F     		.sleb128 -88
 3606 0387 1A       		.uleb128 0x1a
 3607 0388 59020000 		.4byte	0x259
 3608 038c 20000000 		.4byte	.LBB260
 3609 0390 44000000 		.4byte	.LBE260
 3610 0394 01       		.byte	0x1
 3611 0395 AB       		.byte	0xab
 3612 0396 D0030000 		.4byte	0x3d0
 3613 039a 1B       		.uleb128 0x1b
 3614 039b 73020000 		.4byte	0x273
 3615 039f 64010000 		.4byte	.LLST11
 3616 03a3 1C       		.uleb128 0x1c
 3617 03a4 67020000 		.4byte	0x267
 3618 03a8 04       		.byte	0x4
 3619 03a9 91       		.byte	0x91
 3620 03aa A07F     		.sleb128 -96
 3621 03ac 9F       		.byte	0x9f
 3622 03ad 1D       		.uleb128 0x1d
 3623 03ae 20000000 		.4byte	.LBB261
 3624 03b2 44000000 		.4byte	.LBE261
 3625 03b6 1E       		.uleb128 0x1e
 3626 03b7 8B020000 		.4byte	0x28b
 3627 03bb 85010000 		.4byte	.LLST12
 3628 03bf 1E       		.uleb128 0x1e
 3629 03c0 95020000 		.4byte	0x295
 3630 03c4 99010000 		.4byte	.LLST13
 3631 03c8 1F       		.uleb128 0x1f
 3632 03c9 7F020000 		.4byte	0x27f
 3633 03cd 40       		.byte	0x40
 3634 03ce 00       		.byte	0
 3635 03cf 00       		.byte	0
 3636 03d0 1A       		.uleb128 0x1a
 3637 03d1 11010000 		.4byte	0x111
 3638 03d5 44000000 		.4byte	.LBB262
 3639 03d9 64000000 		.4byte	.LBE262
 3640 03dd 01       		.byte	0x1
 3641 03de AE       		.byte	0xae
 3642 03df 21040000 		.4byte	0x421
 3643 03e3 20       		.uleb128 0x20
 3644 03e4 58010000 		.4byte	0x158
 3645 03e8 F8C8AABB 		.sleb128 -680876936
 3645      7D
 3646 03ed 1F       		.uleb128 0x1f
 3647 03ee 4F010000 		.4byte	0x14f
 3648 03f2 07       		.byte	0x7
 3649 03f3 1B       		.uleb128 0x1b
 3650 03f4 46010000 		.4byte	0x146
 3651 03f8 C5010000 		.4byte	.LLST14
 3652 03fc 1C       		.uleb128 0x1c
 3653 03fd 3D010000 		.4byte	0x13d
 3654 0401 03       		.byte	0x3
 3655 0402 91       		.byte	0x91
 3656 0403 A07F     		.sleb128 -96
 3657 0405 1C       		.uleb128 0x1c
 3658 0406 34010000 		.4byte	0x134
 3659 040a 03       		.byte	0x3
ARM GAS  C:\Users\atsu\AppData\Local\Temp\ccFWVBKl.s 			page 77


 3660 040b 91       		.byte	0x91
 3661 040c 9C7F     		.sleb128 -100
 3662 040e 1C       		.uleb128 0x1c
 3663 040f 2B010000 		.4byte	0x12b
 3664 0413 03       		.byte	0x3
 3665 0414 91       		.byte	0x91
 3666 0415 947F     		.sleb128 -108
 3667 0417 1B       		.uleb128 0x1b
 3668 0418 22010000 		.4byte	0x122
 3669 041c F2010000 		.4byte	.LLST15
 3670 0420 00       		.byte	0
 3671 0421 21       		.uleb128 0x21
 3672 0422 11010000 		.4byte	0x111
 3673 0426 64000000 		.4byte	.LBB264
 3674 042a 00000000 		.4byte	.Ldebug_ranges0+0
 3675 042e 01       		.byte	0x1
 3676 042f AF       		.byte	0xaf
 3677 0430 72040000 		.4byte	0x472
 3678 0434 20       		.uleb128 0x20
 3679 0435 58010000 		.4byte	0x158
 3680 0439 D6EE9EC6 		.sleb128 -389564586
 3680      7E
 3681 043e 1F       		.uleb128 0x1f
 3682 043f 4F010000 		.4byte	0x14f
 3683 0443 0C       		.byte	0xc
 3684 0444 1B       		.uleb128 0x1b
 3685 0445 46010000 		.4byte	0x146
 3686 0449 AF020000 		.4byte	.LLST16
 3687 044d 1C       		.uleb128 0x1c
 3688 044e 3D010000 		.4byte	0x13d
 3689 0452 03       		.byte	0x3
 3690 0453 91       		.byte	0x91
 3691 0454 9C7F     		.sleb128 -100
 3692 0456 1C       		.uleb128 0x1c
 3693 0457 34010000 		.4byte	0x134
 3694 045b 03       		.byte	0x3
 3695 045c 91       		.byte	0x91
 3696 045d 947F     		.sleb128 -108
 3697 045f 1B       		.uleb128 0x1b
 3698 0460 2B010000 		.4byte	0x12b
 3699 0464 C4020000 		.4byte	.LLST17
 3700 0468 1B       		.uleb128 0x1b
 3701 0469 22010000 		.4byte	0x122
 3702 046d 52030000 		.4byte	.LLST18
 3703 0471 00       		.byte	0
 3704 0472 21       		.uleb128 0x21
 3705 0473 11010000 		.4byte	0x111
 3706 0477 7A000000 		.4byte	.LBB268
 3707 047b 20000000 		.4byte	.Ldebug_ranges0+0x20
 3708 047f 01       		.byte	0x1
 3709 0480 B0       		.byte	0xb0
 3710 0481 C2040000 		.4byte	0x4c2
 3711 0485 22       		.uleb128 0x22
 3712 0486 58010000 		.4byte	0x158
 3713 048a DB702024 		.4byte	0x242070db
 3714 048e 1F       		.uleb128 0x1f
 3715 048f 4F010000 		.4byte	0x14f
ARM GAS  C:\Users\atsu\AppData\Local\Temp\ccFWVBKl.s 			page 78


 3716 0493 11       		.byte	0x11
 3717 0494 1B       		.uleb128 0x1b
 3718 0495 46010000 		.4byte	0x146
 3719 0499 27050000 		.4byte	.LLST19
 3720 049d 1C       		.uleb128 0x1c
 3721 049e 3D010000 		.4byte	0x13d
 3722 04a2 03       		.byte	0x3
 3723 04a3 91       		.byte	0x91
 3724 04a4 947F     		.sleb128 -108
 3725 04a6 1B       		.uleb128 0x1b
 3726 04a7 34010000 		.4byte	0x134
 3727 04ab 47050000 		.4byte	.LLST20
 3728 04af 1B       		.uleb128 0x1b
 3729 04b0 2B010000 		.4byte	0x12b
 3730 04b4 D5050000 		.4byte	.LLST21
 3731 04b8 1B       		.uleb128 0x1b
 3732 04b9 22010000 		.4byte	0x122
 3733 04bd 7B070000 		.4byte	.LLST22
 3734 04c1 00       		.byte	0
 3735 04c2 21       		.uleb128 0x21
 3736 04c3 11010000 		.4byte	0x111
 3737 04c7 9A000000 		.4byte	.LBB276
 3738 04cb 40000000 		.4byte	.Ldebug_ranges0+0x40
 3739 04cf 01       		.byte	0x1
 3740 04d0 B1       		.byte	0xb1
 3741 04d1 13050000 		.4byte	0x513
 3742 04d5 20       		.uleb128 0x20
 3743 04d6 58010000 		.4byte	0x158
 3744 04da EE9DF78D 		.sleb128 -1044525330
 3744      7C
 3745 04df 1F       		.uleb128 0x1f
 3746 04e0 4F010000 		.4byte	0x14f
 3747 04e4 16       		.byte	0x16
 3748 04e5 1B       		.uleb128 0x1b
 3749 04e6 46010000 		.4byte	0x146
 3750 04ea BD070000 		.4byte	.LLST23
 3751 04ee 1B       		.uleb128 0x1b
 3752 04ef 3D010000 		.4byte	0x13d
 3753 04f3 D2070000 		.4byte	.LLST24
 3754 04f7 1B       		.uleb128 0x1b
 3755 04f8 34010000 		.4byte	0x134
 3756 04fc 60080000 		.4byte	.LLST25
 3757 0500 1B       		.uleb128 0x1b
 3758 0501 2B010000 		.4byte	0x12b
 3759 0505 060A0000 		.4byte	.LLST26
 3760 0509 1B       		.uleb128 0x1b
 3761 050a 22010000 		.4byte	0x122
 3762 050e 190A0000 		.4byte	.LLST27
 3763 0512 00       		.byte	0
 3764 0513 21       		.uleb128 0x21
 3765 0514 11010000 		.4byte	0x111
 3766 0518 B4000000 		.4byte	.LBB280
 3767 051c 60000000 		.4byte	.Ldebug_ranges0+0x60
 3768 0520 01       		.byte	0x1
 3769 0521 B2       		.byte	0xb2
 3770 0522 64050000 		.4byte	0x564
 3771 0526 20       		.uleb128 0x20
ARM GAS  C:\Users\atsu\AppData\Local\Temp\ccFWVBKl.s 			page 79


 3772 0527 58010000 		.4byte	0x158
 3773 052b AF9FF0AB 		.sleb128 -176418897
 3773      7F
 3774 0530 1F       		.uleb128 0x1f
 3775 0531 4F010000 		.4byte	0x14f
 3776 0535 07       		.byte	0x7
 3777 0536 1B       		.uleb128 0x1b
 3778 0537 46010000 		.4byte	0x146
 3779 053b 500A0000 		.4byte	.LLST28
 3780 053f 1B       		.uleb128 0x1b
 3781 0540 3D010000 		.4byte	0x13d
 3782 0544 700A0000 		.4byte	.LLST29
 3783 0548 1B       		.uleb128 0x1b
 3784 0549 34010000 		.4byte	0x134
 3785 054d 160C0000 		.4byte	.LLST30
 3786 0551 1B       		.uleb128 0x1b
 3787 0552 2B010000 		.4byte	0x12b
 3788 0556 290C0000 		.4byte	.LLST31
 3789 055a 1B       		.uleb128 0x1b
 3790 055b 22010000 		.4byte	0x122
 3791 055f 3C0C0000 		.4byte	.LLST32
 3792 0563 00       		.byte	0
 3793 0564 21       		.uleb128 0x21
 3794 0565 11010000 		.4byte	0x111
 3795 0569 D0000000 		.4byte	.LBB289
 3796 056d 88000000 		.4byte	.Ldebug_ranges0+0x88
 3797 0571 01       		.byte	0x1
 3798 0572 B3       		.byte	0xb3
 3799 0573 B4050000 		.4byte	0x5b4
 3800 0577 22       		.uleb128 0x22
 3801 0578 58010000 		.4byte	0x158
 3802 057c 2AC68747 		.4byte	0x4787c62a
 3803 0580 1F       		.uleb128 0x1f
 3804 0581 4F010000 		.4byte	0x14f
 3805 0585 0C       		.byte	0xc
 3806 0586 1B       		.uleb128 0x1b
 3807 0587 46010000 		.4byte	0x146
 3808 058b BA0C0000 		.4byte	.LLST33
 3809 058f 1B       		.uleb128 0x1b
 3810 0590 3D010000 		.4byte	0x13d
 3811 0594 DA0C0000 		.4byte	.LLST34
 3812 0598 1B       		.uleb128 0x1b
 3813 0599 34010000 		.4byte	0x134
 3814 059d ED0C0000 		.4byte	.LLST35
 3815 05a1 1B       		.uleb128 0x1b
 3816 05a2 2B010000 		.4byte	0x12b
 3817 05a6 000D0000 		.4byte	.LLST36
 3818 05aa 1B       		.uleb128 0x1b
 3819 05ab 22010000 		.4byte	0x122
 3820 05af 130D0000 		.4byte	.LLST37
 3821 05b3 00       		.byte	0
 3822 05b4 21       		.uleb128 0x21
 3823 05b5 11010000 		.4byte	0x111
 3824 05b9 E8000000 		.4byte	.LBB297
 3825 05bd B8000000 		.4byte	.Ldebug_ranges0+0xb8
 3826 05c1 01       		.byte	0x1
 3827 05c2 B4       		.byte	0xb4
ARM GAS  C:\Users\atsu\AppData\Local\Temp\ccFWVBKl.s 			page 80


 3828 05c3 05060000 		.4byte	0x605
 3829 05c7 20       		.uleb128 0x20
 3830 05c8 58010000 		.4byte	0x158
 3831 05cc 938CC1C1 		.sleb128 -1473231341
 3831      7A
 3832 05d1 1F       		.uleb128 0x1f
 3833 05d2 4F010000 		.4byte	0x14f
 3834 05d6 11       		.byte	0x11
 3835 05d7 1B       		.uleb128 0x1b
 3836 05d8 46010000 		.4byte	0x146
 3837 05dc 130E0000 		.4byte	.LLST38
 3838 05e0 1B       		.uleb128 0x1b
 3839 05e1 3D010000 		.4byte	0x13d
 3840 05e5 320E0000 		.4byte	.LLST39
 3841 05e9 1B       		.uleb128 0x1b
 3842 05ea 34010000 		.4byte	0x134
 3843 05ee 450E0000 		.4byte	.LLST40
 3844 05f2 1B       		.uleb128 0x1b
 3845 05f3 2B010000 		.4byte	0x12b
 3846 05f7 580E0000 		.4byte	.LLST41
 3847 05fb 1B       		.uleb128 0x1b
 3848 05fc 22010000 		.4byte	0x122
 3849 0600 6B0E0000 		.4byte	.LLST42
 3850 0604 00       		.byte	0
 3851 0605 21       		.uleb128 0x21
 3852 0606 11010000 		.4byte	0x111
 3853 060a 06010000 		.4byte	.LBB310
 3854 060e F0000000 		.4byte	.Ldebug_ranges0+0xf0
 3855 0612 01       		.byte	0x1
 3856 0613 B5       		.byte	0xb5
 3857 0614 55060000 		.4byte	0x655
 3858 0618 20       		.uleb128 0x20
 3859 0619 58010000 		.4byte	0x158
 3860 061d 81AA9A6A 		.sleb128 -45705983
 3861 0621 1F       		.uleb128 0x1f
 3862 0622 4F010000 		.4byte	0x14f
 3863 0626 16       		.byte	0x16
 3864 0627 1B       		.uleb128 0x1b
 3865 0628 46010000 		.4byte	0x146
 3866 062c A00E0000 		.4byte	.LLST43
 3867 0630 1B       		.uleb128 0x1b
 3868 0631 3D010000 		.4byte	0x13d
 3869 0635 CA0E0000 		.4byte	.LLST44
 3870 0639 1B       		.uleb128 0x1b
 3871 063a 34010000 		.4byte	0x134
 3872 063e DD0E0000 		.4byte	.LLST45
 3873 0642 1B       		.uleb128 0x1b
 3874 0643 2B010000 		.4byte	0x12b
 3875 0647 F00E0000 		.4byte	.LLST46
 3876 064b 1B       		.uleb128 0x1b
 3877 064c 22010000 		.4byte	0x122
 3878 0650 030F0000 		.4byte	.LLST47
 3879 0654 00       		.byte	0
 3880 0655 21       		.uleb128 0x21
 3881 0656 11010000 		.4byte	0x111
 3882 065a 24010000 		.4byte	.LBB320
 3883 065e 20010000 		.4byte	.Ldebug_ranges0+0x120
ARM GAS  C:\Users\atsu\AppData\Local\Temp\ccFWVBKl.s 			page 81


 3884 0662 01       		.byte	0x1
 3885 0663 B6       		.byte	0xb6
 3886 0664 A5060000 		.4byte	0x6a5
 3887 0668 22       		.uleb128 0x22
 3888 0669 58010000 		.4byte	0x158
 3889 066d D8988069 		.4byte	0x698098d8
 3890 0671 1F       		.uleb128 0x1f
 3891 0672 4F010000 		.4byte	0x14f
 3892 0676 07       		.byte	0x7
 3893 0677 1B       		.uleb128 0x1b
 3894 0678 46010000 		.4byte	0x146
 3895 067c 380F0000 		.4byte	.LLST48
 3896 0680 1B       		.uleb128 0x1b
 3897 0681 3D010000 		.4byte	0x13d
 3898 0685 570F0000 		.4byte	.LLST49
 3899 0689 1B       		.uleb128 0x1b
 3900 068a 34010000 		.4byte	0x134
 3901 068e 6A0F0000 		.4byte	.LLST50
 3902 0692 1B       		.uleb128 0x1b
 3903 0693 2B010000 		.4byte	0x12b
 3904 0697 7D0F0000 		.4byte	.LLST51
 3905 069b 1B       		.uleb128 0x1b
 3906 069c 22010000 		.4byte	0x122
 3907 06a0 900F0000 		.4byte	.LLST52
 3908 06a4 00       		.byte	0
 3909 06a5 21       		.uleb128 0x21
 3910 06a6 11010000 		.4byte	0x111
 3911 06aa 40010000 		.4byte	.LBB330
 3912 06ae 50010000 		.4byte	.Ldebug_ranges0+0x150
 3913 06b2 01       		.byte	0x1
 3914 06b3 B7       		.byte	0xb7
 3915 06b4 F6060000 		.4byte	0x6f6
 3916 06b8 20       		.uleb128 0x20
 3917 06b9 58010000 		.4byte	0x158
 3918 06bd AFEF93DA 		.sleb128 -1958414417
 3918      78
 3919 06c2 1F       		.uleb128 0x1f
 3920 06c3 4F010000 		.4byte	0x14f
 3921 06c7 0C       		.byte	0xc
 3922 06c8 1B       		.uleb128 0x1b
 3923 06c9 46010000 		.4byte	0x146
 3924 06cd C50F0000 		.4byte	.LLST53
 3925 06d1 1B       		.uleb128 0x1b
 3926 06d2 3D010000 		.4byte	0x13d
 3927 06d6 E40F0000 		.4byte	.LLST54
 3928 06da 1B       		.uleb128 0x1b
 3929 06db 34010000 		.4byte	0x134
 3930 06df F70F0000 		.4byte	.LLST55
 3931 06e3 1B       		.uleb128 0x1b
 3932 06e4 2B010000 		.4byte	0x12b
 3933 06e8 0A100000 		.4byte	.LLST56
 3934 06ec 1B       		.uleb128 0x1b
 3935 06ed 22010000 		.4byte	0x122
 3936 06f1 1D100000 		.4byte	.LLST57
 3937 06f5 00       		.byte	0
 3938 06f6 21       		.uleb128 0x21
 3939 06f7 11010000 		.4byte	0x111
ARM GAS  C:\Users\atsu\AppData\Local\Temp\ccFWVBKl.s 			page 82


 3940 06fb 58010000 		.4byte	.LBB341
 3941 06ff 88010000 		.4byte	.Ldebug_ranges0+0x188
 3942 0703 01       		.byte	0x1
 3943 0704 B8       		.byte	0xb8
 3944 0705 45070000 		.4byte	0x745
 3945 0709 20       		.uleb128 0x20
 3946 070a 58010000 		.4byte	0x158
 3947 070e B1B77D   		.sleb128 -42063
 3948 0711 1F       		.uleb128 0x1f
 3949 0712 4F010000 		.4byte	0x14f
 3950 0716 11       		.byte	0x11
 3951 0717 1B       		.uleb128 0x1b
 3952 0718 46010000 		.4byte	0x146
 3953 071c 52100000 		.4byte	.LLST58
 3954 0720 1B       		.uleb128 0x1b
 3955 0721 3D010000 		.4byte	0x13d
 3956 0725 71100000 		.4byte	.LLST59
 3957 0729 1B       		.uleb128 0x1b
 3958 072a 34010000 		.4byte	0x134
 3959 072e 84100000 		.4byte	.LLST60
 3960 0732 1B       		.uleb128 0x1b
 3961 0733 2B010000 		.4byte	0x12b
 3962 0737 97100000 		.4byte	.LLST61
 3963 073b 1B       		.uleb128 0x1b
 3964 073c 22010000 		.4byte	0x122
 3965 0740 AA100000 		.4byte	.LLST62
 3966 0744 00       		.byte	0
 3967 0745 21       		.uleb128 0x21
 3968 0746 11010000 		.4byte	0x111
 3969 074a 76010000 		.4byte	.LBB354
 3970 074e C0010000 		.4byte	.Ldebug_ranges0+0x1c0
 3971 0752 01       		.byte	0x1
 3972 0753 B9       		.byte	0xb9
 3973 0754 96070000 		.4byte	0x796
 3974 0758 20       		.uleb128 0x20
 3975 0759 58010000 		.4byte	0x158
 3976 075d BEAFF3CA 		.sleb128 -1990404162
 3976      78
 3977 0762 1F       		.uleb128 0x1f
 3978 0763 4F010000 		.4byte	0x14f
 3979 0767 16       		.byte	0x16
 3980 0768 1B       		.uleb128 0x1b
 3981 0769 46010000 		.4byte	0x146
 3982 076d DF100000 		.4byte	.LLST63
 3983 0771 1B       		.uleb128 0x1b
 3984 0772 3D010000 		.4byte	0x13d
 3985 0776 09110000 		.4byte	.LLST64
 3986 077a 1B       		.uleb128 0x1b
 3987 077b 34010000 		.4byte	0x134
 3988 077f 1C110000 		.4byte	.LLST65
 3989 0783 1B       		.uleb128 0x1b
 3990 0784 2B010000 		.4byte	0x12b
 3991 0788 2F110000 		.4byte	.LLST66
 3992 078c 1B       		.uleb128 0x1b
 3993 078d 22010000 		.4byte	0x122
 3994 0791 42110000 		.4byte	.LLST67
 3995 0795 00       		.byte	0
ARM GAS  C:\Users\atsu\AppData\Local\Temp\ccFWVBKl.s 			page 83


 3996 0796 21       		.uleb128 0x21
 3997 0797 11010000 		.4byte	0x111
 3998 079b 94010000 		.4byte	.LBB364
 3999 079f F0010000 		.4byte	.Ldebug_ranges0+0x1f0
 4000 07a3 01       		.byte	0x1
 4001 07a4 BA       		.byte	0xba
 4002 07a5 E6070000 		.4byte	0x7e6
 4003 07a9 22       		.uleb128 0x22
 4004 07aa 58010000 		.4byte	0x158
 4005 07ae 2211906B 		.4byte	0x6b901122
 4006 07b2 1F       		.uleb128 0x1f
 4007 07b3 4F010000 		.4byte	0x14f
 4008 07b7 07       		.byte	0x7
 4009 07b8 1B       		.uleb128 0x1b
 4010 07b9 46010000 		.4byte	0x146
 4011 07bd 77110000 		.4byte	.LLST68
 4012 07c1 1B       		.uleb128 0x1b
 4013 07c2 3D010000 		.4byte	0x13d
 4014 07c6 96110000 		.4byte	.LLST69
 4015 07ca 1B       		.uleb128 0x1b
 4016 07cb 34010000 		.4byte	0x134
 4017 07cf A9110000 		.4byte	.LLST70
 4018 07d3 1B       		.uleb128 0x1b
 4019 07d4 2B010000 		.4byte	0x12b
 4020 07d8 BC110000 		.4byte	.LLST71
 4021 07dc 1B       		.uleb128 0x1b
 4022 07dd 22010000 		.4byte	0x122
 4023 07e1 CF110000 		.4byte	.LLST72
 4024 07e5 00       		.byte	0
 4025 07e6 21       		.uleb128 0x21
 4026 07e7 11010000 		.4byte	0x111
 4027 07eb B2010000 		.4byte	.LBB373
 4028 07ef 18020000 		.4byte	.Ldebug_ranges0+0x218
 4029 07f3 01       		.byte	0x1
 4030 07f4 BB       		.byte	0xbb
 4031 07f5 36080000 		.4byte	0x836
 4032 07f9 20       		.uleb128 0x20
 4033 07fa 58010000 		.4byte	0x158
 4034 07fe 93E3E16C 		.sleb128 -40341101
 4035 0802 1F       		.uleb128 0x1f
 4036 0803 4F010000 		.4byte	0x14f
 4037 0807 0C       		.byte	0xc
 4038 0808 1B       		.uleb128 0x1b
 4039 0809 46010000 		.4byte	0x146
 4040 080d 0F120000 		.4byte	.LLST73
 4041 0811 1B       		.uleb128 0x1b
 4042 0812 3D010000 		.4byte	0x13d
 4043 0816 2E120000 		.4byte	.LLST74
 4044 081a 1B       		.uleb128 0x1b
 4045 081b 34010000 		.4byte	0x134
 4046 081f 41120000 		.4byte	.LLST75
 4047 0823 1B       		.uleb128 0x1b
 4048 0824 2B010000 		.4byte	0x12b
 4049 0828 54120000 		.4byte	.LLST76
 4050 082c 1B       		.uleb128 0x1b
 4051 082d 22010000 		.4byte	0x122
 4052 0831 67120000 		.4byte	.LLST77
ARM GAS  C:\Users\atsu\AppData\Local\Temp\ccFWVBKl.s 			page 84


 4053 0835 00       		.byte	0
 4054 0836 21       		.uleb128 0x21
 4055 0837 11010000 		.4byte	0x111
 4056 083b CA010000 		.4byte	.LBB379
 4057 083f 38020000 		.4byte	.Ldebug_ranges0+0x238
 4058 0843 01       		.byte	0x1
 4059 0844 BC       		.byte	0xbc
 4060 0845 87080000 		.4byte	0x887
 4061 0849 20       		.uleb128 0x20
 4062 084a 58010000 		.4byte	0x158
 4063 084e 8E87E5B3 		.sleb128 -1502002290
 4063      7A
 4064 0853 1F       		.uleb128 0x1f
 4065 0854 4F010000 		.4byte	0x14f
 4066 0858 11       		.byte	0x11
 4067 0859 1B       		.uleb128 0x1b
 4068 085a 46010000 		.4byte	0x146
 4069 085e A7120000 		.4byte	.LLST78
 4070 0862 1B       		.uleb128 0x1b
 4071 0863 3D010000 		.4byte	0x13d
 4072 0867 C6120000 		.4byte	.LLST79
 4073 086b 1B       		.uleb128 0x1b
 4074 086c 34010000 		.4byte	0x134
 4075 0870 D9120000 		.4byte	.LLST80
 4076 0874 1B       		.uleb128 0x1b
 4077 0875 2B010000 		.4byte	0x12b
 4078 0879 EC120000 		.4byte	.LLST81
 4079 087d 1B       		.uleb128 0x1b
 4080 087e 22010000 		.4byte	0x122
 4081 0882 FF120000 		.4byte	.LLST82
 4082 0886 00       		.byte	0
 4083 0887 21       		.uleb128 0x21
 4084 0888 11010000 		.4byte	0x111
 4085 088c E4010000 		.4byte	.LBB385
 4086 0890 58020000 		.4byte	.Ldebug_ranges0+0x258
 4087 0894 01       		.byte	0x1
 4088 0895 BD       		.byte	0xbd
 4089 0896 D7080000 		.4byte	0x8d7
 4090 089a 22       		.uleb128 0x22
 4091 089b 58010000 		.4byte	0x158
 4092 089f 2108B449 		.4byte	0x49b40821
 4093 08a3 1F       		.uleb128 0x1f
 4094 08a4 4F010000 		.4byte	0x14f
 4095 08a8 16       		.byte	0x16
 4096 08a9 1B       		.uleb128 0x1b
 4097 08aa 46010000 		.4byte	0x146
 4098 08ae 3F130000 		.4byte	.LLST83
 4099 08b2 1B       		.uleb128 0x1b
 4100 08b3 3D010000 		.4byte	0x13d
 4101 08b7 5E130000 		.4byte	.LLST84
 4102 08bb 1B       		.uleb128 0x1b
 4103 08bc 34010000 		.4byte	0x134
 4104 08c0 71130000 		.4byte	.LLST85
 4105 08c4 1B       		.uleb128 0x1b
 4106 08c5 2B010000 		.4byte	0x12b
 4107 08c9 84130000 		.4byte	.LLST86
 4108 08cd 1B       		.uleb128 0x1b
ARM GAS  C:\Users\atsu\AppData\Local\Temp\ccFWVBKl.s 			page 85


 4109 08ce 22010000 		.4byte	0x122
 4110 08d2 97130000 		.4byte	.LLST87
 4111 08d6 00       		.byte	0
 4112 08d7 21       		.uleb128 0x21
 4113 08d8 63010000 		.4byte	0x163
 4114 08dc 06020000 		.4byte	.LBB390
 4115 08e0 70020000 		.4byte	.Ldebug_ranges0+0x270
 4116 08e4 01       		.byte	0x1
 4117 08e5 C0       		.byte	0xc0
 4118 08e6 28090000 		.4byte	0x928
 4119 08ea 20       		.uleb128 0x20
 4120 08eb AA010000 		.4byte	0x1aa
 4121 08ef E2CAF8B0 		.sleb128 -165796510
 4121      7F
 4122 08f4 1F       		.uleb128 0x1f
 4123 08f5 A1010000 		.4byte	0x1a1
 4124 08f9 05       		.byte	0x5
 4125 08fa 1B       		.uleb128 0x1b
 4126 08fb 98010000 		.4byte	0x198
 4127 08ff D7130000 		.4byte	.LLST88
 4128 0903 1B       		.uleb128 0x1b
 4129 0904 8F010000 		.4byte	0x18f
 4130 0908 EC130000 		.4byte	.LLST89
 4131 090c 1B       		.uleb128 0x1b
 4132 090d 86010000 		.4byte	0x186
 4133 0911 FF130000 		.4byte	.LLST90
 4134 0915 1B       		.uleb128 0x1b
 4135 0916 7D010000 		.4byte	0x17d
 4136 091a 12140000 		.4byte	.LLST91
 4137 091e 1B       		.uleb128 0x1b
 4138 091f 74010000 		.4byte	0x174
 4139 0923 25140000 		.4byte	.LLST92
 4140 0927 00       		.byte	0
 4141 0928 21       		.uleb128 0x21
 4142 0929 63010000 		.4byte	0x163
 4143 092d 18020000 		.4byte	.LBB394
 4144 0931 90020000 		.4byte	.Ldebug_ranges0+0x290
 4145 0935 01       		.byte	0x1
 4146 0936 C1       		.byte	0xc1
 4147 0937 79090000 		.4byte	0x979
 4148 093b 20       		.uleb128 0x20
 4149 093c AA010000 		.4byte	0x1aa
 4150 0940 C0E68282 		.sleb128 -1069501632
 4150      7C
 4151 0945 1F       		.uleb128 0x1f
 4152 0946 A1010000 		.4byte	0x1a1
 4153 094a 09       		.byte	0x9
 4154 094b 1B       		.uleb128 0x1b
 4155 094c 98010000 		.4byte	0x198
 4156 0950 5A140000 		.4byte	.LLST93
 4157 0954 1B       		.uleb128 0x1b
 4158 0955 8F010000 		.4byte	0x18f
 4159 0959 6E140000 		.4byte	.LLST94
 4160 095d 1B       		.uleb128 0x1b
 4161 095e 86010000 		.4byte	0x186
 4162 0962 81140000 		.4byte	.LLST95
 4163 0966 1B       		.uleb128 0x1b
ARM GAS  C:\Users\atsu\AppData\Local\Temp\ccFWVBKl.s 			page 86


 4164 0967 7D010000 		.4byte	0x17d
 4165 096b 94140000 		.4byte	.LLST96
 4166 096f 1B       		.uleb128 0x1b
 4167 0970 74010000 		.4byte	0x174
 4168 0974 A7140000 		.4byte	.LLST97
 4169 0978 00       		.byte	0
 4170 0979 21       		.uleb128 0x21
 4171 097a 63010000 		.4byte	0x163
 4172 097e 30020000 		.4byte	.LBB404
 4173 0982 C0020000 		.4byte	.Ldebug_ranges0+0x2c0
 4174 0986 01       		.byte	0x1
 4175 0987 C2       		.byte	0xc2
 4176 0988 C9090000 		.4byte	0x9c9
 4177 098c 22       		.uleb128 0x22
 4178 098d AA010000 		.4byte	0x1aa
 4179 0991 515A5E26 		.4byte	0x265e5a51
 4180 0995 1F       		.uleb128 0x1f
 4181 0996 A1010000 		.4byte	0x1a1
 4182 099a 0E       		.byte	0xe
 4183 099b 1B       		.uleb128 0x1b
 4184 099c 98010000 		.4byte	0x198
 4185 09a0 E7140000 		.4byte	.LLST98
 4186 09a4 1B       		.uleb128 0x1b
 4187 09a5 8F010000 		.4byte	0x18f
 4188 09a9 FB140000 		.4byte	.LLST99
 4189 09ad 1B       		.uleb128 0x1b
 4190 09ae 86010000 		.4byte	0x186
 4191 09b2 0E150000 		.4byte	.LLST100
 4192 09b6 1B       		.uleb128 0x1b
 4193 09b7 7D010000 		.4byte	0x17d
 4194 09bb 21150000 		.4byte	.LLST101
 4195 09bf 1B       		.uleb128 0x1b
 4196 09c0 74010000 		.4byte	0x174
 4197 09c4 34150000 		.4byte	.LLST102
 4198 09c8 00       		.byte	0
 4199 09c9 21       		.uleb128 0x21
 4200 09ca 63010000 		.4byte	0x163
 4201 09ce 4A020000 		.4byte	.LBB414
 4202 09d2 F0020000 		.4byte	.Ldebug_ranges0+0x2f0
 4203 09d6 01       		.byte	0x1
 4204 09d7 C3       		.byte	0xc3
 4205 09d8 1A0A0000 		.4byte	0xa1a
 4206 09dc 20       		.uleb128 0x20
 4207 09dd AA010000 		.4byte	0x1aa
 4208 09e1 AA8FDBCD 		.sleb128 -373897302
 4208      7E
 4209 09e6 1F       		.uleb128 0x1f
 4210 09e7 A1010000 		.4byte	0x1a1
 4211 09eb 14       		.byte	0x14
 4212 09ec 1B       		.uleb128 0x1b
 4213 09ed 98010000 		.4byte	0x198
 4214 09f1 74150000 		.4byte	.LLST103
 4215 09f5 1B       		.uleb128 0x1b
 4216 09f6 8F010000 		.4byte	0x18f
 4217 09fa 95150000 		.4byte	.LLST104
 4218 09fe 1B       		.uleb128 0x1b
 4219 09ff 86010000 		.4byte	0x186
ARM GAS  C:\Users\atsu\AppData\Local\Temp\ccFWVBKl.s 			page 87


 4220 0a03 A8150000 		.4byte	.LLST105
 4221 0a07 1B       		.uleb128 0x1b
 4222 0a08 7D010000 		.4byte	0x17d
 4223 0a0c BB150000 		.4byte	.LLST106
 4224 0a10 1B       		.uleb128 0x1b
 4225 0a11 74010000 		.4byte	0x174
 4226 0a15 CE150000 		.4byte	.LLST107
 4227 0a19 00       		.byte	0
 4228 0a1a 21       		.uleb128 0x21
 4229 0a1b 63010000 		.4byte	0x163
 4230 0a1f 68020000 		.4byte	.LBB423
 4231 0a23 18030000 		.4byte	.Ldebug_ranges0+0x318
 4232 0a27 01       		.byte	0x1
 4233 0a28 C4       		.byte	0xc4
 4234 0a29 6B0A0000 		.4byte	0xa6b
 4235 0a2d 20       		.uleb128 0x20
 4236 0a2e AA010000 		.4byte	0x1aa
 4237 0a32 DDA0BCB1 		.sleb128 -701558691
 4237      7D
 4238 0a37 1F       		.uleb128 0x1f
 4239 0a38 A1010000 		.4byte	0x1a1
 4240 0a3c 05       		.byte	0x5
 4241 0a3d 1B       		.uleb128 0x1b
 4242 0a3e 98010000 		.4byte	0x198
 4243 0a42 0E160000 		.4byte	.LLST108
 4244 0a46 1B       		.uleb128 0x1b
 4245 0a47 8F010000 		.4byte	0x18f
 4246 0a4b 23160000 		.4byte	.LLST109
 4247 0a4f 1B       		.uleb128 0x1b
 4248 0a50 86010000 		.4byte	0x186
 4249 0a54 36160000 		.4byte	.LLST110
 4250 0a58 1B       		.uleb128 0x1b
 4251 0a59 7D010000 		.4byte	0x17d
 4252 0a5d 49160000 		.4byte	.LLST111
 4253 0a61 1B       		.uleb128 0x1b
 4254 0a62 74010000 		.4byte	0x174
 4255 0a66 5C160000 		.4byte	.LLST112
 4256 0a6a 00       		.byte	0
 4257 0a6b 21       		.uleb128 0x21
 4258 0a6c 63010000 		.4byte	0x163
 4259 0a70 88020000 		.4byte	.LBB428
 4260 0a74 30030000 		.4byte	.Ldebug_ranges0+0x330
 4261 0a78 01       		.byte	0x1
 4262 0a79 C5       		.byte	0xc5
 4263 0a7a BB0A0000 		.4byte	0xabb
 4264 0a7e 22       		.uleb128 0x22
 4265 0a7f AA010000 		.4byte	0x1aa
 4266 0a83 53144402 		.4byte	0x2441453
 4267 0a87 1F       		.uleb128 0x1f
 4268 0a88 A1010000 		.4byte	0x1a1
 4269 0a8c 09       		.byte	0x9
 4270 0a8d 1B       		.uleb128 0x1b
 4271 0a8e 98010000 		.4byte	0x198
 4272 0a92 9C160000 		.4byte	.LLST113
 4273 0a96 1B       		.uleb128 0x1b
 4274 0a97 8F010000 		.4byte	0x18f
 4275 0a9b B0160000 		.4byte	.LLST114
ARM GAS  C:\Users\atsu\AppData\Local\Temp\ccFWVBKl.s 			page 88


 4276 0a9f 1B       		.uleb128 0x1b
 4277 0aa0 86010000 		.4byte	0x186
 4278 0aa4 C3160000 		.4byte	.LLST115
 4279 0aa8 1B       		.uleb128 0x1b
 4280 0aa9 7D010000 		.4byte	0x17d
 4281 0aad D6160000 		.4byte	.LLST116
 4282 0ab1 1B       		.uleb128 0x1b
 4283 0ab2 74010000 		.4byte	0x174
 4284 0ab6 E9160000 		.4byte	.LLST117
 4285 0aba 00       		.byte	0
 4286 0abb 21       		.uleb128 0x21
 4287 0abc 63010000 		.4byte	0x163
 4288 0ac0 9C020000 		.4byte	.LBB432
 4289 0ac4 50030000 		.4byte	.Ldebug_ranges0+0x350
 4290 0ac8 01       		.byte	0x1
 4291 0ac9 C6       		.byte	0xc6
 4292 0aca 0C0B0000 		.4byte	0xb0c
 4293 0ace 20       		.uleb128 0x20
 4294 0acf AA010000 		.4byte	0x1aa
 4295 0ad3 81CD87C5 		.sleb128 -660478335
 4295      7D
 4296 0ad8 1F       		.uleb128 0x1f
 4297 0ad9 A1010000 		.4byte	0x1a1
 4298 0add 0E       		.byte	0xe
 4299 0ade 1B       		.uleb128 0x1b
 4300 0adf 98010000 		.4byte	0x198
 4301 0ae3 1E170000 		.4byte	.LLST118
 4302 0ae7 1B       		.uleb128 0x1b
 4303 0ae8 8F010000 		.4byte	0x18f
 4304 0aec 32170000 		.4byte	.LLST119
 4305 0af0 1B       		.uleb128 0x1b
 4306 0af1 86010000 		.4byte	0x186
 4307 0af5 45170000 		.4byte	.LLST120
 4308 0af9 1B       		.uleb128 0x1b
 4309 0afa 7D010000 		.4byte	0x17d
 4310 0afe 58170000 		.4byte	.LLST121
 4311 0b02 1B       		.uleb128 0x1b
 4312 0b03 74010000 		.4byte	0x174
 4313 0b07 6B170000 		.4byte	.LLST122
 4314 0b0b 00       		.byte	0
 4315 0b0c 21       		.uleb128 0x21
 4316 0b0d 63010000 		.4byte	0x163
 4317 0b11 BA020000 		.4byte	.LBB442
 4318 0b15 80030000 		.4byte	.Ldebug_ranges0+0x380
 4319 0b19 01       		.byte	0x1
 4320 0b1a C7       		.byte	0xc7
 4321 0b1b 5D0B0000 		.4byte	0xb5d
 4322 0b1f 20       		.uleb128 0x20
 4323 0b20 AA010000 		.4byte	0x1aa
 4324 0b24 C8F7CFBE 		.sleb128 -405537848
 4324      7E
 4325 0b29 1F       		.uleb128 0x1f
 4326 0b2a A1010000 		.4byte	0x1a1
 4327 0b2e 14       		.byte	0x14
 4328 0b2f 1B       		.uleb128 0x1b
 4329 0b30 98010000 		.4byte	0x198
 4330 0b34 A0170000 		.4byte	.LLST123
ARM GAS  C:\Users\atsu\AppData\Local\Temp\ccFWVBKl.s 			page 89


 4331 0b38 1B       		.uleb128 0x1b
 4332 0b39 8F010000 		.4byte	0x18f
 4333 0b3d B5170000 		.4byte	.LLST124
 4334 0b41 1B       		.uleb128 0x1b
 4335 0b42 86010000 		.4byte	0x186
 4336 0b46 C8170000 		.4byte	.LLST125
 4337 0b4a 1B       		.uleb128 0x1b
 4338 0b4b 7D010000 		.4byte	0x17d
 4339 0b4f DB170000 		.4byte	.LLST126
 4340 0b53 1B       		.uleb128 0x1b
 4341 0b54 74010000 		.4byte	0x174
 4342 0b58 EE170000 		.4byte	.LLST127
 4343 0b5c 00       		.byte	0
 4344 0b5d 21       		.uleb128 0x21
 4345 0b5e 63010000 		.4byte	0x163
 4346 0b62 D2020000 		.4byte	.LBB453
 4347 0b66 B8030000 		.4byte	.Ldebug_ranges0+0x3b8
 4348 0b6a 01       		.byte	0x1
 4349 0b6b C8       		.byte	0xc8
 4350 0b6c AD0B0000 		.4byte	0xbad
 4351 0b70 22       		.uleb128 0x22
 4352 0b71 AA010000 		.4byte	0x1aa
 4353 0b75 E6CDE121 		.4byte	0x21e1cde6
 4354 0b79 1F       		.uleb128 0x1f
 4355 0b7a A1010000 		.4byte	0x1a1
 4356 0b7e 05       		.byte	0x5
 4357 0b7f 1B       		.uleb128 0x1b
 4358 0b80 98010000 		.4byte	0x198
 4359 0b84 23180000 		.4byte	.LLST128
 4360 0b88 1B       		.uleb128 0x1b
 4361 0b89 8F010000 		.4byte	0x18f
 4362 0b8d 37180000 		.4byte	.LLST129
 4363 0b91 1B       		.uleb128 0x1b
 4364 0b92 86010000 		.4byte	0x186
 4365 0b96 4A180000 		.4byte	.LLST130
 4366 0b9a 1B       		.uleb128 0x1b
 4367 0b9b 7D010000 		.4byte	0x17d
 4368 0b9f 5D180000 		.4byte	.LLST131
 4369 0ba3 1B       		.uleb128 0x1b
 4370 0ba4 74010000 		.4byte	0x174
 4371 0ba8 70180000 		.4byte	.LLST132
 4372 0bac 00       		.byte	0
 4373 0bad 21       		.uleb128 0x21
 4374 0bae 63010000 		.4byte	0x163
 4375 0bb2 F0020000 		.4byte	.LBB466
 4376 0bb6 F0030000 		.4byte	.Ldebug_ranges0+0x3f0
 4377 0bba 01       		.byte	0x1
 4378 0bbb C9       		.byte	0xc9
 4379 0bbc FE0B0000 		.4byte	0xbfe
 4380 0bc0 20       		.uleb128 0x20
 4381 0bc1 AA010000 		.4byte	0x1aa
 4382 0bc5 D68FDC99 		.sleb128 -1019803690
 4382      7C
 4383 0bca 1F       		.uleb128 0x1f
 4384 0bcb A1010000 		.4byte	0x1a1
 4385 0bcf 09       		.byte	0x9
 4386 0bd0 1B       		.uleb128 0x1b
ARM GAS  C:\Users\atsu\AppData\Local\Temp\ccFWVBKl.s 			page 90


 4387 0bd1 98010000 		.4byte	0x198
 4388 0bd5 A5180000 		.4byte	.LLST133
 4389 0bd9 1B       		.uleb128 0x1b
 4390 0bda 8F010000 		.4byte	0x18f
 4391 0bde B9180000 		.4byte	.LLST134
 4392 0be2 1B       		.uleb128 0x1b
 4393 0be3 86010000 		.4byte	0x186
 4394 0be7 CC180000 		.4byte	.LLST135
 4395 0beb 1B       		.uleb128 0x1b
 4396 0bec 7D010000 		.4byte	0x17d
 4397 0bf0 DF180000 		.4byte	.LLST136
 4398 0bf4 1B       		.uleb128 0x1b
 4399 0bf5 74010000 		.4byte	0x174
 4400 0bf9 F2180000 		.4byte	.LLST137
 4401 0bfd 00       		.byte	0
 4402 0bfe 21       		.uleb128 0x21
 4403 0bff 63010000 		.4byte	0x163
 4404 0c03 0E030000 		.4byte	.LBB476
 4405 0c07 20040000 		.4byte	.Ldebug_ranges0+0x420
 4406 0c0b 01       		.byte	0x1
 4407 0c0c CA       		.byte	0xca
 4408 0c0d 4F0C0000 		.4byte	0xc4f
 4409 0c11 20       		.uleb128 0x20
 4410 0c12 AA010000 		.4byte	0x1aa
 4411 0c16 879BD4A6 		.sleb128 -187363961
 4411      7F
 4412 0c1b 1F       		.uleb128 0x1f
 4413 0c1c A1010000 		.4byte	0x1a1
 4414 0c20 0E       		.byte	0xe
 4415 0c21 1B       		.uleb128 0x1b
 4416 0c22 98010000 		.4byte	0x198
 4417 0c26 27190000 		.4byte	.LLST138
 4418 0c2a 1B       		.uleb128 0x1b
 4419 0c2b 8F010000 		.4byte	0x18f
 4420 0c2f 3C190000 		.4byte	.LLST139
 4421 0c33 1B       		.uleb128 0x1b
 4422 0c34 86010000 		.4byte	0x186
 4423 0c38 4F190000 		.4byte	.LLST140
 4424 0c3c 1B       		.uleb128 0x1b
 4425 0c3d 7D010000 		.4byte	0x17d
 4426 0c41 62190000 		.4byte	.LLST141
 4427 0c45 1B       		.uleb128 0x1b
 4428 0c46 74010000 		.4byte	0x174
 4429 0c4a 75190000 		.4byte	.LLST142
 4430 0c4e 00       		.byte	0
 4431 0c4f 21       		.uleb128 0x21
 4432 0c50 63010000 		.4byte	0x163
 4433 0c54 2A030000 		.4byte	.LBB486
 4434 0c58 50040000 		.4byte	.Ldebug_ranges0+0x450
 4435 0c5c 01       		.byte	0x1
 4436 0c5d CB       		.byte	0xcb
 4437 0c5e 9F0C0000 		.4byte	0xc9f
 4438 0c62 22       		.uleb128 0x22
 4439 0c63 AA010000 		.4byte	0x1aa
 4440 0c67 ED145A45 		.4byte	0x455a14ed
 4441 0c6b 1F       		.uleb128 0x1f
 4442 0c6c A1010000 		.4byte	0x1a1
ARM GAS  C:\Users\atsu\AppData\Local\Temp\ccFWVBKl.s 			page 91


 4443 0c70 14       		.byte	0x14
 4444 0c71 1B       		.uleb128 0x1b
 4445 0c72 98010000 		.4byte	0x198
 4446 0c76 AA190000 		.4byte	.LLST143
 4447 0c7a 1B       		.uleb128 0x1b
 4448 0c7b 8F010000 		.4byte	0x18f
 4449 0c7f BE190000 		.4byte	.LLST144
 4450 0c83 1B       		.uleb128 0x1b
 4451 0c84 86010000 		.4byte	0x186
 4452 0c88 D1190000 		.4byte	.LLST145
 4453 0c8c 1B       		.uleb128 0x1b
 4454 0c8d 7D010000 		.4byte	0x17d
 4455 0c91 E4190000 		.4byte	.LLST146
 4456 0c95 1B       		.uleb128 0x1b
 4457 0c96 74010000 		.4byte	0x174
 4458 0c9a F7190000 		.4byte	.LLST147
 4459 0c9e 00       		.byte	0
 4460 0c9f 21       		.uleb128 0x21
 4461 0ca0 63010000 		.4byte	0x163
 4462 0ca4 42030000 		.4byte	.LBB497
 4463 0ca8 88040000 		.4byte	.Ldebug_ranges0+0x488
 4464 0cac 01       		.byte	0x1
 4465 0cad CC       		.byte	0xcc
 4466 0cae F00C0000 		.4byte	0xcf0
 4467 0cb2 20       		.uleb128 0x20
 4468 0cb3 AA010000 		.4byte	0x1aa
 4469 0cb7 85D28FCF 		.sleb128 -1444681467
 4469      7A
 4470 0cbc 1F       		.uleb128 0x1f
 4471 0cbd A1010000 		.4byte	0x1a1
 4472 0cc1 05       		.byte	0x5
 4473 0cc2 1B       		.uleb128 0x1b
 4474 0cc3 98010000 		.4byte	0x198
 4475 0cc7 2C1A0000 		.4byte	.LLST148
 4476 0ccb 1B       		.uleb128 0x1b
 4477 0ccc 8F010000 		.4byte	0x18f
 4478 0cd0 401A0000 		.4byte	.LLST149
 4479 0cd4 1B       		.uleb128 0x1b
 4480 0cd5 86010000 		.4byte	0x186
 4481 0cd9 531A0000 		.4byte	.LLST150
 4482 0cdd 1B       		.uleb128 0x1b
 4483 0cde 7D010000 		.4byte	0x17d
 4484 0ce2 661A0000 		.4byte	.LLST151
 4485 0ce6 1B       		.uleb128 0x1b
 4486 0ce7 74010000 		.4byte	0x174
 4487 0ceb 791A0000 		.4byte	.LLST152
 4488 0cef 00       		.byte	0
 4489 0cf0 21       		.uleb128 0x21
 4490 0cf1 63010000 		.4byte	0x163
 4491 0cf5 60030000 		.4byte	.LBB510
 4492 0cf9 C0040000 		.4byte	.Ldebug_ranges0+0x4c0
 4493 0cfd 01       		.byte	0x1
 4494 0cfe CD       		.byte	0xcd
 4495 0cff 400D0000 		.4byte	0xd40
 4496 0d03 20       		.uleb128 0x20
 4497 0d04 AA010000 		.4byte	0x1aa
 4498 0d08 F8C7BE67 		.sleb128 -51403784
ARM GAS  C:\Users\atsu\AppData\Local\Temp\ccFWVBKl.s 			page 92


 4499 0d0c 1F       		.uleb128 0x1f
 4500 0d0d A1010000 		.4byte	0x1a1
 4501 0d11 09       		.byte	0x9
 4502 0d12 1B       		.uleb128 0x1b
 4503 0d13 98010000 		.4byte	0x198
 4504 0d17 AE1A0000 		.4byte	.LLST153
 4505 0d1b 1B       		.uleb128 0x1b
 4506 0d1c 8F010000 		.4byte	0x18f
 4507 0d20 C31A0000 		.4byte	.LLST154
 4508 0d24 1B       		.uleb128 0x1b
 4509 0d25 86010000 		.4byte	0x186
 4510 0d29 D61A0000 		.4byte	.LLST155
 4511 0d2d 1B       		.uleb128 0x1b
 4512 0d2e 7D010000 		.4byte	0x17d
 4513 0d32 E91A0000 		.4byte	.LLST156
 4514 0d36 1B       		.uleb128 0x1b
 4515 0d37 74010000 		.4byte	0x174
 4516 0d3b FC1A0000 		.4byte	.LLST157
 4517 0d3f 00       		.byte	0
 4518 0d40 21       		.uleb128 0x21
 4519 0d41 63010000 		.4byte	0x163
 4520 0d45 7E030000 		.4byte	.LBB520
 4521 0d49 F0040000 		.4byte	.Ldebug_ranges0+0x4f0
 4522 0d4d 01       		.byte	0x1
 4523 0d4e CE       		.byte	0xce
 4524 0d4f 900D0000 		.4byte	0xd90
 4525 0d53 22       		.uleb128 0x22
 4526 0d54 AA010000 		.4byte	0x1aa
 4527 0d58 D9026F67 		.4byte	0x676f02d9
 4528 0d5c 1F       		.uleb128 0x1f
 4529 0d5d A1010000 		.4byte	0x1a1
 4530 0d61 0E       		.byte	0xe
 4531 0d62 1B       		.uleb128 0x1b
 4532 0d63 98010000 		.4byte	0x198
 4533 0d67 311B0000 		.4byte	.LLST158
 4534 0d6b 1B       		.uleb128 0x1b
 4535 0d6c 8F010000 		.4byte	0x18f
 4536 0d70 451B0000 		.4byte	.LLST159
 4537 0d74 1B       		.uleb128 0x1b
 4538 0d75 86010000 		.4byte	0x186
 4539 0d79 581B0000 		.4byte	.LLST160
 4540 0d7d 1B       		.uleb128 0x1b
 4541 0d7e 7D010000 		.4byte	0x17d
 4542 0d82 6B1B0000 		.4byte	.LLST161
 4543 0d86 1B       		.uleb128 0x1b
 4544 0d87 74010000 		.4byte	0x174
 4545 0d8b 7E1B0000 		.4byte	.LLST162
 4546 0d8f 00       		.byte	0
 4547 0d90 21       		.uleb128 0x21
 4548 0d91 63010000 		.4byte	0x163
 4549 0d95 9C030000 		.4byte	.LBB529
 4550 0d99 18050000 		.4byte	.Ldebug_ranges0+0x518
 4551 0d9d 01       		.byte	0x1
 4552 0d9e CF       		.byte	0xcf
 4553 0d9f E10D0000 		.4byte	0xde1
 4554 0da3 20       		.uleb128 0x20
 4555 0da4 AA010000 		.4byte	0x1aa
ARM GAS  C:\Users\atsu\AppData\Local\Temp\ccFWVBKl.s 			page 93


 4556 0da8 8A99A9E9 		.sleb128 -1926607734
 4556      78
 4557 0dad 1F       		.uleb128 0x1f
 4558 0dae A1010000 		.4byte	0x1a1
 4559 0db2 14       		.byte	0x14
 4560 0db3 1B       		.uleb128 0x1b
 4561 0db4 98010000 		.4byte	0x198
 4562 0db8 B31B0000 		.4byte	.LLST163
 4563 0dbc 1B       		.uleb128 0x1b
 4564 0dbd 8F010000 		.4byte	0x18f
 4565 0dc1 C71B0000 		.4byte	.LLST164
 4566 0dc5 1B       		.uleb128 0x1b
 4567 0dc6 86010000 		.4byte	0x186
 4568 0dca DA1B0000 		.4byte	.LLST165
 4569 0dce 1B       		.uleb128 0x1b
 4570 0dcf 7D010000 		.4byte	0x17d
 4571 0dd3 ED1B0000 		.4byte	.LLST166
 4572 0dd7 1B       		.uleb128 0x1b
 4573 0dd8 74010000 		.4byte	0x174
 4574 0ddc 001C0000 		.4byte	.LLST167
 4575 0de0 00       		.byte	0
 4576 0de1 21       		.uleb128 0x21
 4577 0de2 B5010000 		.4byte	0x1b5
 4578 0de6 B4030000 		.4byte	.LBB535
 4579 0dea 38050000 		.4byte	.Ldebug_ranges0+0x538
 4580 0dee 01       		.byte	0x1
 4581 0def D2       		.byte	0xd2
 4582 0df0 300E0000 		.4byte	0xe30
 4583 0df4 20       		.uleb128 0x20
 4584 0df5 FC010000 		.4byte	0x1fc
 4585 0df9 C2F268   		.sleb128 -378558
 4586 0dfc 1F       		.uleb128 0x1f
 4587 0dfd F3010000 		.4byte	0x1f3
 4588 0e01 04       		.byte	0x4
 4589 0e02 1B       		.uleb128 0x1b
 4590 0e03 EA010000 		.4byte	0x1ea
 4591 0e07 401C0000 		.4byte	.LLST168
 4592 0e0b 1B       		.uleb128 0x1b
 4593 0e0c E1010000 		.4byte	0x1e1
 4594 0e10 551C0000 		.4byte	.LLST169
 4595 0e14 1B       		.uleb128 0x1b
 4596 0e15 D8010000 		.4byte	0x1d8
 4597 0e19 681C0000 		.4byte	.LLST170
 4598 0e1d 1B       		.uleb128 0x1b
 4599 0e1e CF010000 		.4byte	0x1cf
 4600 0e22 7B1C0000 		.4byte	.LLST171
 4601 0e26 1B       		.uleb128 0x1b
 4602 0e27 C6010000 		.4byte	0x1c6
 4603 0e2b 8E1C0000 		.4byte	.LLST172
 4604 0e2f 00       		.byte	0
 4605 0e30 21       		.uleb128 0x21
 4606 0e31 B5010000 		.4byte	0x1b5
 4607 0e35 C4030000 		.4byte	.LBB543
 4608 0e39 68050000 		.4byte	.Ldebug_ranges0+0x568
 4609 0e3d 01       		.byte	0x1
 4610 0e3e D3       		.byte	0xd3
 4611 0e3f 810E0000 		.4byte	0xe81
ARM GAS  C:\Users\atsu\AppData\Local\Temp\ccFWVBKl.s 			page 94


 4612 0e43 20       		.uleb128 0x20
 4613 0e44 FC010000 		.4byte	0x1fc
 4614 0e48 81EDC7BB 		.sleb128 -2022574463
 4614      78
 4615 0e4d 1F       		.uleb128 0x1f
 4616 0e4e F3010000 		.4byte	0x1f3
 4617 0e52 0B       		.byte	0xb
 4618 0e53 1B       		.uleb128 0x1b
 4619 0e54 EA010000 		.4byte	0x1ea
 4620 0e58 CE1C0000 		.4byte	.LLST173
 4621 0e5c 1B       		.uleb128 0x1b
 4622 0e5d E1010000 		.4byte	0x1e1
 4623 0e61 E21C0000 		.4byte	.LLST174
 4624 0e65 1B       		.uleb128 0x1b
 4625 0e66 D8010000 		.4byte	0x1d8
 4626 0e6a F51C0000 		.4byte	.LLST175
 4627 0e6e 1B       		.uleb128 0x1b
 4628 0e6f CF010000 		.4byte	0x1cf
 4629 0e73 081D0000 		.4byte	.LLST176
 4630 0e77 1B       		.uleb128 0x1b
 4631 0e78 C6010000 		.4byte	0x1c6
 4632 0e7c 1B1D0000 		.4byte	.LLST177
 4633 0e80 00       		.byte	0
 4634 0e81 21       		.uleb128 0x21
 4635 0e82 B5010000 		.4byte	0x1b5
 4636 0e86 DC030000 		.4byte	.LBB556
 4637 0e8a A0050000 		.4byte	.Ldebug_ranges0+0x5a0
 4638 0e8e 01       		.byte	0x1
 4639 0e8f D4       		.byte	0xd4
 4640 0e90 D10E0000 		.4byte	0xed1
 4641 0e94 22       		.uleb128 0x22
 4642 0e95 FC010000 		.4byte	0x1fc
 4643 0e99 22619D6D 		.4byte	0x6d9d6122
 4644 0e9d 1F       		.uleb128 0x1f
 4645 0e9e F3010000 		.4byte	0x1f3
 4646 0ea2 10       		.byte	0x10
 4647 0ea3 1B       		.uleb128 0x1b
 4648 0ea4 EA010000 		.4byte	0x1ea
 4649 0ea8 5B1D0000 		.4byte	.LLST178
 4650 0eac 1B       		.uleb128 0x1b
 4651 0ead E1010000 		.4byte	0x1e1
 4652 0eb1 6F1D0000 		.4byte	.LLST179
 4653 0eb5 1B       		.uleb128 0x1b
 4654 0eb6 D8010000 		.4byte	0x1d8
 4655 0eba 821D0000 		.4byte	.LLST180
 4656 0ebe 1B       		.uleb128 0x1b
 4657 0ebf CF010000 		.4byte	0x1cf
 4658 0ec3 951D0000 		.4byte	.LLST181
 4659 0ec7 1B       		.uleb128 0x1b
 4660 0ec8 C6010000 		.4byte	0x1c6
 4661 0ecc A81D0000 		.4byte	.LLST182
 4662 0ed0 00       		.byte	0
 4663 0ed1 21       		.uleb128 0x21
 4664 0ed2 B5010000 		.4byte	0x1b5
 4665 0ed6 F6030000 		.4byte	.LBB565
 4666 0eda C8050000 		.4byte	.Ldebug_ranges0+0x5c8
 4667 0ede 01       		.byte	0x1
ARM GAS  C:\Users\atsu\AppData\Local\Temp\ccFWVBKl.s 			page 95


 4668 0edf D5       		.byte	0xd5
 4669 0ee0 210F0000 		.4byte	0xf21
 4670 0ee4 20       		.uleb128 0x20
 4671 0ee5 FC010000 		.4byte	0x1fc
 4672 0ee9 8CF0946F 		.sleb128 -35309556
 4673 0eed 1F       		.uleb128 0x1f
 4674 0eee F3010000 		.4byte	0x1f3
 4675 0ef2 17       		.byte	0x17
 4676 0ef3 1B       		.uleb128 0x1b
 4677 0ef4 EA010000 		.4byte	0x1ea
 4678 0ef8 E81D0000 		.4byte	.LLST183
 4679 0efc 1B       		.uleb128 0x1b
 4680 0efd E1010000 		.4byte	0x1e1
 4681 0f01 FC1D0000 		.4byte	.LLST184
 4682 0f05 1B       		.uleb128 0x1b
 4683 0f06 D8010000 		.4byte	0x1d8
 4684 0f0a 0F1E0000 		.4byte	.LLST185
 4685 0f0e 1B       		.uleb128 0x1b
 4686 0f0f CF010000 		.4byte	0x1cf
 4687 0f13 221E0000 		.4byte	.LLST186
 4688 0f17 1B       		.uleb128 0x1b
 4689 0f18 C6010000 		.4byte	0x1c6
 4690 0f1c 351E0000 		.4byte	.LLST187
 4691 0f20 00       		.byte	0
 4692 0f21 21       		.uleb128 0x21
 4693 0f22 B5010000 		.4byte	0x1b5
 4694 0f26 00040000 		.4byte	.LBB575
 4695 0f2a 08060000 		.4byte	.Ldebug_ranges0+0x608
 4696 0f2e 01       		.byte	0x1
 4697 0f2f D6       		.byte	0xd6
 4698 0f30 720F0000 		.4byte	0xf72
 4699 0f34 20       		.uleb128 0x20
 4700 0f35 FC010000 		.4byte	0x1fc
 4701 0f39 C4D4FBA5 		.sleb128 -1530992060
 4701      7A
 4702 0f3e 1F       		.uleb128 0x1f
 4703 0f3f F3010000 		.4byte	0x1f3
 4704 0f43 04       		.byte	0x4
 4705 0f44 1B       		.uleb128 0x1b
 4706 0f45 EA010000 		.4byte	0x1ea
 4707 0f49 6A1E0000 		.4byte	.LLST188
 4708 0f4d 1B       		.uleb128 0x1b
 4709 0f4e E1010000 		.4byte	0x1e1
 4710 0f52 7F1E0000 		.4byte	.LLST189
 4711 0f56 1B       		.uleb128 0x1b
 4712 0f57 D8010000 		.4byte	0x1d8
 4713 0f5b 921E0000 		.4byte	.LLST190
 4714 0f5f 1B       		.uleb128 0x1b
 4715 0f60 CF010000 		.4byte	0x1cf
 4716 0f64 A51E0000 		.4byte	.LLST191
 4717 0f68 1B       		.uleb128 0x1b
 4718 0f69 C6010000 		.4byte	0x1c6
 4719 0f6d B81E0000 		.4byte	.LLST192
 4720 0f71 00       		.byte	0
 4721 0f72 21       		.uleb128 0x21
 4722 0f73 B5010000 		.4byte	0x1b5
 4723 0f77 26040000 		.4byte	.LBB593
ARM GAS  C:\Users\atsu\AppData\Local\Temp\ccFWVBKl.s 			page 96


 4724 0f7b 48060000 		.4byte	.Ldebug_ranges0+0x648
 4725 0f7f 01       		.byte	0x1
 4726 0f80 D7       		.byte	0xd7
 4727 0f81 C20F0000 		.4byte	0xfc2
 4728 0f85 22       		.uleb128 0x22
 4729 0f86 FC010000 		.4byte	0x1fc
 4730 0f8a A9CFDE4B 		.4byte	0x4bdecfa9
 4731 0f8e 1F       		.uleb128 0x1f
 4732 0f8f F3010000 		.4byte	0x1f3
 4733 0f93 0B       		.byte	0xb
 4734 0f94 1B       		.uleb128 0x1b
 4735 0f95 EA010000 		.4byte	0x1ea
 4736 0f99 E21E0000 		.4byte	.LLST193
 4737 0f9d 1B       		.uleb128 0x1b
 4738 0f9e E1010000 		.4byte	0x1e1
 4739 0fa2 F71E0000 		.4byte	.LLST194
 4740 0fa6 1B       		.uleb128 0x1b
 4741 0fa7 D8010000 		.4byte	0x1d8
 4742 0fab 0A1F0000 		.4byte	.LLST195
 4743 0faf 1B       		.uleb128 0x1b
 4744 0fb0 CF010000 		.4byte	0x1cf
 4745 0fb4 1D1F0000 		.4byte	.LLST196
 4746 0fb8 1B       		.uleb128 0x1b
 4747 0fb9 C6010000 		.4byte	0x1c6
 4748 0fbd 301F0000 		.4byte	.LLST197
 4749 0fc1 00       		.byte	0
 4750 0fc2 21       		.uleb128 0x21
 4751 0fc3 B5010000 		.4byte	0x1b5
 4752 0fc7 34040000 		.4byte	.LBB601
 4753 0fcb 78060000 		.4byte	.Ldebug_ranges0+0x678
 4754 0fcf 01       		.byte	0x1
 4755 0fd0 D8       		.byte	0xd8
 4756 0fd1 13100000 		.4byte	0x1013
 4757 0fd5 20       		.uleb128 0x20
 4758 0fd6 FC010000 		.4byte	0x1fc
 4759 0fda E096EDB5 		.sleb128 -155497632
 4759      7F
 4760 0fdf 1F       		.uleb128 0x1f
 4761 0fe0 F3010000 		.4byte	0x1f3
 4762 0fe4 10       		.byte	0x10
 4763 0fe5 1B       		.uleb128 0x1b
 4764 0fe6 EA010000 		.4byte	0x1ea
 4765 0fea 651F0000 		.4byte	.LLST198
 4766 0fee 1B       		.uleb128 0x1b
 4767 0fef E1010000 		.4byte	0x1e1
 4768 0ff3 791F0000 		.4byte	.LLST199
 4769 0ff7 1B       		.uleb128 0x1b
 4770 0ff8 D8010000 		.4byte	0x1d8
 4771 0ffc 8C1F0000 		.4byte	.LLST200
 4772 1000 1B       		.uleb128 0x1b
 4773 1001 CF010000 		.4byte	0x1cf
 4774 1005 9F1F0000 		.4byte	.LLST201
 4775 1009 1B       		.uleb128 0x1b
 4776 100a C6010000 		.4byte	0x1c6
 4777 100e B21F0000 		.4byte	.LLST202
 4778 1012 00       		.byte	0
 4779 1013 21       		.uleb128 0x21
ARM GAS  C:\Users\atsu\AppData\Local\Temp\ccFWVBKl.s 			page 97


 4780 1014 B5010000 		.4byte	0x1b5
 4781 1018 E4040000 		.4byte	.LBB613
 4782 101c B0060000 		.4byte	.Ldebug_ranges0+0x6b0
 4783 1020 01       		.byte	0x1
 4784 1021 D9       		.byte	0xd9
 4785 1022 64100000 		.4byte	0x1064
 4786 1026 20       		.uleb128 0x20
 4787 1027 FC010000 		.4byte	0x1fc
 4788 102b F0F8FEF5 		.sleb128 -1094730640
 4788      7B
 4789 1030 1F       		.uleb128 0x1f
 4790 1031 F3010000 		.4byte	0x1f3
 4791 1035 17       		.byte	0x17
 4792 1036 1B       		.uleb128 0x1b
 4793 1037 EA010000 		.4byte	0x1ea
 4794 103b DC1F0000 		.4byte	.LLST203
 4795 103f 1B       		.uleb128 0x1b
 4796 1040 E1010000 		.4byte	0x1e1
 4797 1044 F01F0000 		.4byte	.LLST204
 4798 1048 1B       		.uleb128 0x1b
 4799 1049 D8010000 		.4byte	0x1d8
 4800 104d 03200000 		.4byte	.LLST205
 4801 1051 1B       		.uleb128 0x1b
 4802 1052 CF010000 		.4byte	0x1cf
 4803 1056 16200000 		.4byte	.LLST206
 4804 105a 1B       		.uleb128 0x1b
 4805 105b C6010000 		.4byte	0x1c6
 4806 105f 29200000 		.4byte	.LLST207
 4807 1063 00       		.byte	0
 4808 1064 21       		.uleb128 0x21
 4809 1065 B5010000 		.4byte	0x1b5
 4810 1069 FA040000 		.4byte	.LBB625
 4811 106d E8060000 		.4byte	.Ldebug_ranges0+0x6e8
 4812 1071 01       		.byte	0x1
 4813 1072 DA       		.byte	0xda
 4814 1073 B4100000 		.4byte	0x10b4
 4815 1077 22       		.uleb128 0x22
 4816 1078 FC010000 		.4byte	0x1fc
 4817 107c C67E9B28 		.4byte	0x289b7ec6
 4818 1080 1F       		.uleb128 0x1f
 4819 1081 F3010000 		.4byte	0x1f3
 4820 1085 04       		.byte	0x4
 4821 1086 1B       		.uleb128 0x1b
 4822 1087 EA010000 		.4byte	0x1ea
 4823 108b 53200000 		.4byte	.LLST208
 4824 108f 1B       		.uleb128 0x1b
 4825 1090 E1010000 		.4byte	0x1e1
 4826 1094 67200000 		.4byte	.LLST209
 4827 1098 1B       		.uleb128 0x1b
 4828 1099 D8010000 		.4byte	0x1d8
 4829 109d 7A200000 		.4byte	.LLST210
 4830 10a1 1B       		.uleb128 0x1b
 4831 10a2 CF010000 		.4byte	0x1cf
 4832 10a6 8D200000 		.4byte	.LLST211
 4833 10aa 1B       		.uleb128 0x1b
 4834 10ab C6010000 		.4byte	0x1c6
 4835 10af A0200000 		.4byte	.LLST212
ARM GAS  C:\Users\atsu\AppData\Local\Temp\ccFWVBKl.s 			page 98


 4836 10b3 00       		.byte	0
 4837 10b4 21       		.uleb128 0x21
 4838 10b5 B5010000 		.4byte	0x1b5
 4839 10b9 1A050000 		.4byte	.LBB637
 4840 10bd 18070000 		.4byte	.Ldebug_ranges0+0x718
 4841 10c1 01       		.byte	0x1
 4842 10c2 DB       		.byte	0xdb
 4843 10c3 05110000 		.4byte	0x1105
 4844 10c7 20       		.uleb128 0x20
 4845 10c8 FC010000 		.4byte	0x1fc
 4846 10cc FACF84D5 		.sleb128 -358537222
 4846      7E
 4847 10d1 1F       		.uleb128 0x1f
 4848 10d2 F3010000 		.4byte	0x1f3
 4849 10d6 0B       		.byte	0xb
 4850 10d7 1B       		.uleb128 0x1b
 4851 10d8 EA010000 		.4byte	0x1ea
 4852 10dc CA200000 		.4byte	.LLST213
 4853 10e0 1B       		.uleb128 0x1b
 4854 10e1 E1010000 		.4byte	0x1e1
 4855 10e5 EB200000 		.4byte	.LLST214
 4856 10e9 1B       		.uleb128 0x1b
 4857 10ea D8010000 		.4byte	0x1d8
 4858 10ee FE200000 		.4byte	.LLST215
 4859 10f2 1B       		.uleb128 0x1b
 4860 10f3 CF010000 		.4byte	0x1cf
 4861 10f7 11210000 		.4byte	.LLST216
 4862 10fb 1B       		.uleb128 0x1b
 4863 10fc C6010000 		.4byte	0x1c6
 4864 1100 24210000 		.4byte	.LLST217
 4865 1104 00       		.byte	0
 4866 1105 21       		.uleb128 0x21
 4867 1106 B5010000 		.4byte	0x1b5
 4868 110a 28050000 		.4byte	.LBB645
 4869 110e 48070000 		.4byte	.Ldebug_ranges0+0x748
 4870 1112 01       		.byte	0x1
 4871 1113 DC       		.byte	0xdc
 4872 1114 56110000 		.4byte	0x1156
 4873 1118 20       		.uleb128 0x20
 4874 1119 FC010000 		.4byte	0x1fc
 4875 111d 85E1BCA7 		.sleb128 -722521979
 4875      7D
 4876 1122 1F       		.uleb128 0x1f
 4877 1123 F3010000 		.4byte	0x1f3
 4878 1127 10       		.byte	0x10
 4879 1128 1B       		.uleb128 0x1b
 4880 1129 EA010000 		.4byte	0x1ea
 4881 112d 59210000 		.4byte	.LLST218
 4882 1131 1B       		.uleb128 0x1b
 4883 1132 E1010000 		.4byte	0x1e1
 4884 1136 6E210000 		.4byte	.LLST219
 4885 113a 1B       		.uleb128 0x1b
 4886 113b D8010000 		.4byte	0x1d8
 4887 113f 81210000 		.4byte	.LLST220
 4888 1143 1B       		.uleb128 0x1b
 4889 1144 CF010000 		.4byte	0x1cf
 4890 1148 94210000 		.4byte	.LLST221
ARM GAS  C:\Users\atsu\AppData\Local\Temp\ccFWVBKl.s 			page 99


 4891 114c 1B       		.uleb128 0x1b
 4892 114d C6010000 		.4byte	0x1c6
 4893 1151 A7210000 		.4byte	.LLST222
 4894 1155 00       		.byte	0
 4895 1156 21       		.uleb128 0x21
 4896 1157 B5010000 		.4byte	0x1b5
 4897 115b 3E050000 		.4byte	.LBB657
 4898 115f 80070000 		.4byte	.Ldebug_ranges0+0x780
 4899 1163 01       		.byte	0x1
 4900 1164 DD       		.byte	0xdd
 4901 1165 A6110000 		.4byte	0x11a6
 4902 1169 22       		.uleb128 0x22
 4903 116a FC010000 		.4byte	0x1fc
 4904 116e 051D8804 		.4byte	0x4881d05
 4905 1172 1F       		.uleb128 0x1f
 4906 1173 F3010000 		.4byte	0x1f3
 4907 1177 17       		.byte	0x17
 4908 1178 1B       		.uleb128 0x1b
 4909 1179 EA010000 		.4byte	0x1ea
 4910 117d D1210000 		.4byte	.LLST223
 4911 1181 1B       		.uleb128 0x1b
 4912 1182 E1010000 		.4byte	0x1e1
 4913 1186 E5210000 		.4byte	.LLST224
 4914 118a 1B       		.uleb128 0x1b
 4915 118b D8010000 		.4byte	0x1d8
 4916 118f F8210000 		.4byte	.LLST225
 4917 1193 1B       		.uleb128 0x1b
 4918 1194 CF010000 		.4byte	0x1cf
 4919 1198 0B220000 		.4byte	.LLST226
 4920 119c 1B       		.uleb128 0x1b
 4921 119d C6010000 		.4byte	0x1c6
 4922 11a1 1E220000 		.4byte	.LLST227
 4923 11a5 00       		.byte	0
 4924 11a6 21       		.uleb128 0x21
 4925 11a7 B5010000 		.4byte	0x1b5
 4926 11ab 54050000 		.4byte	.LBB669
 4927 11af B8070000 		.4byte	.Ldebug_ranges0+0x7b8
 4928 11b3 01       		.byte	0x1
 4929 11b4 DE       		.byte	0xde
 4930 11b5 F7110000 		.4byte	0x11f7
 4931 11b9 20       		.uleb128 0x20
 4932 11ba FC010000 		.4byte	0x1fc
 4933 11be B9A0D3CE 		.sleb128 -640364487
 4933      7D
 4934 11c3 1F       		.uleb128 0x1f
 4935 11c4 F3010000 		.4byte	0x1f3
 4936 11c8 04       		.byte	0x4
 4937 11c9 1B       		.uleb128 0x1b
 4938 11ca EA010000 		.4byte	0x1ea
 4939 11ce 48220000 		.4byte	.LLST228
 4940 11d2 1B       		.uleb128 0x1b
 4941 11d3 E1010000 		.4byte	0x1e1
 4942 11d7 5C220000 		.4byte	.LLST229
 4943 11db 1B       		.uleb128 0x1b
 4944 11dc D8010000 		.4byte	0x1d8
 4945 11e0 6F220000 		.4byte	.LLST230
 4946 11e4 1B       		.uleb128 0x1b
ARM GAS  C:\Users\atsu\AppData\Local\Temp\ccFWVBKl.s 			page 100


 4947 11e5 CF010000 		.4byte	0x1cf
 4948 11e9 82220000 		.4byte	.LLST231
 4949 11ed 1B       		.uleb128 0x1b
 4950 11ee C6010000 		.4byte	0x1c6
 4951 11f2 95220000 		.4byte	.LLST232
 4952 11f6 00       		.byte	0
 4953 11f7 21       		.uleb128 0x21
 4954 11f8 B5010000 		.4byte	0x1b5
 4955 11fc 74050000 		.4byte	.LBB681
 4956 1200 E8070000 		.4byte	.Ldebug_ranges0+0x7e8
 4957 1204 01       		.byte	0x1
 4958 1205 DF       		.byte	0xdf
 4959 1206 48120000 		.4byte	0x1248
 4960 120a 20       		.uleb128 0x20
 4961 120b FC010000 		.4byte	0x1fc
 4962 120f E5B3EEB6 		.sleb128 -421815835
 4962      7E
 4963 1214 1F       		.uleb128 0x1f
 4964 1215 F3010000 		.4byte	0x1f3
 4965 1219 0B       		.byte	0xb
 4966 121a 1B       		.uleb128 0x1b
 4967 121b EA010000 		.4byte	0x1ea
 4968 121f BF220000 		.4byte	.LLST233
 4969 1223 1B       		.uleb128 0x1b
 4970 1224 E1010000 		.4byte	0x1e1
 4971 1228 D3220000 		.4byte	.LLST234
 4972 122c 1B       		.uleb128 0x1b
 4973 122d D8010000 		.4byte	0x1d8
 4974 1231 E6220000 		.4byte	.LLST235
 4975 1235 1B       		.uleb128 0x1b
 4976 1236 CF010000 		.4byte	0x1cf
 4977 123a F9220000 		.4byte	.LLST236
 4978 123e 1B       		.uleb128 0x1b
 4979 123f C6010000 		.4byte	0x1c6
 4980 1243 0C230000 		.4byte	.LLST237
 4981 1247 00       		.byte	0
 4982 1248 21       		.uleb128 0x21
 4983 1249 B5010000 		.4byte	0x1b5
 4984 124d 8A050000 		.4byte	.LBB687
 4985 1251 08080000 		.4byte	.Ldebug_ranges0+0x808
 4986 1255 01       		.byte	0x1
 4987 1256 E0       		.byte	0xe0
 4988 1257 98120000 		.4byte	0x1298
 4989 125b 22       		.uleb128 0x22
 4990 125c FC010000 		.4byte	0x1fc
 4991 1260 F87CA21F 		.4byte	0x1fa27cf8
 4992 1264 1F       		.uleb128 0x1f
 4993 1265 F3010000 		.4byte	0x1f3
 4994 1269 10       		.byte	0x10
 4995 126a 1B       		.uleb128 0x1b
 4996 126b EA010000 		.4byte	0x1ea
 4997 126f 41230000 		.4byte	.LLST238
 4998 1273 1B       		.uleb128 0x1b
 4999 1274 E1010000 		.4byte	0x1e1
 5000 1278 55230000 		.4byte	.LLST239
 5001 127c 1B       		.uleb128 0x1b
 5002 127d D8010000 		.4byte	0x1d8
ARM GAS  C:\Users\atsu\AppData\Local\Temp\ccFWVBKl.s 			page 101


 5003 1281 68230000 		.4byte	.LLST240
 5004 1285 1B       		.uleb128 0x1b
 5005 1286 CF010000 		.4byte	0x1cf
 5006 128a 7B230000 		.4byte	.LLST241
 5007 128e 1B       		.uleb128 0x1b
 5008 128f C6010000 		.4byte	0x1c6
 5009 1293 8E230000 		.4byte	.LLST242
 5010 1297 00       		.byte	0
 5011 1298 21       		.uleb128 0x21
 5012 1299 B5010000 		.4byte	0x1b5
 5013 129d A0050000 		.4byte	.LBB693
 5014 12a1 28080000 		.4byte	.Ldebug_ranges0+0x828
 5015 12a5 01       		.byte	0x1
 5016 12a6 E1       		.byte	0xe1
 5017 12a7 E9120000 		.4byte	0x12e9
 5018 12ab 20       		.uleb128 0x20
 5019 12ac FC010000 		.4byte	0x1fc
 5020 12b0 E5ACB1A5 		.sleb128 -995338651
 5020      7C
 5021 12b5 1F       		.uleb128 0x1f
 5022 12b6 F3010000 		.4byte	0x1f3
 5023 12ba 17       		.byte	0x17
 5024 12bb 1B       		.uleb128 0x1b
 5025 12bc EA010000 		.4byte	0x1ea
 5026 12c0 C3230000 		.4byte	.LLST243
 5027 12c4 1B       		.uleb128 0x1b
 5028 12c5 E1010000 		.4byte	0x1e1
 5029 12c9 D8230000 		.4byte	.LLST244
 5030 12cd 1B       		.uleb128 0x1b
 5031 12ce D8010000 		.4byte	0x1d8
 5032 12d2 EB230000 		.4byte	.LLST245
 5033 12d6 1B       		.uleb128 0x1b
 5034 12d7 CF010000 		.4byte	0x1cf
 5035 12db FE230000 		.4byte	.LLST246
 5036 12df 1B       		.uleb128 0x1b
 5037 12e0 C6010000 		.4byte	0x1c6
 5038 12e4 11240000 		.4byte	.LLST247
 5039 12e8 00       		.byte	0
 5040 12e9 21       		.uleb128 0x21
 5041 12ea 07020000 		.4byte	0x207
 5042 12ee B4050000 		.4byte	.LBB699
 5043 12f2 48080000 		.4byte	.Ldebug_ranges0+0x848
 5044 12f6 01       		.byte	0x1
 5045 12f7 E4       		.byte	0xe4
 5046 12f8 3A130000 		.4byte	0x133a
 5047 12fc 20       		.uleb128 0x20
 5048 12fd 4E020000 		.4byte	0x24e
 5049 1301 C4C4A4A1 		.sleb128 -198630844
 5049      7F
 5050 1306 1F       		.uleb128 0x1f
 5051 1307 45020000 		.4byte	0x245
 5052 130b 06       		.byte	0x6
 5053 130c 1B       		.uleb128 0x1b
 5054 130d 3C020000 		.4byte	0x23c
 5055 1311 51240000 		.4byte	.LLST248
 5056 1315 1B       		.uleb128 0x1b
 5057 1316 33020000 		.4byte	0x233
ARM GAS  C:\Users\atsu\AppData\Local\Temp\ccFWVBKl.s 			page 102


 5058 131a 72240000 		.4byte	.LLST249
 5059 131e 1B       		.uleb128 0x1b
 5060 131f 2A020000 		.4byte	0x22a
 5061 1323 85240000 		.4byte	.LLST250
 5062 1327 1B       		.uleb128 0x1b
 5063 1328 21020000 		.4byte	0x221
 5064 132c 98240000 		.4byte	.LLST251
 5065 1330 1B       		.uleb128 0x1b
 5066 1331 18020000 		.4byte	0x218
 5067 1335 AB240000 		.4byte	.LLST252
 5068 1339 00       		.byte	0
 5069 133a 21       		.uleb128 0x21
 5070 133b 07020000 		.4byte	0x207
 5071 133f C8050000 		.4byte	.LBB706
 5072 1343 70080000 		.4byte	.Ldebug_ranges0+0x870
 5073 1347 01       		.byte	0x1
 5074 1348 E5       		.byte	0xe5
 5075 1349 8A130000 		.4byte	0x138a
 5076 134d 22       		.uleb128 0x22
 5077 134e 4E020000 		.4byte	0x24e
 5078 1352 97FF2A43 		.4byte	0x432aff97
 5079 1356 1F       		.uleb128 0x1f
 5080 1357 45020000 		.4byte	0x245
 5081 135b 0A       		.byte	0xa
 5082 135c 1B       		.uleb128 0x1b
 5083 135d 3C020000 		.4byte	0x23c
 5084 1361 E0240000 		.4byte	.LLST253
 5085 1365 1B       		.uleb128 0x1b
 5086 1366 33020000 		.4byte	0x233
 5087 136a F4240000 		.4byte	.LLST254
 5088 136e 1B       		.uleb128 0x1b
 5089 136f 2A020000 		.4byte	0x22a
 5090 1373 07250000 		.4byte	.LLST255
 5091 1377 1B       		.uleb128 0x1b
 5092 1378 21020000 		.4byte	0x221
 5093 137c 1A250000 		.4byte	.LLST256
 5094 1380 1B       		.uleb128 0x1b
 5095 1381 18020000 		.4byte	0x218
 5096 1385 2D250000 		.4byte	.LLST257
 5097 1389 00       		.byte	0
 5098 138a 21       		.uleb128 0x21
 5099 138b 07020000 		.4byte	0x207
 5100 138f DE050000 		.4byte	.LBB715
 5101 1393 98080000 		.4byte	.Ldebug_ranges0+0x898
 5102 1397 01       		.byte	0x1
 5103 1398 E6       		.byte	0xe6
 5104 1399 DB130000 		.4byte	0x13db
 5105 139d 20       		.uleb128 0x20
 5106 139e 4E020000 		.4byte	0x24e
 5107 13a2 A7C7D0DC 		.sleb128 -1416354905
 5107      7A
 5108 13a7 1F       		.uleb128 0x1f
 5109 13a8 45020000 		.4byte	0x245
 5110 13ac 0F       		.byte	0xf
 5111 13ad 1B       		.uleb128 0x1b
 5112 13ae 3C020000 		.4byte	0x23c
 5113 13b2 62250000 		.4byte	.LLST258
ARM GAS  C:\Users\atsu\AppData\Local\Temp\ccFWVBKl.s 			page 103


 5114 13b6 1B       		.uleb128 0x1b
 5115 13b7 33020000 		.4byte	0x233
 5116 13bb 76250000 		.4byte	.LLST259
 5117 13bf 1B       		.uleb128 0x1b
 5118 13c0 2A020000 		.4byte	0x22a
 5119 13c4 89250000 		.4byte	.LLST260
 5120 13c8 1B       		.uleb128 0x1b
 5121 13c9 21020000 		.4byte	0x221
 5122 13cd 9C250000 		.4byte	.LLST261
 5123 13d1 1B       		.uleb128 0x1b
 5124 13d2 18020000 		.4byte	0x218
 5125 13d6 AF250000 		.4byte	.LLST262
 5126 13da 00       		.byte	0
 5127 13db 21       		.uleb128 0x21
 5128 13dc 07020000 		.4byte	0x207
 5129 13e0 F6050000 		.4byte	.LBB721
 5130 13e4 B8080000 		.4byte	.Ldebug_ranges0+0x8b8
 5131 13e8 01       		.byte	0x1
 5132 13e9 E7       		.byte	0xe7
 5133 13ea 2B140000 		.4byte	0x142b
 5134 13ee 20       		.uleb128 0x20
 5135 13ef 4E020000 		.4byte	0x24e
 5136 13f3 B9C0CE64 		.sleb128 -57434055
 5137 13f7 1F       		.uleb128 0x1f
 5138 13f8 45020000 		.4byte	0x245
 5139 13fc 15       		.byte	0x15
 5140 13fd 1B       		.uleb128 0x1b
 5141 13fe 3C020000 		.4byte	0x23c
 5142 1402 EF250000 		.4byte	.LLST263
 5143 1406 1B       		.uleb128 0x1b
 5144 1407 33020000 		.4byte	0x233
 5145 140b 04260000 		.4byte	.LLST264
 5146 140f 1B       		.uleb128 0x1b
 5147 1410 2A020000 		.4byte	0x22a
 5148 1414 17260000 		.4byte	.LLST265
 5149 1418 1B       		.uleb128 0x1b
 5150 1419 21020000 		.4byte	0x221
 5151 141d 2A260000 		.4byte	.LLST266
 5152 1421 1B       		.uleb128 0x1b
 5153 1422 18020000 		.4byte	0x218
 5154 1426 3D260000 		.4byte	.LLST267
 5155 142a 00       		.byte	0
 5156 142b 21       		.uleb128 0x21
 5157 142c 07020000 		.4byte	0x207
 5158 1430 10060000 		.4byte	.LBB727
 5159 1434 D8080000 		.4byte	.Ldebug_ranges0+0x8d8
 5160 1438 01       		.byte	0x1
 5161 1439 E8       		.byte	0xe8
 5162 143a 7B140000 		.4byte	0x147b
 5163 143e 22       		.uleb128 0x22
 5164 143f 4E020000 		.4byte	0x24e
 5165 1443 C3595B65 		.4byte	0x655b59c3
 5166 1447 1F       		.uleb128 0x1f
 5167 1448 45020000 		.4byte	0x245
 5168 144c 06       		.byte	0x6
 5169 144d 1B       		.uleb128 0x1b
 5170 144e 3C020000 		.4byte	0x23c
ARM GAS  C:\Users\atsu\AppData\Local\Temp\ccFWVBKl.s 			page 104


 5171 1452 72260000 		.4byte	.LLST268
 5172 1456 1B       		.uleb128 0x1b
 5173 1457 33020000 		.4byte	0x233
 5174 145b 86260000 		.4byte	.LLST269
 5175 145f 1B       		.uleb128 0x1b
 5176 1460 2A020000 		.4byte	0x22a
 5177 1464 99260000 		.4byte	.LLST270
 5178 1468 1B       		.uleb128 0x1b
 5179 1469 21020000 		.4byte	0x221
 5180 146d AC260000 		.4byte	.LLST271
 5181 1471 1B       		.uleb128 0x1b
 5182 1472 18020000 		.4byte	0x218
 5183 1476 BF260000 		.4byte	.LLST272
 5184 147a 00       		.byte	0
 5185 147b 21       		.uleb128 0x21
 5186 147c 07020000 		.4byte	0x207
 5187 1480 26060000 		.4byte	.LBB733
 5188 1484 F8080000 		.4byte	.Ldebug_ranges0+0x8f8
 5189 1488 01       		.byte	0x1
 5190 1489 E9       		.byte	0xe9
 5191 148a CC140000 		.4byte	0x14cc
 5192 148e 20       		.uleb128 0x20
 5193 148f 4E020000 		.4byte	0x24e
 5194 1493 9299B3F8 		.sleb128 -1894986606
 5194      78
 5195 1498 1F       		.uleb128 0x1f
 5196 1499 45020000 		.4byte	0x245
 5197 149d 0A       		.byte	0xa
 5198 149e 1B       		.uleb128 0x1b
 5199 149f 3C020000 		.4byte	0x23c
 5200 14a3 F4260000 		.4byte	.LLST273
 5201 14a7 1B       		.uleb128 0x1b
 5202 14a8 33020000 		.4byte	0x233
 5203 14ac 09270000 		.4byte	.LLST274
 5204 14b0 1B       		.uleb128 0x1b
 5205 14b1 2A020000 		.4byte	0x22a
 5206 14b5 1C270000 		.4byte	.LLST275
 5207 14b9 1B       		.uleb128 0x1b
 5208 14ba 21020000 		.4byte	0x221
 5209 14be 2F270000 		.4byte	.LLST276
 5210 14c2 1B       		.uleb128 0x1b
 5211 14c3 18020000 		.4byte	0x218
 5212 14c7 42270000 		.4byte	.LLST277
 5213 14cb 00       		.byte	0
 5214 14cc 1A       		.uleb128 0x1a
 5215 14cd 07020000 		.4byte	0x207
 5216 14d1 3C060000 		.4byte	.LBB738
 5217 14d5 50060000 		.4byte	.LBE738
 5218 14d9 01       		.byte	0x1
 5219 14da EA       		.byte	0xea
 5220 14db 1C150000 		.4byte	0x151c
 5221 14df 20       		.uleb128 0x20
 5222 14e0 4E020000 		.4byte	0x24e
 5223 14e4 FDE8BF7F 		.sleb128 -1051523
 5224 14e8 1F       		.uleb128 0x1f
 5225 14e9 45020000 		.4byte	0x245
 5226 14ed 0F       		.byte	0xf
ARM GAS  C:\Users\atsu\AppData\Local\Temp\ccFWVBKl.s 			page 105


 5227 14ee 1B       		.uleb128 0x1b
 5228 14ef 3C020000 		.4byte	0x23c
 5229 14f3 82270000 		.4byte	.LLST278
 5230 14f7 1B       		.uleb128 0x1b
 5231 14f8 33020000 		.4byte	0x233
 5232 14fc 96270000 		.4byte	.LLST279
 5233 1500 1B       		.uleb128 0x1b
 5234 1501 2A020000 		.4byte	0x22a
 5235 1505 A9270000 		.4byte	.LLST280
 5236 1509 1B       		.uleb128 0x1b
 5237 150a 21020000 		.4byte	0x221
 5238 150e BC270000 		.4byte	.LLST281
 5239 1512 1B       		.uleb128 0x1b
 5240 1513 18020000 		.4byte	0x218
 5241 1517 CF270000 		.4byte	.LLST282
 5242 151b 00       		.byte	0
 5243 151c 1A       		.uleb128 0x1a
 5244 151d 07020000 		.4byte	0x207
 5245 1521 50060000 		.4byte	.LBB740
 5246 1525 66060000 		.4byte	.LBE740
 5247 1529 01       		.byte	0x1
 5248 152a EB       		.byte	0xeb
 5249 152b 6D150000 		.4byte	0x156d
 5250 152f 20       		.uleb128 0x20
 5251 1530 4E020000 		.4byte	0x24e
 5252 1534 D1BB91AC 		.sleb128 -2054922799
 5252      78
 5253 1539 1F       		.uleb128 0x1f
 5254 153a 45020000 		.4byte	0x245
 5255 153e 15       		.byte	0x15
 5256 153f 1B       		.uleb128 0x1b
 5257 1540 3C020000 		.4byte	0x23c
 5258 1544 0F280000 		.4byte	.LLST283
 5259 1548 1B       		.uleb128 0x1b
 5260 1549 33020000 		.4byte	0x233
 5261 154d 24280000 		.4byte	.LLST284
 5262 1551 1B       		.uleb128 0x1b
 5263 1552 2A020000 		.4byte	0x22a
 5264 1556 37280000 		.4byte	.LLST285
 5265 155a 1B       		.uleb128 0x1b
 5266 155b 21020000 		.4byte	0x221
 5267 155f 4A280000 		.4byte	.LLST286
 5268 1563 1B       		.uleb128 0x1b
 5269 1564 18020000 		.4byte	0x218
 5270 1568 5D280000 		.4byte	.LLST287
 5271 156c 00       		.byte	0
 5272 156d 1A       		.uleb128 0x1a
 5273 156e 07020000 		.4byte	0x207
 5274 1572 66060000 		.4byte	.LBB742
 5275 1576 7C060000 		.4byte	.LBE742
 5276 157a 01       		.byte	0x1
 5277 157b EC       		.byte	0xec
 5278 157c BD150000 		.4byte	0x15bd
 5279 1580 22       		.uleb128 0x22
 5280 1581 4E020000 		.4byte	0x24e
 5281 1585 4F7EA86F 		.4byte	0x6fa87e4f
 5282 1589 1F       		.uleb128 0x1f
ARM GAS  C:\Users\atsu\AppData\Local\Temp\ccFWVBKl.s 			page 106


 5283 158a 45020000 		.4byte	0x245
 5284 158e 06       		.byte	0x6
 5285 158f 1B       		.uleb128 0x1b
 5286 1590 3C020000 		.4byte	0x23c
 5287 1594 9D280000 		.4byte	.LLST288
 5288 1598 1B       		.uleb128 0x1b
 5289 1599 33020000 		.4byte	0x233
 5290 159d B1280000 		.4byte	.LLST289
 5291 15a1 1B       		.uleb128 0x1b
 5292 15a2 2A020000 		.4byte	0x22a
 5293 15a6 C4280000 		.4byte	.LLST290
 5294 15aa 1B       		.uleb128 0x1b
 5295 15ab 21020000 		.4byte	0x221
 5296 15af D7280000 		.4byte	.LLST291
 5297 15b3 1B       		.uleb128 0x1b
 5298 15b4 18020000 		.4byte	0x218
 5299 15b8 EA280000 		.4byte	.LLST292
 5300 15bc 00       		.byte	0
 5301 15bd 1A       		.uleb128 0x1a
 5302 15be 07020000 		.4byte	0x207
 5303 15c2 7C060000 		.4byte	.LBB744
 5304 15c6 90060000 		.4byte	.LBE744
 5305 15ca 01       		.byte	0x1
 5306 15cb ED       		.byte	0xed
 5307 15cc 0D160000 		.4byte	0x160d
 5308 15d0 20       		.uleb128 0x20
 5309 15d1 4E020000 		.4byte	0x24e
 5310 15d5 E0CDB371 		.sleb128 -30611744
 5311 15d9 1F       		.uleb128 0x1f
 5312 15da 45020000 		.4byte	0x245
 5313 15de 0A       		.byte	0xa
 5314 15df 1B       		.uleb128 0x1b
 5315 15e0 3C020000 		.4byte	0x23c
 5316 15e4 2A290000 		.4byte	.LLST293
 5317 15e8 1B       		.uleb128 0x1b
 5318 15e9 33020000 		.4byte	0x233
 5319 15ed 3E290000 		.4byte	.LLST294
 5320 15f1 1B       		.uleb128 0x1b
 5321 15f2 2A020000 		.4byte	0x22a
 5322 15f6 51290000 		.4byte	.LLST295
 5323 15fa 1B       		.uleb128 0x1b
 5324 15fb 21020000 		.4byte	0x221
 5325 15ff 64290000 		.4byte	.LLST296
 5326 1603 1B       		.uleb128 0x1b
 5327 1604 18020000 		.4byte	0x218
 5328 1608 77290000 		.4byte	.LLST297
 5329 160c 00       		.byte	0
 5330 160d 1A       		.uleb128 0x1a
 5331 160e 07020000 		.4byte	0x207
 5332 1612 90060000 		.4byte	.LBB746
 5333 1616 A4060000 		.4byte	.LBE746
 5334 161a 01       		.byte	0x1
 5335 161b EE       		.byte	0xee
 5336 161c 5E160000 		.4byte	0x165e
 5337 1620 20       		.uleb128 0x20
 5338 1621 4E020000 		.4byte	0x24e
 5339 1625 94868598 		.sleb128 -1560198380
ARM GAS  C:\Users\atsu\AppData\Local\Temp\ccFWVBKl.s 			page 107


 5339      7A
 5340 162a 1F       		.uleb128 0x1f
 5341 162b 45020000 		.4byte	0x245
 5342 162f 0F       		.byte	0xf
 5343 1630 1B       		.uleb128 0x1b
 5344 1631 3C020000 		.4byte	0x23c
 5345 1635 B7290000 		.4byte	.LLST298
 5346 1639 1B       		.uleb128 0x1b
 5347 163a 33020000 		.4byte	0x233
 5348 163e CB290000 		.4byte	.LLST299
 5349 1642 1B       		.uleb128 0x1b
 5350 1643 2A020000 		.4byte	0x22a
 5351 1647 DE290000 		.4byte	.LLST300
 5352 164b 1B       		.uleb128 0x1b
 5353 164c 21020000 		.4byte	0x221
 5354 1650 F1290000 		.4byte	.LLST301
 5355 1654 1B       		.uleb128 0x1b
 5356 1655 18020000 		.4byte	0x218
 5357 1659 042A0000 		.4byte	.LLST302
 5358 165d 00       		.byte	0
 5359 165e 1A       		.uleb128 0x1a
 5360 165f 07020000 		.4byte	0x207
 5361 1663 A4060000 		.4byte	.LBB748
 5362 1667 BA060000 		.4byte	.LBE748
 5363 166b 01       		.byte	0x1
 5364 166c EF       		.byte	0xef
 5365 166d AE160000 		.4byte	0x16ae
 5366 1671 22       		.uleb128 0x22
 5367 1672 4E020000 		.4byte	0x24e
 5368 1676 A111084E 		.4byte	0x4e0811a1
 5369 167a 1F       		.uleb128 0x1f
 5370 167b 45020000 		.4byte	0x245
 5371 167f 15       		.byte	0x15
 5372 1680 1B       		.uleb128 0x1b
 5373 1681 3C020000 		.4byte	0x23c
 5374 1685 442A0000 		.4byte	.LLST303
 5375 1689 1B       		.uleb128 0x1b
 5376 168a 33020000 		.4byte	0x233
 5377 168e 582A0000 		.4byte	.LLST304
 5378 1692 1B       		.uleb128 0x1b
 5379 1693 2A020000 		.4byte	0x22a
 5380 1697 6B2A0000 		.4byte	.LLST305
 5381 169b 1B       		.uleb128 0x1b
 5382 169c 21020000 		.4byte	0x221
 5383 16a0 7E2A0000 		.4byte	.LLST306
 5384 16a4 1B       		.uleb128 0x1b
 5385 16a5 18020000 		.4byte	0x218
 5386 16a9 912A0000 		.4byte	.LLST307
 5387 16ad 00       		.byte	0
 5388 16ae 1A       		.uleb128 0x1a
 5389 16af 07020000 		.4byte	0x207
 5390 16b3 BA060000 		.4byte	.LBB750
 5391 16b7 D0060000 		.4byte	.LBE750
 5392 16bb 01       		.byte	0x1
 5393 16bc F0       		.byte	0xf0
 5394 16bd FF160000 		.4byte	0x16ff
 5395 16c1 20       		.uleb128 0x20
ARM GAS  C:\Users\atsu\AppData\Local\Temp\ccFWVBKl.s 			page 108


 5396 16c2 4E020000 		.4byte	0x24e
 5397 16c6 82FDCDBA 		.sleb128 -145523070
 5397      7F
 5398 16cb 1F       		.uleb128 0x1f
 5399 16cc 45020000 		.4byte	0x245
 5400 16d0 06       		.byte	0x6
 5401 16d1 1B       		.uleb128 0x1b
 5402 16d2 3C020000 		.4byte	0x23c
 5403 16d6 D12A0000 		.4byte	.LLST308
 5404 16da 1B       		.uleb128 0x1b
 5405 16db 33020000 		.4byte	0x233
 5406 16df E62A0000 		.4byte	.LLST309
 5407 16e3 1B       		.uleb128 0x1b
 5408 16e4 2A020000 		.4byte	0x22a
 5409 16e8 F92A0000 		.4byte	.LLST310
 5410 16ec 1B       		.uleb128 0x1b
 5411 16ed 21020000 		.4byte	0x221
 5412 16f1 0C2B0000 		.4byte	.LLST311
 5413 16f5 1B       		.uleb128 0x1b
 5414 16f6 18020000 		.4byte	0x218
 5415 16fa 1F2B0000 		.4byte	.LLST312
 5416 16fe 00       		.byte	0
 5417 16ff 21       		.uleb128 0x21
 5418 1700 07020000 		.4byte	0x207
 5419 1704 D0060000 		.4byte	.LBB752
 5420 1708 10090000 		.4byte	.Ldebug_ranges0+0x910
 5421 170c 01       		.byte	0x1
 5422 170d F1       		.byte	0xf1
 5423 170e 50170000 		.4byte	0x1750
 5424 1712 20       		.uleb128 0x20
 5425 1713 4E020000 		.4byte	0x24e
 5426 1717 B5E4EBE9 		.sleb128 -1120210379
 5426      7B
 5427 171c 1F       		.uleb128 0x1f
 5428 171d 45020000 		.4byte	0x245
 5429 1721 0A       		.byte	0xa
 5430 1722 1B       		.uleb128 0x1b
 5431 1723 3C020000 		.4byte	0x23c
 5432 1727 6D2B0000 		.4byte	.LLST313
 5433 172b 1B       		.uleb128 0x1b
 5434 172c 33020000 		.4byte	0x233
 5435 1730 812B0000 		.4byte	.LLST314
 5436 1734 1B       		.uleb128 0x1b
 5437 1735 2A020000 		.4byte	0x22a
 5438 1739 942B0000 		.4byte	.LLST315
 5439 173d 1B       		.uleb128 0x1b
 5440 173e 21020000 		.4byte	0x221
 5441 1742 A72B0000 		.4byte	.LLST316
 5442 1746 1B       		.uleb128 0x1b
 5443 1747 18020000 		.4byte	0x218
 5444 174b C82B0000 		.4byte	.LLST317
 5445 174f 00       		.byte	0
 5446 1750 21       		.uleb128 0x21
 5447 1751 07020000 		.4byte	0x207
 5448 1755 E2060000 		.4byte	.LBB755
 5449 1759 28090000 		.4byte	.Ldebug_ranges0+0x928
 5450 175d 01       		.byte	0x1
ARM GAS  C:\Users\atsu\AppData\Local\Temp\ccFWVBKl.s 			page 109


 5451 175e F2       		.byte	0xf2
 5452 175f A0170000 		.4byte	0x17a0
 5453 1763 22       		.uleb128 0x22
 5454 1764 4E020000 		.4byte	0x24e
 5455 1768 BBD2D72A 		.4byte	0x2ad7d2bb
 5456 176c 1F       		.uleb128 0x1f
 5457 176d 45020000 		.4byte	0x245
 5458 1771 0F       		.byte	0xf
 5459 1772 1B       		.uleb128 0x1b
 5460 1773 3C020000 		.4byte	0x23c
 5461 1777 082C0000 		.4byte	.LLST318
 5462 177b 1B       		.uleb128 0x1b
 5463 177c 33020000 		.4byte	0x233
 5464 1780 1D2C0000 		.4byte	.LLST319
 5465 1784 1B       		.uleb128 0x1b
 5466 1785 2A020000 		.4byte	0x22a
 5467 1789 302C0000 		.4byte	.LLST320
 5468 178d 1B       		.uleb128 0x1b
 5469 178e 21020000 		.4byte	0x221
 5470 1792 512C0000 		.4byte	.LLST321
 5471 1796 1B       		.uleb128 0x1b
 5472 1797 18020000 		.4byte	0x218
 5473 179b 642C0000 		.4byte	.LLST322
 5474 179f 00       		.byte	0
 5475 17a0 21       		.uleb128 0x21
 5476 17a1 07020000 		.4byte	0x207
 5477 17a5 F6060000 		.4byte	.LBB761
 5478 17a9 48090000 		.4byte	.Ldebug_ranges0+0x948
 5479 17ad 01       		.byte	0x1
 5480 17ae F3       		.byte	0xf3
 5481 17af F1170000 		.4byte	0x17f1
 5482 17b3 20       		.uleb128 0x20
 5483 17b4 4E020000 		.4byte	0x24e
 5484 17b8 91A79BDC 		.sleb128 -343485551
 5484      7E
 5485 17bd 1F       		.uleb128 0x1f
 5486 17be 45020000 		.4byte	0x245
 5487 17c2 15       		.byte	0x15
 5488 17c3 1B       		.uleb128 0x1b
 5489 17c4 3C020000 		.4byte	0x23c
 5490 17c8 A42C0000 		.4byte	.LLST323
 5491 17cc 1B       		.uleb128 0x1b
 5492 17cd 33020000 		.4byte	0x233
 5493 17d1 B82C0000 		.4byte	.LLST324
 5494 17d5 1B       		.uleb128 0x1b
 5495 17d6 2A020000 		.4byte	0x22a
 5496 17da D92C0000 		.4byte	.LLST325
 5497 17de 1B       		.uleb128 0x1b
 5498 17df 21020000 		.4byte	0x221
 5499 17e3 EC2C0000 		.4byte	.LLST326
 5500 17e7 1B       		.uleb128 0x1b
 5501 17e8 18020000 		.4byte	0x218
 5502 17ec FF2C0000 		.4byte	.LLST327
 5503 17f0 00       		.byte	0
 5504 17f1 23       		.uleb128 0x23
 5505 17f2 34070000 		.4byte	.LVL285
 5506 17f6 8F1B0000 		.4byte	0x1b8f
ARM GAS  C:\Users\atsu\AppData\Local\Temp\ccFWVBKl.s 			page 110


 5507 17fa 24       		.uleb128 0x24
 5508 17fb 01       		.byte	0x1
 5509 17fc 52       		.byte	0x52
 5510 17fd 04       		.byte	0x4
 5511 17fe 91       		.byte	0x91
 5512 17ff 987F     		.sleb128 -104
 5513 1801 06       		.byte	0x6
 5514 1802 24       		.uleb128 0x24
 5515 1803 01       		.byte	0x1
 5516 1804 51       		.byte	0x51
 5517 1805 04       		.byte	0x4
 5518 1806 91       		.byte	0x91
 5519 1807 987F     		.sleb128 -104
 5520 1809 06       		.byte	0x6
 5521 180a 24       		.uleb128 0x24
 5522 180b 01       		.byte	0x1
 5523 180c 50       		.byte	0x50
 5524 180d 03       		.byte	0x3
 5525 180e 91       		.byte	0x91
 5526 180f A87F     		.sleb128 -88
 5527 1811 00       		.byte	0
 5528 1812 00       		.byte	0
 5529 1813 08       		.uleb128 0x8
 5530 1814 8A000000 		.4byte	0x8a
 5531 1818 23180000 		.4byte	0x1823
 5532 181c 09       		.uleb128 0x9
 5533 181d 68000000 		.4byte	0x68
 5534 1821 0F       		.byte	0xf
 5535 1822 00       		.byte	0
 5536 1823 25       		.uleb128 0x25
 5537 1824 11010000 		.4byte	0x111
 5538 1828 00000000 		.4byte	.LFB0
 5539 182c 20000000 		.4byte	.LFE0
 5540 1830 2C2D0000 		.4byte	.LLST328
 5541 1834 01       		.byte	0x1
 5542 1835 74180000 		.4byte	0x1874
 5543 1839 1B       		.uleb128 0x1b
 5544 183a 22010000 		.4byte	0x122
 5545 183e 4C2D0000 		.4byte	.LLST329
 5546 1842 1C       		.uleb128 0x1c
 5547 1843 2B010000 		.4byte	0x12b
 5548 1847 01       		.byte	0x1
 5549 1848 51       		.byte	0x51
 5550 1849 1B       		.uleb128 0x1b
 5551 184a 34010000 		.4byte	0x134
 5552 184e 932D0000 		.4byte	.LLST330
 5553 1852 1B       		.uleb128 0x1b
 5554 1853 3D010000 		.4byte	0x13d
 5555 1857 B42D0000 		.4byte	.LLST331
 5556 185b 1C       		.uleb128 0x1c
 5557 185c 46010000 		.4byte	0x146
 5558 1860 02       		.byte	0x2
 5559 1861 91       		.byte	0x91
 5560 1862 00       		.sleb128 0
 5561 1863 1C       		.uleb128 0x1c
 5562 1864 4F010000 		.4byte	0x14f
 5563 1868 02       		.byte	0x2
ARM GAS  C:\Users\atsu\AppData\Local\Temp\ccFWVBKl.s 			page 111


 5564 1869 91       		.byte	0x91
 5565 186a 04       		.sleb128 4
 5566 186b 1C       		.uleb128 0x1c
 5567 186c 58010000 		.4byte	0x158
 5568 1870 02       		.byte	0x2
 5569 1871 91       		.byte	0x91
 5570 1872 08       		.sleb128 8
 5571 1873 00       		.byte	0
 5572 1874 25       		.uleb128 0x25
 5573 1875 63010000 		.4byte	0x163
 5574 1879 00000000 		.4byte	.LFB1
 5575 187d 1E000000 		.4byte	.LFE1
 5576 1881 D52D0000 		.4byte	.LLST332
 5577 1885 01       		.byte	0x1
 5578 1886 C5180000 		.4byte	0x18c5
 5579 188a 1B       		.uleb128 0x1b
 5580 188b 74010000 		.4byte	0x174
 5581 188f F52D0000 		.4byte	.LLST333
 5582 1893 1C       		.uleb128 0x1c
 5583 1894 7D010000 		.4byte	0x17d
 5584 1898 01       		.byte	0x1
 5585 1899 51       		.byte	0x51
 5586 189a 1B       		.uleb128 0x1b
 5587 189b 86010000 		.4byte	0x186
 5588 189f 3C2E0000 		.4byte	.LLST334
 5589 18a3 1B       		.uleb128 0x1b
 5590 18a4 8F010000 		.4byte	0x18f
 5591 18a8 5D2E0000 		.4byte	.LLST335
 5592 18ac 1C       		.uleb128 0x1c
 5593 18ad 98010000 		.4byte	0x198
 5594 18b1 02       		.byte	0x2
 5595 18b2 91       		.byte	0x91
 5596 18b3 00       		.sleb128 0
 5597 18b4 1C       		.uleb128 0x1c
 5598 18b5 A1010000 		.4byte	0x1a1
 5599 18b9 02       		.byte	0x2
 5600 18ba 91       		.byte	0x91
 5601 18bb 04       		.sleb128 4
 5602 18bc 1C       		.uleb128 0x1c
 5603 18bd AA010000 		.4byte	0x1aa
 5604 18c1 02       		.byte	0x2
 5605 18c2 91       		.byte	0x91
 5606 18c3 08       		.sleb128 8
 5607 18c4 00       		.byte	0
 5608 18c5 26       		.uleb128 0x26
 5609 18c6 B5010000 		.4byte	0x1b5
 5610 18ca 00000000 		.4byte	.LFB2
 5611 18ce 1A000000 		.4byte	.LFE2
 5612 18d2 02       		.byte	0x2
 5613 18d3 7D       		.byte	0x7d
 5614 18d4 00       		.sleb128 0
 5615 18d5 01       		.byte	0x1
 5616 18d6 15190000 		.4byte	0x1915
 5617 18da 1B       		.uleb128 0x1b
 5618 18db C6010000 		.4byte	0x1c6
 5619 18df 7E2E0000 		.4byte	.LLST336
 5620 18e3 1C       		.uleb128 0x1c
ARM GAS  C:\Users\atsu\AppData\Local\Temp\ccFWVBKl.s 			page 112


 5621 18e4 CF010000 		.4byte	0x1cf
 5622 18e8 01       		.byte	0x1
 5623 18e9 51       		.byte	0x51
 5624 18ea 1B       		.uleb128 0x1b
 5625 18eb D8010000 		.4byte	0x1d8
 5626 18ef C52E0000 		.4byte	.LLST337
 5627 18f3 1B       		.uleb128 0x1b
 5628 18f4 E1010000 		.4byte	0x1e1
 5629 18f8 E62E0000 		.4byte	.LLST338
 5630 18fc 1C       		.uleb128 0x1c
 5631 18fd EA010000 		.4byte	0x1ea
 5632 1901 02       		.byte	0x2
 5633 1902 91       		.byte	0x91
 5634 1903 00       		.sleb128 0
 5635 1904 1C       		.uleb128 0x1c
 5636 1905 F3010000 		.4byte	0x1f3
 5637 1909 02       		.byte	0x2
 5638 190a 91       		.byte	0x91
 5639 190b 04       		.sleb128 4
 5640 190c 1C       		.uleb128 0x1c
 5641 190d FC010000 		.4byte	0x1fc
 5642 1911 02       		.byte	0x2
 5643 1912 91       		.byte	0x91
 5644 1913 08       		.sleb128 8
 5645 1914 00       		.byte	0
 5646 1915 25       		.uleb128 0x25
 5647 1916 07020000 		.4byte	0x207
 5648 191a 00000000 		.4byte	.LFB3
 5649 191e 1E000000 		.4byte	.LFE3
 5650 1922 072F0000 		.4byte	.LLST339
 5651 1926 01       		.byte	0x1
 5652 1927 66190000 		.4byte	0x1966
 5653 192b 1B       		.uleb128 0x1b
 5654 192c 18020000 		.4byte	0x218
 5655 1930 272F0000 		.4byte	.LLST340
 5656 1934 1C       		.uleb128 0x1c
 5657 1935 21020000 		.4byte	0x221
 5658 1939 01       		.byte	0x1
 5659 193a 51       		.byte	0x51
 5660 193b 1B       		.uleb128 0x1b
 5661 193c 2A020000 		.4byte	0x22a
 5662 1940 6E2F0000 		.4byte	.LLST341
 5663 1944 1B       		.uleb128 0x1b
 5664 1945 33020000 		.4byte	0x233
 5665 1949 8F2F0000 		.4byte	.LLST342
 5666 194d 1C       		.uleb128 0x1c
 5667 194e 3C020000 		.4byte	0x23c
 5668 1952 02       		.byte	0x2
 5669 1953 91       		.byte	0x91
 5670 1954 00       		.sleb128 0
 5671 1955 1C       		.uleb128 0x1c
 5672 1956 45020000 		.4byte	0x245
 5673 195a 02       		.byte	0x2
 5674 195b 91       		.byte	0x91
 5675 195c 04       		.sleb128 4
 5676 195d 1C       		.uleb128 0x1c
 5677 195e 4E020000 		.4byte	0x24e
ARM GAS  C:\Users\atsu\AppData\Local\Temp\ccFWVBKl.s 			page 113


 5678 1962 02       		.byte	0x2
 5679 1963 91       		.byte	0x91
 5680 1964 08       		.sleb128 8
 5681 1965 00       		.byte	0
 5682 1966 27       		.uleb128 0x27
 5683 1967 01       		.byte	0x1
 5684 1968 F5000000 		.4byte	.LASF25
 5685 196c 01       		.byte	0x1
 5686 196d 58       		.byte	0x58
 5687 196e 01       		.byte	0x1
 5688 196f 00000000 		.4byte	.LFB4
 5689 1973 28000000 		.4byte	.LFE4
 5690 1977 02       		.byte	0x2
 5691 1978 7D       		.byte	0x7d
 5692 1979 00       		.sleb128 0
 5693 197a 01       		.byte	0x1
 5694 197b 8D190000 		.4byte	0x198d
 5695 197f 28       		.uleb128 0x28
 5696 1980 3A010000 		.4byte	.LASF24
 5697 1984 01       		.byte	0x1
 5698 1985 58       		.byte	0x58
 5699 1986 8D190000 		.4byte	0x198d
 5700 198a 01       		.byte	0x1
 5701 198b 50       		.byte	0x50
 5702 198c 00       		.byte	0
 5703 198d 10       		.uleb128 0x10
 5704 198e 04       		.byte	0x4
 5705 198f 06010000 		.4byte	0x106
 5706 1993 29       		.uleb128 0x29
 5707 1994 01       		.byte	0x1
 5708 1995 EA000000 		.4byte	.LASF26
 5709 1999 01       		.byte	0x1
 5710 199a 67       		.byte	0x67
 5711 199b 01       		.byte	0x1
 5712 199c 00000000 		.4byte	.LFB5
 5713 19a0 6E000000 		.4byte	.LFE5
 5714 19a4 B02F0000 		.4byte	.LLST343
 5715 19a8 01       		.byte	0x1
 5716 19a9 741A0000 		.4byte	0x1a74
 5717 19ad 17       		.uleb128 0x17
 5718 19ae 3A010000 		.4byte	.LASF24
 5719 19b2 01       		.byte	0x1
 5720 19b3 67       		.byte	0x67
 5721 19b4 8D190000 		.4byte	0x198d
 5722 19b8 D02F0000 		.4byte	.LLST344
 5723 19bc 17       		.uleb128 0x17
 5724 19bd 57000000 		.4byte	.LASF20
 5725 19c1 01       		.byte	0x1
 5726 19c2 67       		.byte	0x67
 5727 19c3 A6020000 		.4byte	0x2a6
 5728 19c7 FC2F0000 		.4byte	.LLST345
 5729 19cb 17       		.uleb128 0x17
 5730 19cc 8B000000 		.4byte	.LASF27
 5731 19d0 01       		.byte	0x1
 5732 19d1 67       		.byte	0x67
 5733 19d2 8A000000 		.4byte	0x8a
 5734 19d6 28300000 		.4byte	.LLST346
ARM GAS  C:\Users\atsu\AppData\Local\Temp\ccFWVBKl.s 			page 114


 5735 19da 18       		.uleb128 0x18
 5736 19db 6900     		.ascii	"i\000"
 5737 19dd 01       		.byte	0x1
 5738 19de 69       		.byte	0x69
 5739 19df 8A000000 		.4byte	0x8a
 5740 19e3 54300000 		.4byte	.LLST347
 5741 19e7 2A       		.uleb128 0x2a
 5742 19e8 D2010000 		.4byte	.LASF28
 5743 19ec 01       		.byte	0x1
 5744 19ed 69       		.byte	0x69
 5745 19ee 8A000000 		.4byte	0x8a
 5746 19f2 73300000 		.4byte	.LLST348
 5747 19f6 2A       		.uleb128 0x2a
 5748 19f7 4B010000 		.4byte	.LASF29
 5749 19fb 01       		.byte	0x1
 5750 19fc 69       		.byte	0x69
 5751 19fd 8A000000 		.4byte	0x8a
 5752 1a01 BD300000 		.4byte	.LLST349
 5753 1a05 2B       		.uleb128 0x2b
 5754 1a06 3E000000 		.4byte	.LVL323
 5755 1a0a B01B0000 		.4byte	0x1bb0
 5756 1a0e 201A0000 		.4byte	0x1a20
 5757 1a12 24       		.uleb128 0x24
 5758 1a13 01       		.byte	0x1
 5759 1a14 52       		.byte	0x52
 5760 1a15 03       		.byte	0x3
 5761 1a16 91       		.byte	0x91
 5762 1a17 64       		.sleb128 -28
 5763 1a18 06       		.byte	0x6
 5764 1a19 24       		.uleb128 0x24
 5765 1a1a 01       		.byte	0x1
 5766 1a1b 51       		.byte	0x51
 5767 1a1c 02       		.byte	0x2
 5768 1a1d 77       		.byte	0x77
 5769 1a1e 00       		.sleb128 0
 5770 1a1f 00       		.byte	0
 5771 1a20 2B       		.uleb128 0x2b
 5772 1a21 48000000 		.4byte	.LVL324
 5773 1a25 0F030000 		.4byte	0x30f
 5774 1a29 3A1A0000 		.4byte	0x1a3a
 5775 1a2d 24       		.uleb128 0x24
 5776 1a2e 01       		.byte	0x1
 5777 1a2f 51       		.byte	0x51
 5778 1a30 02       		.byte	0x2
 5779 1a31 74       		.byte	0x74
 5780 1a32 18       		.sleb128 24
 5781 1a33 24       		.uleb128 0x24
 5782 1a34 01       		.byte	0x1
 5783 1a35 50       		.byte	0x50
 5784 1a36 02       		.byte	0x2
 5785 1a37 74       		.byte	0x74
 5786 1a38 00       		.sleb128 0
 5787 1a39 00       		.byte	0
 5788 1a3a 2B       		.uleb128 0x2b
 5789 1a3b 5A000000 		.4byte	.LVL326
 5790 1a3f 0F030000 		.4byte	0x30f
 5791 1a43 571A0000 		.4byte	0x1a57
ARM GAS  C:\Users\atsu\AppData\Local\Temp\ccFWVBKl.s 			page 115


 5792 1a47 24       		.uleb128 0x24
 5793 1a48 01       		.byte	0x1
 5794 1a49 51       		.byte	0x51
 5795 1a4a 05       		.byte	0x5
 5796 1a4b 77       		.byte	0x77
 5797 1a4c 00       		.sleb128 0
 5798 1a4d 75       		.byte	0x75
 5799 1a4e 00       		.sleb128 0
 5800 1a4f 22       		.byte	0x22
 5801 1a50 24       		.uleb128 0x24
 5802 1a51 01       		.byte	0x1
 5803 1a52 50       		.byte	0x50
 5804 1a53 02       		.byte	0x2
 5805 1a54 74       		.byte	0x74
 5806 1a55 00       		.sleb128 0
 5807 1a56 00       		.byte	0
 5808 1a57 23       		.uleb128 0x23
 5809 1a58 6C000000 		.4byte	.LVL331
 5810 1a5c B01B0000 		.4byte	0x1bb0
 5811 1a60 24       		.uleb128 0x24
 5812 1a61 01       		.byte	0x1
 5813 1a62 52       		.byte	0x52
 5814 1a63 05       		.byte	0x5
 5815 1a64 76       		.byte	0x76
 5816 1a65 00       		.sleb128 0
 5817 1a66 75       		.byte	0x75
 5818 1a67 00       		.sleb128 0
 5819 1a68 1C       		.byte	0x1c
 5820 1a69 24       		.uleb128 0x24
 5821 1a6a 01       		.byte	0x1
 5822 1a6b 51       		.byte	0x51
 5823 1a6c 05       		.byte	0x5
 5824 1a6d 77       		.byte	0x77
 5825 1a6e 00       		.sleb128 0
 5826 1a6f 75       		.byte	0x75
 5827 1a70 00       		.sleb128 0
 5828 1a71 22       		.byte	0x22
 5829 1a72 00       		.byte	0
 5830 1a73 00       		.byte	0
 5831 1a74 29       		.uleb128 0x29
 5832 1a75 01       		.byte	0x1
 5833 1a76 28000000 		.4byte	.LASF30
 5834 1a7a 01       		.byte	0x1
 5835 1a7b 8A       		.byte	0x8a
 5836 1a7c 01       		.byte	0x1
 5837 1a7d 00000000 		.4byte	.LFB6
 5838 1a81 4C000000 		.4byte	.LFE6
 5839 1a85 DC300000 		.4byte	.LLST350
 5840 1a89 01       		.byte	0x1
 5841 1a8a 6E1B0000 		.4byte	0x1b6e
 5842 1a8e 17       		.uleb128 0x17
 5843 1a8f D8010000 		.4byte	.LASF31
 5844 1a93 01       		.byte	0x1
 5845 1a94 8A       		.byte	0x8a
 5846 1a95 A6020000 		.4byte	0x2a6
 5847 1a99 FC300000 		.4byte	.LLST351
 5848 1a9d 17       		.uleb128 0x17
ARM GAS  C:\Users\atsu\AppData\Local\Temp\ccFWVBKl.s 			page 116


 5849 1a9e 3A010000 		.4byte	.LASF24
 5850 1aa2 01       		.byte	0x1
 5851 1aa3 8A       		.byte	0x8a
 5852 1aa4 8D190000 		.4byte	0x198d
 5853 1aa8 28310000 		.4byte	.LLST352
 5854 1aac 2C       		.uleb128 0x2c
 5855 1aad 73010000 		.4byte	.LASF32
 5856 1ab1 01       		.byte	0x1
 5857 1ab2 8C       		.byte	0x8c
 5858 1ab3 6E1B0000 		.4byte	0x1b6e
 5859 1ab7 02       		.byte	0x2
 5860 1ab8 91       		.byte	0x91
 5861 1ab9 68       		.sleb128 -24
 5862 1aba 2A       		.uleb128 0x2a
 5863 1abb D2010000 		.4byte	.LASF28
 5864 1abf 01       		.byte	0x1
 5865 1ac0 8D       		.byte	0x8d
 5866 1ac1 8A000000 		.4byte	0x8a
 5867 1ac5 54310000 		.4byte	.LLST353
 5868 1ac9 2A       		.uleb128 0x2a
 5869 1aca F9010000 		.4byte	.LASF33
 5870 1ace 01       		.byte	0x1
 5871 1acf 8D       		.byte	0x8d
 5872 1ad0 8A000000 		.4byte	0x8a
 5873 1ad4 76310000 		.4byte	.LLST354
 5874 1ad8 2B       		.uleb128 0x2b
 5875 1ad9 10000000 		.4byte	.LVL339
 5876 1add AC020000 		.4byte	0x2ac
 5877 1ae1 F71A0000 		.4byte	0x1af7
 5878 1ae5 24       		.uleb128 0x24
 5879 1ae6 01       		.byte	0x1
 5880 1ae7 52       		.byte	0x52
 5881 1ae8 01       		.byte	0x1
 5882 1ae9 38       		.byte	0x38
 5883 1aea 24       		.uleb128 0x24
 5884 1aeb 01       		.byte	0x1
 5885 1aec 51       		.byte	0x51
 5886 1aed 02       		.byte	0x2
 5887 1aee 74       		.byte	0x74
 5888 1aef 10       		.sleb128 16
 5889 1af0 24       		.uleb128 0x24
 5890 1af1 01       		.byte	0x1
 5891 1af2 50       		.byte	0x50
 5892 1af3 02       		.byte	0x2
 5893 1af4 91       		.byte	0x91
 5894 1af5 68       		.sleb128 -24
 5895 1af6 00       		.byte	0
 5896 1af7 2B       		.uleb128 0x2b
 5897 1af8 28000000 		.4byte	.LVL343
 5898 1afc 93190000 		.4byte	0x1993
 5899 1b00 141B0000 		.4byte	0x1b14
 5900 1b04 24       		.uleb128 0x24
 5901 1b05 01       		.byte	0x1
 5902 1b06 51       		.byte	0x51
 5903 1b07 05       		.byte	0x5
 5904 1b08 03       		.byte	0x3
 5905 1b09 00000000 		.4byte	.LANCHOR0
ARM GAS  C:\Users\atsu\AppData\Local\Temp\ccFWVBKl.s 			page 117


 5906 1b0d 24       		.uleb128 0x24
 5907 1b0e 01       		.byte	0x1
 5908 1b0f 50       		.byte	0x50
 5909 1b10 02       		.byte	0x2
 5910 1b11 74       		.byte	0x74
 5911 1b12 00       		.sleb128 0
 5912 1b13 00       		.byte	0
 5913 1b14 2B       		.uleb128 0x2b
 5914 1b15 32000000 		.4byte	.LVL344
 5915 1b19 93190000 		.4byte	0x1993
 5916 1b1d 331B0000 		.4byte	0x1b33
 5917 1b21 24       		.uleb128 0x24
 5918 1b22 01       		.byte	0x1
 5919 1b23 52       		.byte	0x52
 5920 1b24 01       		.byte	0x1
 5921 1b25 38       		.byte	0x38
 5922 1b26 24       		.uleb128 0x24
 5923 1b27 01       		.byte	0x1
 5924 1b28 51       		.byte	0x51
 5925 1b29 02       		.byte	0x2
 5926 1b2a 91       		.byte	0x91
 5927 1b2b 68       		.sleb128 -24
 5928 1b2c 24       		.uleb128 0x24
 5929 1b2d 01       		.byte	0x1
 5930 1b2e 50       		.byte	0x50
 5931 1b2f 02       		.byte	0x2
 5932 1b30 74       		.byte	0x74
 5933 1b31 00       		.sleb128 0
 5934 1b32 00       		.byte	0
 5935 1b33 2B       		.uleb128 0x2b
 5936 1b34 3C000000 		.4byte	.LVL345
 5937 1b38 AC020000 		.4byte	0x2ac
 5938 1b3c 521B0000 		.4byte	0x1b52
 5939 1b40 24       		.uleb128 0x24
 5940 1b41 01       		.byte	0x1
 5941 1b42 52       		.byte	0x52
 5942 1b43 01       		.byte	0x1
 5943 1b44 40       		.byte	0x40
 5944 1b45 24       		.uleb128 0x24
 5945 1b46 01       		.byte	0x1
 5946 1b47 51       		.byte	0x51
 5947 1b48 02       		.byte	0x2
 5948 1b49 74       		.byte	0x74
 5949 1b4a 00       		.sleb128 0
 5950 1b4b 24       		.uleb128 0x24
 5951 1b4c 01       		.byte	0x1
 5952 1b4d 50       		.byte	0x50
 5953 1b4e 02       		.byte	0x2
 5954 1b4f 75       		.byte	0x75
 5955 1b50 00       		.sleb128 0
 5956 1b51 00       		.byte	0
 5957 1b52 23       		.uleb128 0x23
 5958 1b53 46000000 		.4byte	.LVL346
 5959 1b57 8F1B0000 		.4byte	0x1b8f
 5960 1b5b 24       		.uleb128 0x24
 5961 1b5c 01       		.byte	0x1
 5962 1b5d 52       		.byte	0x52
ARM GAS  C:\Users\atsu\AppData\Local\Temp\ccFWVBKl.s 			page 118


 5963 1b5e 02       		.byte	0x2
 5964 1b5f 08       		.byte	0x8
 5965 1b60 58       		.byte	0x58
 5966 1b61 24       		.uleb128 0x24
 5967 1b62 01       		.byte	0x1
 5968 1b63 51       		.byte	0x51
 5969 1b64 01       		.byte	0x1
 5970 1b65 30       		.byte	0x30
 5971 1b66 24       		.uleb128 0x24
 5972 1b67 01       		.byte	0x1
 5973 1b68 50       		.byte	0x50
 5974 1b69 02       		.byte	0x2
 5975 1b6a 74       		.byte	0x74
 5976 1b6b 00       		.sleb128 0
 5977 1b6c 00       		.byte	0
 5978 1b6d 00       		.byte	0
 5979 1b6e 08       		.uleb128 0x8
 5980 1b6f 7F000000 		.4byte	0x7f
 5981 1b73 7E1B0000 		.4byte	0x1b7e
 5982 1b77 09       		.uleb128 0x9
 5983 1b78 68000000 		.4byte	0x68
 5984 1b7c 07       		.byte	0x7
 5985 1b7d 00       		.byte	0
 5986 1b7e 2C       		.uleb128 0x2c
 5987 1b7f 2A010000 		.4byte	.LASF34
 5988 1b83 01       		.byte	0x1
 5989 1b84 23       		.byte	0x23
 5990 1b85 F6000000 		.4byte	0xf6
 5991 1b89 05       		.byte	0x5
 5992 1b8a 03       		.byte	0x3
 5993 1b8b 00000000 		.4byte	padding
 5994 1b8f 2D       		.uleb128 0x2d
 5995 1b90 01       		.byte	0x1
 5996 1b91 21000000 		.4byte	.LASF35
 5997 1b95 01       		.byte	0x1
 5998 1b96 6F000000 		.4byte	0x6f
 5999 1b9a 01       		.byte	0x1
 6000 1b9b 01       		.byte	0x1
 6001 1b9c B01B0000 		.4byte	0x1bb0
 6002 1ba0 2E       		.uleb128 0x2e
 6003 1ba1 6F000000 		.4byte	0x6f
 6004 1ba5 2E       		.uleb128 0x2e
 6005 1ba6 45000000 		.4byte	0x45
 6006 1baa 2E       		.uleb128 0x2e
 6007 1bab 68000000 		.4byte	0x68
 6008 1baf 00       		.byte	0
 6009 1bb0 2D       		.uleb128 0x2d
 6010 1bb1 01       		.byte	0x1
 6011 1bb2 61010000 		.4byte	.LASF36
 6012 1bb6 01       		.byte	0x1
 6013 1bb7 6F000000 		.4byte	0x6f
 6014 1bbb 01       		.byte	0x1
 6015 1bbc 01       		.byte	0x1
 6016 1bbd D11B0000 		.4byte	0x1bd1
 6017 1bc1 2E       		.uleb128 0x2e
 6018 1bc2 6F000000 		.4byte	0x6f
 6019 1bc6 2E       		.uleb128 0x2e
ARM GAS  C:\Users\atsu\AppData\Local\Temp\ccFWVBKl.s 			page 119


 6020 1bc7 D11B0000 		.4byte	0x1bd1
 6021 1bcb 2E       		.uleb128 0x2e
 6022 1bcc 68000000 		.4byte	0x68
 6023 1bd0 00       		.byte	0
 6024 1bd1 10       		.uleb128 0x10
 6025 1bd2 04       		.byte	0x4
 6026 1bd3 D71B0000 		.4byte	0x1bd7
 6027 1bd7 2F       		.uleb128 0x2f
 6028 1bd8 00       		.byte	0
 6029              		.section	.debug_abbrev,"",%progbits
 6030              	.Ldebug_abbrev0:
 6031 0000 01       		.uleb128 0x1
 6032 0001 11       		.uleb128 0x11
 6033 0002 01       		.byte	0x1
 6034 0003 25       		.uleb128 0x25
 6035 0004 0E       		.uleb128 0xe
 6036 0005 13       		.uleb128 0x13
 6037 0006 0B       		.uleb128 0xb
 6038 0007 03       		.uleb128 0x3
 6039 0008 0E       		.uleb128 0xe
 6040 0009 1B       		.uleb128 0x1b
 6041 000a 0E       		.uleb128 0xe
 6042 000b 55       		.uleb128 0x55
 6043 000c 06       		.uleb128 0x6
 6044 000d 11       		.uleb128 0x11
 6045 000e 01       		.uleb128 0x1
 6046 000f 52       		.uleb128 0x52
 6047 0010 01       		.uleb128 0x1
 6048 0011 10       		.uleb128 0x10
 6049 0012 06       		.uleb128 0x6
 6050 0013 00       		.byte	0
 6051 0014 00       		.byte	0
 6052 0015 02       		.uleb128 0x2
 6053 0016 24       		.uleb128 0x24
 6054 0017 00       		.byte	0
 6055 0018 0B       		.uleb128 0xb
 6056 0019 0B       		.uleb128 0xb
 6057 001a 3E       		.uleb128 0x3e
 6058 001b 0B       		.uleb128 0xb
 6059 001c 03       		.uleb128 0x3
 6060 001d 0E       		.uleb128 0xe
 6061 001e 00       		.byte	0
 6062 001f 00       		.byte	0
 6063 0020 03       		.uleb128 0x3
 6064 0021 24       		.uleb128 0x24
 6065 0022 00       		.byte	0
 6066 0023 0B       		.uleb128 0xb
 6067 0024 0B       		.uleb128 0xb
 6068 0025 3E       		.uleb128 0x3e
 6069 0026 0B       		.uleb128 0xb
 6070 0027 03       		.uleb128 0x3
 6071 0028 08       		.uleb128 0x8
 6072 0029 00       		.byte	0
 6073 002a 00       		.byte	0
 6074 002b 04       		.uleb128 0x4
 6075 002c 0F       		.uleb128 0xf
 6076 002d 00       		.byte	0
ARM GAS  C:\Users\atsu\AppData\Local\Temp\ccFWVBKl.s 			page 120


 6077 002e 0B       		.uleb128 0xb
 6078 002f 0B       		.uleb128 0xb
 6079 0030 00       		.byte	0
 6080 0031 00       		.byte	0
 6081 0032 05       		.uleb128 0x5
 6082 0033 16       		.uleb128 0x16
 6083 0034 00       		.byte	0
 6084 0035 03       		.uleb128 0x3
 6085 0036 0E       		.uleb128 0xe
 6086 0037 3A       		.uleb128 0x3a
 6087 0038 0B       		.uleb128 0xb
 6088 0039 3B       		.uleb128 0x3b
 6089 003a 0B       		.uleb128 0xb
 6090 003b 49       		.uleb128 0x49
 6091 003c 13       		.uleb128 0x13
 6092 003d 00       		.byte	0
 6093 003e 00       		.byte	0
 6094 003f 06       		.uleb128 0x6
 6095 0040 13       		.uleb128 0x13
 6096 0041 01       		.byte	0x1
 6097 0042 0B       		.uleb128 0xb
 6098 0043 0B       		.uleb128 0xb
 6099 0044 3A       		.uleb128 0x3a
 6100 0045 0B       		.uleb128 0xb
 6101 0046 3B       		.uleb128 0x3b
 6102 0047 0B       		.uleb128 0xb
 6103 0048 01       		.uleb128 0x1
 6104 0049 13       		.uleb128 0x13
 6105 004a 00       		.byte	0
 6106 004b 00       		.byte	0
 6107 004c 07       		.uleb128 0x7
 6108 004d 0D       		.uleb128 0xd
 6109 004e 00       		.byte	0
 6110 004f 03       		.uleb128 0x3
 6111 0050 0E       		.uleb128 0xe
 6112 0051 3A       		.uleb128 0x3a
 6113 0052 0B       		.uleb128 0xb
 6114 0053 3B       		.uleb128 0x3b
 6115 0054 0B       		.uleb128 0xb
 6116 0055 49       		.uleb128 0x49
 6117 0056 13       		.uleb128 0x13
 6118 0057 38       		.uleb128 0x38
 6119 0058 0A       		.uleb128 0xa
 6120 0059 00       		.byte	0
 6121 005a 00       		.byte	0
 6122 005b 08       		.uleb128 0x8
 6123 005c 01       		.uleb128 0x1
 6124 005d 01       		.byte	0x1
 6125 005e 49       		.uleb128 0x49
 6126 005f 13       		.uleb128 0x13
 6127 0060 01       		.uleb128 0x1
 6128 0061 13       		.uleb128 0x13
 6129 0062 00       		.byte	0
 6130 0063 00       		.byte	0
 6131 0064 09       		.uleb128 0x9
 6132 0065 21       		.uleb128 0x21
 6133 0066 00       		.byte	0
ARM GAS  C:\Users\atsu\AppData\Local\Temp\ccFWVBKl.s 			page 121


 6134 0067 49       		.uleb128 0x49
 6135 0068 13       		.uleb128 0x13
 6136 0069 2F       		.uleb128 0x2f
 6137 006a 0B       		.uleb128 0xb
 6138 006b 00       		.byte	0
 6139 006c 00       		.byte	0
 6140 006d 0A       		.uleb128 0xa
 6141 006e 2E       		.uleb128 0x2e
 6142 006f 01       		.byte	0x1
 6143 0070 3F       		.uleb128 0x3f
 6144 0071 0C       		.uleb128 0xc
 6145 0072 03       		.uleb128 0x3
 6146 0073 08       		.uleb128 0x8
 6147 0074 3A       		.uleb128 0x3a
 6148 0075 0B       		.uleb128 0xb
 6149 0076 3B       		.uleb128 0x3b
 6150 0077 0B       		.uleb128 0xb
 6151 0078 27       		.uleb128 0x27
 6152 0079 0C       		.uleb128 0xc
 6153 007a 49       		.uleb128 0x49
 6154 007b 13       		.uleb128 0x13
 6155 007c 20       		.uleb128 0x20
 6156 007d 0B       		.uleb128 0xb
 6157 007e 01       		.uleb128 0x1
 6158 007f 13       		.uleb128 0x13
 6159 0080 00       		.byte	0
 6160 0081 00       		.byte	0
 6161 0082 0B       		.uleb128 0xb
 6162 0083 05       		.uleb128 0x5
 6163 0084 00       		.byte	0
 6164 0085 03       		.uleb128 0x3
 6165 0086 08       		.uleb128 0x8
 6166 0087 3A       		.uleb128 0x3a
 6167 0088 0B       		.uleb128 0xb
 6168 0089 3B       		.uleb128 0x3b
 6169 008a 0B       		.uleb128 0xb
 6170 008b 49       		.uleb128 0x49
 6171 008c 13       		.uleb128 0x13
 6172 008d 00       		.byte	0
 6173 008e 00       		.byte	0
 6174 008f 0C       		.uleb128 0xc
 6175 0090 2E       		.uleb128 0x2e
 6176 0091 01       		.byte	0x1
 6177 0092 03       		.uleb128 0x3
 6178 0093 0E       		.uleb128 0xe
 6179 0094 3A       		.uleb128 0x3a
 6180 0095 0B       		.uleb128 0xb
 6181 0096 3B       		.uleb128 0x3b
 6182 0097 05       		.uleb128 0x5
 6183 0098 27       		.uleb128 0x27
 6184 0099 0C       		.uleb128 0xc
 6185 009a 20       		.uleb128 0x20
 6186 009b 0B       		.uleb128 0xb
 6187 009c 01       		.uleb128 0x1
 6188 009d 13       		.uleb128 0x13
 6189 009e 00       		.byte	0
 6190 009f 00       		.byte	0
ARM GAS  C:\Users\atsu\AppData\Local\Temp\ccFWVBKl.s 			page 122


 6191 00a0 0D       		.uleb128 0xd
 6192 00a1 05       		.uleb128 0x5
 6193 00a2 00       		.byte	0
 6194 00a3 03       		.uleb128 0x3
 6195 00a4 0E       		.uleb128 0xe
 6196 00a5 3A       		.uleb128 0x3a
 6197 00a6 0B       		.uleb128 0xb
 6198 00a7 3B       		.uleb128 0x3b
 6199 00a8 05       		.uleb128 0x5
 6200 00a9 49       		.uleb128 0x49
 6201 00aa 13       		.uleb128 0x13
 6202 00ab 00       		.byte	0
 6203 00ac 00       		.byte	0
 6204 00ad 0E       		.uleb128 0xe
 6205 00ae 05       		.uleb128 0x5
 6206 00af 00       		.byte	0
 6207 00b0 03       		.uleb128 0x3
 6208 00b1 08       		.uleb128 0x8
 6209 00b2 3A       		.uleb128 0x3a
 6210 00b3 0B       		.uleb128 0xb
 6211 00b4 3B       		.uleb128 0x3b
 6212 00b5 05       		.uleb128 0x5
 6213 00b6 49       		.uleb128 0x49
 6214 00b7 13       		.uleb128 0x13
 6215 00b8 00       		.byte	0
 6216 00b9 00       		.byte	0
 6217 00ba 0F       		.uleb128 0xf
 6218 00bb 34       		.uleb128 0x34
 6219 00bc 00       		.byte	0
 6220 00bd 03       		.uleb128 0x3
 6221 00be 08       		.uleb128 0x8
 6222 00bf 3A       		.uleb128 0x3a
 6223 00c0 0B       		.uleb128 0xb
 6224 00c1 3B       		.uleb128 0x3b
 6225 00c2 05       		.uleb128 0x5
 6226 00c3 49       		.uleb128 0x49
 6227 00c4 13       		.uleb128 0x13
 6228 00c5 00       		.byte	0
 6229 00c6 00       		.byte	0
 6230 00c7 10       		.uleb128 0x10
 6231 00c8 0F       		.uleb128 0xf
 6232 00c9 00       		.byte	0
 6233 00ca 0B       		.uleb128 0xb
 6234 00cb 0B       		.uleb128 0xb
 6235 00cc 49       		.uleb128 0x49
 6236 00cd 13       		.uleb128 0x13
 6237 00ce 00       		.byte	0
 6238 00cf 00       		.byte	0
 6239 00d0 11       		.uleb128 0x11
 6240 00d1 2E       		.uleb128 0x2e
 6241 00d2 01       		.byte	0x1
 6242 00d3 03       		.uleb128 0x3
 6243 00d4 0E       		.uleb128 0xe
 6244 00d5 3A       		.uleb128 0x3a
 6245 00d6 0B       		.uleb128 0xb
 6246 00d7 3B       		.uleb128 0x3b
 6247 00d8 05       		.uleb128 0x5
ARM GAS  C:\Users\atsu\AppData\Local\Temp\ccFWVBKl.s 			page 123


 6248 00d9 27       		.uleb128 0x27
 6249 00da 0C       		.uleb128 0xc
 6250 00db 11       		.uleb128 0x11
 6251 00dc 01       		.uleb128 0x1
 6252 00dd 12       		.uleb128 0x12
 6253 00de 01       		.uleb128 0x1
 6254 00df 40       		.uleb128 0x40
 6255 00e0 06       		.uleb128 0x6
 6256 00e1 9742     		.uleb128 0x2117
 6257 00e3 0C       		.uleb128 0xc
 6258 00e4 01       		.uleb128 0x1
 6259 00e5 13       		.uleb128 0x13
 6260 00e6 00       		.byte	0
 6261 00e7 00       		.byte	0
 6262 00e8 12       		.uleb128 0x12
 6263 00e9 05       		.uleb128 0x5
 6264 00ea 00       		.byte	0
 6265 00eb 03       		.uleb128 0x3
 6266 00ec 0E       		.uleb128 0xe
 6267 00ed 3A       		.uleb128 0x3a
 6268 00ee 0B       		.uleb128 0xb
 6269 00ef 3B       		.uleb128 0x3b
 6270 00f0 05       		.uleb128 0x5
 6271 00f1 49       		.uleb128 0x49
 6272 00f2 13       		.uleb128 0x13
 6273 00f3 02       		.uleb128 0x2
 6274 00f4 0A       		.uleb128 0xa
 6275 00f5 00       		.byte	0
 6276 00f6 00       		.byte	0
 6277 00f7 13       		.uleb128 0x13
 6278 00f8 05       		.uleb128 0x5
 6279 00f9 00       		.byte	0
 6280 00fa 03       		.uleb128 0x3
 6281 00fb 0E       		.uleb128 0xe
 6282 00fc 3A       		.uleb128 0x3a
 6283 00fd 0B       		.uleb128 0xb
 6284 00fe 3B       		.uleb128 0x3b
 6285 00ff 05       		.uleb128 0x5
 6286 0100 49       		.uleb128 0x49
 6287 0101 13       		.uleb128 0x13
 6288 0102 02       		.uleb128 0x2
 6289 0103 06       		.uleb128 0x6
 6290 0104 00       		.byte	0
 6291 0105 00       		.byte	0
 6292 0106 14       		.uleb128 0x14
 6293 0107 05       		.uleb128 0x5
 6294 0108 00       		.byte	0
 6295 0109 03       		.uleb128 0x3
 6296 010a 08       		.uleb128 0x8
 6297 010b 3A       		.uleb128 0x3a
 6298 010c 0B       		.uleb128 0xb
 6299 010d 3B       		.uleb128 0x3b
 6300 010e 05       		.uleb128 0x5
 6301 010f 49       		.uleb128 0x49
 6302 0110 13       		.uleb128 0x13
 6303 0111 02       		.uleb128 0x2
 6304 0112 0A       		.uleb128 0xa
ARM GAS  C:\Users\atsu\AppData\Local\Temp\ccFWVBKl.s 			page 124


 6305 0113 00       		.byte	0
 6306 0114 00       		.byte	0
 6307 0115 15       		.uleb128 0x15
 6308 0116 34       		.uleb128 0x34
 6309 0117 00       		.byte	0
 6310 0118 03       		.uleb128 0x3
 6311 0119 08       		.uleb128 0x8
 6312 011a 3A       		.uleb128 0x3a
 6313 011b 0B       		.uleb128 0xb
 6314 011c 3B       		.uleb128 0x3b
 6315 011d 05       		.uleb128 0x5
 6316 011e 49       		.uleb128 0x49
 6317 011f 13       		.uleb128 0x13
 6318 0120 02       		.uleb128 0x2
 6319 0121 06       		.uleb128 0x6
 6320 0122 00       		.byte	0
 6321 0123 00       		.byte	0
 6322 0124 16       		.uleb128 0x16
 6323 0125 2E       		.uleb128 0x2e
 6324 0126 01       		.byte	0x1
 6325 0127 03       		.uleb128 0x3
 6326 0128 0E       		.uleb128 0xe
 6327 0129 3A       		.uleb128 0x3a
 6328 012a 0B       		.uleb128 0xb
 6329 012b 3B       		.uleb128 0x3b
 6330 012c 0B       		.uleb128 0xb
 6331 012d 27       		.uleb128 0x27
 6332 012e 0C       		.uleb128 0xc
 6333 012f 11       		.uleb128 0x11
 6334 0130 01       		.uleb128 0x1
 6335 0131 12       		.uleb128 0x12
 6336 0132 01       		.uleb128 0x1
 6337 0133 40       		.uleb128 0x40
 6338 0134 06       		.uleb128 0x6
 6339 0135 9742     		.uleb128 0x2117
 6340 0137 0C       		.uleb128 0xc
 6341 0138 01       		.uleb128 0x1
 6342 0139 13       		.uleb128 0x13
 6343 013a 00       		.byte	0
 6344 013b 00       		.byte	0
 6345 013c 17       		.uleb128 0x17
 6346 013d 05       		.uleb128 0x5
 6347 013e 00       		.byte	0
 6348 013f 03       		.uleb128 0x3
 6349 0140 0E       		.uleb128 0xe
 6350 0141 3A       		.uleb128 0x3a
 6351 0142 0B       		.uleb128 0xb
 6352 0143 3B       		.uleb128 0x3b
 6353 0144 0B       		.uleb128 0xb
 6354 0145 49       		.uleb128 0x49
 6355 0146 13       		.uleb128 0x13
 6356 0147 02       		.uleb128 0x2
 6357 0148 06       		.uleb128 0x6
 6358 0149 00       		.byte	0
 6359 014a 00       		.byte	0
 6360 014b 18       		.uleb128 0x18
 6361 014c 34       		.uleb128 0x34
ARM GAS  C:\Users\atsu\AppData\Local\Temp\ccFWVBKl.s 			page 125


 6362 014d 00       		.byte	0
 6363 014e 03       		.uleb128 0x3
 6364 014f 08       		.uleb128 0x8
 6365 0150 3A       		.uleb128 0x3a
 6366 0151 0B       		.uleb128 0xb
 6367 0152 3B       		.uleb128 0x3b
 6368 0153 0B       		.uleb128 0xb
 6369 0154 49       		.uleb128 0x49
 6370 0155 13       		.uleb128 0x13
 6371 0156 02       		.uleb128 0x2
 6372 0157 06       		.uleb128 0x6
 6373 0158 00       		.byte	0
 6374 0159 00       		.byte	0
 6375 015a 19       		.uleb128 0x19
 6376 015b 34       		.uleb128 0x34
 6377 015c 00       		.byte	0
 6378 015d 03       		.uleb128 0x3
 6379 015e 08       		.uleb128 0x8
 6380 015f 3A       		.uleb128 0x3a
 6381 0160 0B       		.uleb128 0xb
 6382 0161 3B       		.uleb128 0x3b
 6383 0162 0B       		.uleb128 0xb
 6384 0163 49       		.uleb128 0x49
 6385 0164 13       		.uleb128 0x13
 6386 0165 02       		.uleb128 0x2
 6387 0166 0A       		.uleb128 0xa
 6388 0167 00       		.byte	0
 6389 0168 00       		.byte	0
 6390 0169 1A       		.uleb128 0x1a
 6391 016a 1D       		.uleb128 0x1d
 6392 016b 01       		.byte	0x1
 6393 016c 31       		.uleb128 0x31
 6394 016d 13       		.uleb128 0x13
 6395 016e 11       		.uleb128 0x11
 6396 016f 01       		.uleb128 0x1
 6397 0170 12       		.uleb128 0x12
 6398 0171 01       		.uleb128 0x1
 6399 0172 58       		.uleb128 0x58
 6400 0173 0B       		.uleb128 0xb
 6401 0174 59       		.uleb128 0x59
 6402 0175 0B       		.uleb128 0xb
 6403 0176 01       		.uleb128 0x1
 6404 0177 13       		.uleb128 0x13
 6405 0178 00       		.byte	0
 6406 0179 00       		.byte	0
 6407 017a 1B       		.uleb128 0x1b
 6408 017b 05       		.uleb128 0x5
 6409 017c 00       		.byte	0
 6410 017d 31       		.uleb128 0x31
 6411 017e 13       		.uleb128 0x13
 6412 017f 02       		.uleb128 0x2
 6413 0180 06       		.uleb128 0x6
 6414 0181 00       		.byte	0
 6415 0182 00       		.byte	0
 6416 0183 1C       		.uleb128 0x1c
 6417 0184 05       		.uleb128 0x5
 6418 0185 00       		.byte	0
ARM GAS  C:\Users\atsu\AppData\Local\Temp\ccFWVBKl.s 			page 126


 6419 0186 31       		.uleb128 0x31
 6420 0187 13       		.uleb128 0x13
 6421 0188 02       		.uleb128 0x2
 6422 0189 0A       		.uleb128 0xa
 6423 018a 00       		.byte	0
 6424 018b 00       		.byte	0
 6425 018c 1D       		.uleb128 0x1d
 6426 018d 0B       		.uleb128 0xb
 6427 018e 01       		.byte	0x1
 6428 018f 11       		.uleb128 0x11
 6429 0190 01       		.uleb128 0x1
 6430 0191 12       		.uleb128 0x12
 6431 0192 01       		.uleb128 0x1
 6432 0193 00       		.byte	0
 6433 0194 00       		.byte	0
 6434 0195 1E       		.uleb128 0x1e
 6435 0196 34       		.uleb128 0x34
 6436 0197 00       		.byte	0
 6437 0198 31       		.uleb128 0x31
 6438 0199 13       		.uleb128 0x13
 6439 019a 02       		.uleb128 0x2
 6440 019b 06       		.uleb128 0x6
 6441 019c 00       		.byte	0
 6442 019d 00       		.byte	0
 6443 019e 1F       		.uleb128 0x1f
 6444 019f 05       		.uleb128 0x5
 6445 01a0 00       		.byte	0
 6446 01a1 31       		.uleb128 0x31
 6447 01a2 13       		.uleb128 0x13
 6448 01a3 1C       		.uleb128 0x1c
 6449 01a4 0B       		.uleb128 0xb
 6450 01a5 00       		.byte	0
 6451 01a6 00       		.byte	0
 6452 01a7 20       		.uleb128 0x20
 6453 01a8 05       		.uleb128 0x5
 6454 01a9 00       		.byte	0
 6455 01aa 31       		.uleb128 0x31
 6456 01ab 13       		.uleb128 0x13
 6457 01ac 1C       		.uleb128 0x1c
 6458 01ad 0D       		.uleb128 0xd
 6459 01ae 00       		.byte	0
 6460 01af 00       		.byte	0
 6461 01b0 21       		.uleb128 0x21
 6462 01b1 1D       		.uleb128 0x1d
 6463 01b2 01       		.byte	0x1
 6464 01b3 31       		.uleb128 0x31
 6465 01b4 13       		.uleb128 0x13
 6466 01b5 52       		.uleb128 0x52
 6467 01b6 01       		.uleb128 0x1
 6468 01b7 55       		.uleb128 0x55
 6469 01b8 06       		.uleb128 0x6
 6470 01b9 58       		.uleb128 0x58
 6471 01ba 0B       		.uleb128 0xb
 6472 01bb 59       		.uleb128 0x59
 6473 01bc 0B       		.uleb128 0xb
 6474 01bd 01       		.uleb128 0x1
 6475 01be 13       		.uleb128 0x13
ARM GAS  C:\Users\atsu\AppData\Local\Temp\ccFWVBKl.s 			page 127


 6476 01bf 00       		.byte	0
 6477 01c0 00       		.byte	0
 6478 01c1 22       		.uleb128 0x22
 6479 01c2 05       		.uleb128 0x5
 6480 01c3 00       		.byte	0
 6481 01c4 31       		.uleb128 0x31
 6482 01c5 13       		.uleb128 0x13
 6483 01c6 1C       		.uleb128 0x1c
 6484 01c7 06       		.uleb128 0x6
 6485 01c8 00       		.byte	0
 6486 01c9 00       		.byte	0
 6487 01ca 23       		.uleb128 0x23
 6488 01cb 898201   		.uleb128 0x4109
 6489 01ce 01       		.byte	0x1
 6490 01cf 11       		.uleb128 0x11
 6491 01d0 01       		.uleb128 0x1
 6492 01d1 31       		.uleb128 0x31
 6493 01d2 13       		.uleb128 0x13
 6494 01d3 00       		.byte	0
 6495 01d4 00       		.byte	0
 6496 01d5 24       		.uleb128 0x24
 6497 01d6 8A8201   		.uleb128 0x410a
 6498 01d9 00       		.byte	0
 6499 01da 02       		.uleb128 0x2
 6500 01db 0A       		.uleb128 0xa
 6501 01dc 9142     		.uleb128 0x2111
 6502 01de 0A       		.uleb128 0xa
 6503 01df 00       		.byte	0
 6504 01e0 00       		.byte	0
 6505 01e1 25       		.uleb128 0x25
 6506 01e2 2E       		.uleb128 0x2e
 6507 01e3 01       		.byte	0x1
 6508 01e4 31       		.uleb128 0x31
 6509 01e5 13       		.uleb128 0x13
 6510 01e6 11       		.uleb128 0x11
 6511 01e7 01       		.uleb128 0x1
 6512 01e8 12       		.uleb128 0x12
 6513 01e9 01       		.uleb128 0x1
 6514 01ea 40       		.uleb128 0x40
 6515 01eb 06       		.uleb128 0x6
 6516 01ec 9742     		.uleb128 0x2117
 6517 01ee 0C       		.uleb128 0xc
 6518 01ef 01       		.uleb128 0x1
 6519 01f0 13       		.uleb128 0x13
 6520 01f1 00       		.byte	0
 6521 01f2 00       		.byte	0
 6522 01f3 26       		.uleb128 0x26
 6523 01f4 2E       		.uleb128 0x2e
 6524 01f5 01       		.byte	0x1
 6525 01f6 31       		.uleb128 0x31
 6526 01f7 13       		.uleb128 0x13
 6527 01f8 11       		.uleb128 0x11
 6528 01f9 01       		.uleb128 0x1
 6529 01fa 12       		.uleb128 0x12
 6530 01fb 01       		.uleb128 0x1
 6531 01fc 40       		.uleb128 0x40
 6532 01fd 0A       		.uleb128 0xa
ARM GAS  C:\Users\atsu\AppData\Local\Temp\ccFWVBKl.s 			page 128


 6533 01fe 9742     		.uleb128 0x2117
 6534 0200 0C       		.uleb128 0xc
 6535 0201 01       		.uleb128 0x1
 6536 0202 13       		.uleb128 0x13
 6537 0203 00       		.byte	0
 6538 0204 00       		.byte	0
 6539 0205 27       		.uleb128 0x27
 6540 0206 2E       		.uleb128 0x2e
 6541 0207 01       		.byte	0x1
 6542 0208 3F       		.uleb128 0x3f
 6543 0209 0C       		.uleb128 0xc
 6544 020a 03       		.uleb128 0x3
 6545 020b 0E       		.uleb128 0xe
 6546 020c 3A       		.uleb128 0x3a
 6547 020d 0B       		.uleb128 0xb
 6548 020e 3B       		.uleb128 0x3b
 6549 020f 0B       		.uleb128 0xb
 6550 0210 27       		.uleb128 0x27
 6551 0211 0C       		.uleb128 0xc
 6552 0212 11       		.uleb128 0x11
 6553 0213 01       		.uleb128 0x1
 6554 0214 12       		.uleb128 0x12
 6555 0215 01       		.uleb128 0x1
 6556 0216 40       		.uleb128 0x40
 6557 0217 0A       		.uleb128 0xa
 6558 0218 9742     		.uleb128 0x2117
 6559 021a 0C       		.uleb128 0xc
 6560 021b 01       		.uleb128 0x1
 6561 021c 13       		.uleb128 0x13
 6562 021d 00       		.byte	0
 6563 021e 00       		.byte	0
 6564 021f 28       		.uleb128 0x28
 6565 0220 05       		.uleb128 0x5
 6566 0221 00       		.byte	0
 6567 0222 03       		.uleb128 0x3
 6568 0223 0E       		.uleb128 0xe
 6569 0224 3A       		.uleb128 0x3a
 6570 0225 0B       		.uleb128 0xb
 6571 0226 3B       		.uleb128 0x3b
 6572 0227 0B       		.uleb128 0xb
 6573 0228 49       		.uleb128 0x49
 6574 0229 13       		.uleb128 0x13
 6575 022a 02       		.uleb128 0x2
 6576 022b 0A       		.uleb128 0xa
 6577 022c 00       		.byte	0
 6578 022d 00       		.byte	0
 6579 022e 29       		.uleb128 0x29
 6580 022f 2E       		.uleb128 0x2e
 6581 0230 01       		.byte	0x1
 6582 0231 3F       		.uleb128 0x3f
 6583 0232 0C       		.uleb128 0xc
 6584 0233 03       		.uleb128 0x3
 6585 0234 0E       		.uleb128 0xe
 6586 0235 3A       		.uleb128 0x3a
 6587 0236 0B       		.uleb128 0xb
 6588 0237 3B       		.uleb128 0x3b
 6589 0238 0B       		.uleb128 0xb
ARM GAS  C:\Users\atsu\AppData\Local\Temp\ccFWVBKl.s 			page 129


 6590 0239 27       		.uleb128 0x27
 6591 023a 0C       		.uleb128 0xc
 6592 023b 11       		.uleb128 0x11
 6593 023c 01       		.uleb128 0x1
 6594 023d 12       		.uleb128 0x12
 6595 023e 01       		.uleb128 0x1
 6596 023f 40       		.uleb128 0x40
 6597 0240 06       		.uleb128 0x6
 6598 0241 9742     		.uleb128 0x2117
 6599 0243 0C       		.uleb128 0xc
 6600 0244 01       		.uleb128 0x1
 6601 0245 13       		.uleb128 0x13
 6602 0246 00       		.byte	0
 6603 0247 00       		.byte	0
 6604 0248 2A       		.uleb128 0x2a
 6605 0249 34       		.uleb128 0x34
 6606 024a 00       		.byte	0
 6607 024b 03       		.uleb128 0x3
 6608 024c 0E       		.uleb128 0xe
 6609 024d 3A       		.uleb128 0x3a
 6610 024e 0B       		.uleb128 0xb
 6611 024f 3B       		.uleb128 0x3b
 6612 0250 0B       		.uleb128 0xb
 6613 0251 49       		.uleb128 0x49
 6614 0252 13       		.uleb128 0x13
 6615 0253 02       		.uleb128 0x2
 6616 0254 06       		.uleb128 0x6
 6617 0255 00       		.byte	0
 6618 0256 00       		.byte	0
 6619 0257 2B       		.uleb128 0x2b
 6620 0258 898201   		.uleb128 0x4109
 6621 025b 01       		.byte	0x1
 6622 025c 11       		.uleb128 0x11
 6623 025d 01       		.uleb128 0x1
 6624 025e 31       		.uleb128 0x31
 6625 025f 13       		.uleb128 0x13
 6626 0260 01       		.uleb128 0x1
 6627 0261 13       		.uleb128 0x13
 6628 0262 00       		.byte	0
 6629 0263 00       		.byte	0
 6630 0264 2C       		.uleb128 0x2c
 6631 0265 34       		.uleb128 0x34
 6632 0266 00       		.byte	0
 6633 0267 03       		.uleb128 0x3
 6634 0268 0E       		.uleb128 0xe
 6635 0269 3A       		.uleb128 0x3a
 6636 026a 0B       		.uleb128 0xb
 6637 026b 3B       		.uleb128 0x3b
 6638 026c 0B       		.uleb128 0xb
 6639 026d 49       		.uleb128 0x49
 6640 026e 13       		.uleb128 0x13
 6641 026f 02       		.uleb128 0x2
 6642 0270 0A       		.uleb128 0xa
 6643 0271 00       		.byte	0
 6644 0272 00       		.byte	0
 6645 0273 2D       		.uleb128 0x2d
 6646 0274 2E       		.uleb128 0x2e
ARM GAS  C:\Users\atsu\AppData\Local\Temp\ccFWVBKl.s 			page 130


 6647 0275 01       		.byte	0x1
 6648 0276 3F       		.uleb128 0x3f
 6649 0277 0C       		.uleb128 0xc
 6650 0278 03       		.uleb128 0x3
 6651 0279 0E       		.uleb128 0xe
 6652 027a 27       		.uleb128 0x27
 6653 027b 0C       		.uleb128 0xc
 6654 027c 49       		.uleb128 0x49
 6655 027d 13       		.uleb128 0x13
 6656 027e 34       		.uleb128 0x34
 6657 027f 0C       		.uleb128 0xc
 6658 0280 3C       		.uleb128 0x3c
 6659 0281 0C       		.uleb128 0xc
 6660 0282 01       		.uleb128 0x1
 6661 0283 13       		.uleb128 0x13
 6662 0284 00       		.byte	0
 6663 0285 00       		.byte	0
 6664 0286 2E       		.uleb128 0x2e
 6665 0287 05       		.uleb128 0x5
 6666 0288 00       		.byte	0
 6667 0289 49       		.uleb128 0x49
 6668 028a 13       		.uleb128 0x13
 6669 028b 00       		.byte	0
 6670 028c 00       		.byte	0
 6671 028d 2F       		.uleb128 0x2f
 6672 028e 26       		.uleb128 0x26
 6673 028f 00       		.byte	0
 6674 0290 00       		.byte	0
 6675 0291 00       		.byte	0
 6676 0292 00       		.byte	0
 6677              		.section	.debug_loc,"",%progbits
 6678              	.Ldebug_loc0:
 6679              	.LLST0:
 6680 0000 00000000 		.4byte	.LFB8
 6681 0004 02000000 		.4byte	.LCFI0
 6682 0008 0200     		.2byte	0x2
 6683 000a 7D       		.byte	0x7d
 6684 000b 00       		.sleb128 0
 6685 000c 02000000 		.4byte	.LCFI0
 6686 0010 26000000 		.4byte	.LFE8
 6687 0014 0200     		.2byte	0x2
 6688 0016 7D       		.byte	0x7d
 6689 0017 10       		.sleb128 16
 6690 0018 00000000 		.4byte	0
 6691 001c 00000000 		.4byte	0
 6692              	.LLST1:
 6693 0020 00000000 		.4byte	.LVL0
 6694 0024 04000000 		.4byte	.LVL1
 6695 0028 0100     		.2byte	0x1
 6696 002a 51       		.byte	0x51
 6697 002b 04000000 		.4byte	.LVL1
 6698 002f 26000000 		.4byte	.LFE8
 6699 0033 0400     		.2byte	0x4
 6700 0035 F3       		.byte	0xf3
 6701 0036 01       		.uleb128 0x1
 6702 0037 51       		.byte	0x51
 6703 0038 9F       		.byte	0x9f
ARM GAS  C:\Users\atsu\AppData\Local\Temp\ccFWVBKl.s 			page 131


 6704 0039 00000000 		.4byte	0
 6705 003d 00000000 		.4byte	0
 6706              	.LLST2:
 6707 0041 00000000 		.4byte	.LVL0
 6708 0045 04000000 		.4byte	.LVL1
 6709 0049 0200     		.2byte	0x2
 6710 004b 30       		.byte	0x30
 6711 004c 9F       		.byte	0x9f
 6712 004d 00000000 		.4byte	0
 6713 0051 00000000 		.4byte	0
 6714              	.LLST4:
 6715 0055 00000000 		.4byte	.LFB7
 6716 0059 02000000 		.4byte	.LCFI1
 6717 005d 0200     		.2byte	0x2
 6718 005f 7D       		.byte	0x7d
 6719 0060 00       		.sleb128 0
 6720 0061 02000000 		.4byte	.LCFI1
 6721 0065 04000000 		.4byte	.LCFI2
 6722 0069 0200     		.2byte	0x2
 6723 006b 7D       		.byte	0x7d
 6724 006c 14       		.sleb128 20
 6725 006d 04000000 		.4byte	.LCFI2
 6726 0071 A0070000 		.4byte	.LFE7
 6727 0075 0300     		.2byte	0x3
 6728 0077 7D       		.byte	0x7d
 6729 0078 F800     		.sleb128 120
 6730 007a 00000000 		.4byte	0
 6731 007e 00000000 		.4byte	0
 6732              	.LLST5:
 6733 0082 00000000 		.4byte	.LVL2
 6734 0086 0E000000 		.4byte	.LVL3
 6735 008a 0100     		.2byte	0x1
 6736 008c 50       		.byte	0x50
 6737 008d 0E000000 		.4byte	.LVL3
 6738 0091 20000000 		.4byte	.LVL9
 6739 0095 0100     		.2byte	0x1
 6740 0097 52       		.byte	0x52
 6741 0098 20000000 		.4byte	.LVL9
 6742 009c A0070000 		.4byte	.LFE7
 6743 00a0 0300     		.2byte	0x3
 6744 00a2 91       		.byte	0x91
 6745 00a3 907F     		.sleb128 -112
 6746 00a5 00000000 		.4byte	0
 6747 00a9 00000000 		.4byte	0
 6748              	.LLST6:
 6749 00ad 00000000 		.4byte	.LVL2
 6750 00b1 20000000 		.4byte	.LVL9
 6751 00b5 0100     		.2byte	0x1
 6752 00b7 51       		.byte	0x51
 6753 00b8 20000000 		.4byte	.LVL9
 6754 00bc A0070000 		.4byte	.LFE7
 6755 00c0 0400     		.2byte	0x4
 6756 00c2 F3       		.byte	0xf3
 6757 00c3 01       		.uleb128 0x1
 6758 00c4 51       		.byte	0x51
 6759 00c5 9F       		.byte	0x9f
 6760 00c6 00000000 		.4byte	0
ARM GAS  C:\Users\atsu\AppData\Local\Temp\ccFWVBKl.s 			page 132


 6761 00ca 00000000 		.4byte	0
 6762              	.LLST7:
 6763 00ce 16000000 		.4byte	.LVL4
 6764 00d2 18000000 		.4byte	.LVL5
 6765 00d6 0100     		.2byte	0x1
 6766 00d8 50       		.byte	0x50
 6767 00d9 18000000 		.4byte	.LVL5
 6768 00dd 20000000 		.4byte	.LVL9
 6769 00e1 0200     		.2byte	0x2
 6770 00e3 72       		.byte	0x72
 6771 00e4 00       		.sleb128 0
 6772 00e5 20000000 		.4byte	.LVL9
 6773 00e9 64000000 		.4byte	.LVL16
 6774 00ed 0400     		.2byte	0x4
 6775 00ef 91       		.byte	0x91
 6776 00f0 907F     		.sleb128 -112
 6777 00f2 06       		.byte	0x6
 6778 00f3 00000000 		.4byte	0
 6779 00f7 00000000 		.4byte	0
 6780              	.LLST8:
 6781 00fb 1A000000 		.4byte	.LVL6
 6782 00ff 20000000 		.4byte	.LVL9
 6783 0103 0100     		.2byte	0x1
 6784 0105 53       		.byte	0x53
 6785 0106 20000000 		.4byte	.LVL9
 6786 010a C0000000 		.4byte	.LVL26
 6787 010e 0600     		.2byte	0x6
 6788 0110 91       		.byte	0x91
 6789 0111 907F     		.sleb128 -112
 6790 0113 06       		.byte	0x6
 6791 0114 23       		.byte	0x23
 6792 0115 04       		.uleb128 0x4
 6793 0116 00000000 		.4byte	0
 6794 011a 00000000 		.4byte	0
 6795              	.LLST9:
 6796 011e 1C000000 		.4byte	.LVL7
 6797 0122 20000000 		.4byte	.LVL9
 6798 0126 0100     		.2byte	0x1
 6799 0128 55       		.byte	0x55
 6800 0129 20000000 		.4byte	.LVL9
 6801 012d 9A000000 		.4byte	.LVL23
 6802 0131 0600     		.2byte	0x6
 6803 0133 91       		.byte	0x91
 6804 0134 907F     		.sleb128 -112
 6805 0136 06       		.byte	0x6
 6806 0137 23       		.byte	0x23
 6807 0138 08       		.uleb128 0x8
 6808 0139 00000000 		.4byte	0
 6809 013d 00000000 		.4byte	0
 6810              	.LLST10:
 6811 0141 1E000000 		.4byte	.LVL8
 6812 0145 20000000 		.4byte	.LVL9
 6813 0149 0100     		.2byte	0x1
 6814 014b 57       		.byte	0x57
 6815 014c 20000000 		.4byte	.LVL9
 6816 0150 82000000 		.4byte	.LVL19
 6817 0154 0600     		.2byte	0x6
ARM GAS  C:\Users\atsu\AppData\Local\Temp\ccFWVBKl.s 			page 133


 6818 0156 91       		.byte	0x91
 6819 0157 907F     		.sleb128 -112
 6820 0159 06       		.byte	0x6
 6821 015a 23       		.byte	0x23
 6822 015b 0C       		.uleb128 0xc
 6823 015c 00000000 		.4byte	0
 6824 0160 00000000 		.4byte	0
 6825              	.LLST11:
 6826 0164 1E000000 		.4byte	.LVL8
 6827 0168 20000000 		.4byte	.LVL9
 6828 016c 0100     		.2byte	0x1
 6829 016e 51       		.byte	0x51
 6830 016f 20000000 		.4byte	.LVL9
 6831 0173 A0070000 		.4byte	.LFE7
 6832 0177 0400     		.2byte	0x4
 6833 0179 F3       		.byte	0xf3
 6834 017a 01       		.uleb128 0x1
 6835 017b 51       		.byte	0x51
 6836 017c 9F       		.byte	0x9f
 6837 017d 00000000 		.4byte	0
 6838 0181 00000000 		.4byte	0
 6839              	.LLST12:
 6840 0185 1E000000 		.4byte	.LVL8
 6841 0189 20000000 		.4byte	.LVL9
 6842 018d 0200     		.2byte	0x2
 6843 018f 30       		.byte	0x30
 6844 0190 9F       		.byte	0x9f
 6845 0191 00000000 		.4byte	0
 6846 0195 00000000 		.4byte	0
 6847              	.LLST13:
 6848 0199 1E000000 		.4byte	.LVL8
 6849 019d 20000000 		.4byte	.LVL9
 6850 01a1 0200     		.2byte	0x2
 6851 01a3 30       		.byte	0x30
 6852 01a4 9F       		.byte	0x9f
 6853 01a5 3E000000 		.4byte	.LVL10
 6854 01a9 4A000000 		.4byte	.LVL12
 6855 01ad 0100     		.2byte	0x1
 6856 01af 54       		.byte	0x54
 6857 01b0 4A000000 		.4byte	.LVL12
 6858 01b4 A0070000 		.4byte	.LFE7
 6859 01b8 0300     		.2byte	0x3
 6860 01ba 91       		.byte	0x91
 6861 01bb 987F     		.sleb128 -104
 6862 01bd 00000000 		.4byte	0
 6863 01c1 00000000 		.4byte	0
 6864              	.LLST14:
 6865 01c5 44000000 		.4byte	.LVL11
 6866 01c9 54000000 		.4byte	.LVL13
 6867 01cd 0200     		.2byte	0x2
 6868 01cf 72       		.byte	0x72
 6869 01d0 00       		.sleb128 0
 6870 01d1 54000000 		.4byte	.LVL13
 6871 01d5 2E070000 		.4byte	.LVL284
 6872 01d9 0300     		.2byte	0x3
 6873 01db 91       		.byte	0x91
 6874 01dc A87F     		.sleb128 -88
ARM GAS  C:\Users\atsu\AppData\Local\Temp\ccFWVBKl.s 			page 134


 6875 01de 2E070000 		.4byte	.LVL284
 6876 01e2 33070000 		.4byte	.LVL285-1
 6877 01e6 0200     		.2byte	0x2
 6878 01e8 70       		.byte	0x70
 6879 01e9 00       		.sleb128 0
 6880 01ea 00000000 		.4byte	0
 6881 01ee 00000000 		.4byte	0
 6882              	.LLST15:
 6883 01f2 44000000 		.4byte	.LVL11
 6884 01f6 60000000 		.4byte	.LVL14
 6885 01fa 0300     		.2byte	0x3
 6886 01fc 91       		.byte	0x91
 6887 01fd A47F     		.sleb128 -92
 6888 01ff 60000000 		.4byte	.LVL14
 6889 0203 62000000 		.4byte	.LVL15
 6890 0207 0D00     		.2byte	0xd
 6891 0209 71       		.byte	0x71
 6892 020a 00       		.sleb128 0
 6893 020b 49       		.byte	0x49
 6894 020c 14       		.byte	0x14
 6895 020d 14       		.byte	0x14
 6896 020e 1F       		.byte	0x1f
 6897 020f 23       		.byte	0x23
 6898 0210 20       		.uleb128 0x20
 6899 0211 24       		.byte	0x24
 6900 0212 17       		.byte	0x17
 6901 0213 25       		.byte	0x25
 6902 0214 21       		.byte	0x21
 6903 0215 9F       		.byte	0x9f
 6904 0216 62000000 		.4byte	.LVL15
 6905 021a 64000000 		.4byte	.LVL16
 6906 021e 0100     		.2byte	0x1
 6907 0220 51       		.byte	0x51
 6908 0221 64000000 		.4byte	.LVL16
 6909 0225 CE000000 		.4byte	.LVL28
 6910 0229 0100     		.2byte	0x1
 6911 022b 56       		.byte	0x56
 6912 022c CE000000 		.4byte	.LVL28
 6913 0230 2E070000 		.4byte	.LVL284
 6914 0234 3400     		.2byte	0x34
 6915 0236 91       		.byte	0x91
 6916 0237 947F     		.sleb128 -108
 6917 0239 06       		.byte	0x6
 6918 023a 20       		.byte	0x20
 6919 023b 91       		.byte	0x91
 6920 023c A07F     		.sleb128 -96
 6921 023e 06       		.byte	0x6
 6922 023f 1A       		.byte	0x1a
 6923 0240 91       		.byte	0x91
 6924 0241 947F     		.sleb128 -108
 6925 0243 06       		.byte	0x6
 6926 0244 91       		.byte	0x91
 6927 0245 9C7F     		.sleb128 -100
 6928 0247 06       		.byte	0x6
 6929 0248 1A       		.byte	0x1a
 6930 0249 21       		.byte	0x21
 6931 024a 91       		.byte	0x91
ARM GAS  C:\Users\atsu\AppData\Local\Temp\ccFWVBKl.s 			page 135


 6932 024b A87F     		.sleb128 -88
 6933 024d 06       		.byte	0x6
 6934 024e 22       		.byte	0x22
 6935 024f 91       		.byte	0x91
 6936 0250 A47F     		.sleb128 -92
 6937 0252 06       		.byte	0x6
 6938 0253 22       		.byte	0x22
 6939 0254 0C       		.byte	0xc
 6940 0255 885B9528 		.4byte	0x28955b88
 6941 0259 1C       		.byte	0x1c
 6942 025a 49       		.byte	0x49
 6943 025b 14       		.byte	0x14
 6944 025c 14       		.byte	0x14
 6945 025d 1F       		.byte	0x1f
 6946 025e 23       		.byte	0x23
 6947 025f 20       		.uleb128 0x20
 6948 0260 24       		.byte	0x24
 6949 0261 17       		.byte	0x17
 6950 0262 25       		.byte	0x25
 6951 0263 21       		.byte	0x21
 6952 0264 91       		.byte	0x91
 6953 0265 947F     		.sleb128 -108
 6954 0267 06       		.byte	0x6
 6955 0268 22       		.byte	0x22
 6956 0269 9F       		.byte	0x9f
 6957 026a 2E070000 		.4byte	.LVL284
 6958 026e 33070000 		.4byte	.LVL285-1
 6959 0272 3300     		.2byte	0x33
 6960 0274 91       		.byte	0x91
 6961 0275 947F     		.sleb128 -108
 6962 0277 06       		.byte	0x6
 6963 0278 20       		.byte	0x20
 6964 0279 91       		.byte	0x91
 6965 027a A07F     		.sleb128 -96
 6966 027c 06       		.byte	0x6
 6967 027d 1A       		.byte	0x1a
 6968 027e 91       		.byte	0x91
 6969 027f 947F     		.sleb128 -108
 6970 0281 06       		.byte	0x6
 6971 0282 91       		.byte	0x91
 6972 0283 9C7F     		.sleb128 -100
 6973 0285 06       		.byte	0x6
 6974 0286 1A       		.byte	0x1a
 6975 0287 21       		.byte	0x21
 6976 0288 70       		.byte	0x70
 6977 0289 00       		.sleb128 0
 6978 028a 06       		.byte	0x6
 6979 028b 22       		.byte	0x22
 6980 028c 91       		.byte	0x91
 6981 028d A47F     		.sleb128 -92
 6982 028f 06       		.byte	0x6
 6983 0290 22       		.byte	0x22
 6984 0291 0C       		.byte	0xc
 6985 0292 885B9528 		.4byte	0x28955b88
 6986 0296 1C       		.byte	0x1c
 6987 0297 49       		.byte	0x49
 6988 0298 14       		.byte	0x14
ARM GAS  C:\Users\atsu\AppData\Local\Temp\ccFWVBKl.s 			page 136


 6989 0299 14       		.byte	0x14
 6990 029a 1F       		.byte	0x1f
 6991 029b 23       		.byte	0x23
 6992 029c 20       		.uleb128 0x20
 6993 029d 24       		.byte	0x24
 6994 029e 17       		.byte	0x17
 6995 029f 25       		.byte	0x25
 6996 02a0 21       		.byte	0x21
 6997 02a1 91       		.byte	0x91
 6998 02a2 947F     		.sleb128 -108
 6999 02a4 06       		.byte	0x6
 7000 02a5 22       		.byte	0x22
 7001 02a6 9F       		.byte	0x9f
 7002 02a7 00000000 		.4byte	0
 7003 02ab 00000000 		.4byte	0
 7004              	.LLST16:
 7005 02af 64000000 		.4byte	.LVL16
 7006 02b3 33070000 		.4byte	.LVL285-1
 7007 02b7 0300     		.2byte	0x3
 7008 02b9 91       		.byte	0x91
 7009 02ba AC7F     		.sleb128 -84
 7010 02bc 00000000 		.4byte	0
 7011 02c0 00000000 		.4byte	0
 7012              	.LLST17:
 7013 02c4 64000000 		.4byte	.LVL16
 7014 02c8 CE000000 		.4byte	.LVL28
 7015 02cc 0100     		.2byte	0x1
 7016 02ce 56       		.byte	0x56
 7017 02cf CE000000 		.4byte	.LVL28
 7018 02d3 2E070000 		.4byte	.LVL284
 7019 02d7 3400     		.2byte	0x34
 7020 02d9 91       		.byte	0x91
 7021 02da 947F     		.sleb128 -108
 7022 02dc 06       		.byte	0x6
 7023 02dd 20       		.byte	0x20
 7024 02de 91       		.byte	0x91
 7025 02df A07F     		.sleb128 -96
 7026 02e1 06       		.byte	0x6
 7027 02e2 1A       		.byte	0x1a
 7028 02e3 91       		.byte	0x91
 7029 02e4 947F     		.sleb128 -108
 7030 02e6 06       		.byte	0x6
 7031 02e7 91       		.byte	0x91
 7032 02e8 9C7F     		.sleb128 -100
 7033 02ea 06       		.byte	0x6
 7034 02eb 1A       		.byte	0x1a
 7035 02ec 21       		.byte	0x21
 7036 02ed 91       		.byte	0x91
 7037 02ee A87F     		.sleb128 -88
 7038 02f0 06       		.byte	0x6
 7039 02f1 22       		.byte	0x22
 7040 02f2 91       		.byte	0x91
 7041 02f3 A47F     		.sleb128 -92
 7042 02f5 06       		.byte	0x6
 7043 02f6 22       		.byte	0x22
 7044 02f7 0C       		.byte	0xc
 7045 02f8 885B9528 		.4byte	0x28955b88
ARM GAS  C:\Users\atsu\AppData\Local\Temp\ccFWVBKl.s 			page 137


 7046 02fc 1C       		.byte	0x1c
 7047 02fd 49       		.byte	0x49
 7048 02fe 14       		.byte	0x14
 7049 02ff 14       		.byte	0x14
 7050 0300 1F       		.byte	0x1f
 7051 0301 23       		.byte	0x23
 7052 0302 20       		.uleb128 0x20
 7053 0303 24       		.byte	0x24
 7054 0304 17       		.byte	0x17
 7055 0305 25       		.byte	0x25
 7056 0306 21       		.byte	0x21
 7057 0307 91       		.byte	0x91
 7058 0308 947F     		.sleb128 -108
 7059 030a 06       		.byte	0x6
 7060 030b 22       		.byte	0x22
 7061 030c 9F       		.byte	0x9f
 7062 030d 2E070000 		.4byte	.LVL284
 7063 0311 33070000 		.4byte	.LVL285-1
 7064 0315 3300     		.2byte	0x33
 7065 0317 91       		.byte	0x91
 7066 0318 947F     		.sleb128 -108
 7067 031a 06       		.byte	0x6
 7068 031b 20       		.byte	0x20
 7069 031c 91       		.byte	0x91
 7070 031d A07F     		.sleb128 -96
 7071 031f 06       		.byte	0x6
 7072 0320 1A       		.byte	0x1a
 7073 0321 91       		.byte	0x91
 7074 0322 947F     		.sleb128 -108
 7075 0324 06       		.byte	0x6
 7076 0325 91       		.byte	0x91
 7077 0326 9C7F     		.sleb128 -100
 7078 0328 06       		.byte	0x6
 7079 0329 1A       		.byte	0x1a
 7080 032a 21       		.byte	0x21
 7081 032b 70       		.byte	0x70
 7082 032c 00       		.sleb128 0
 7083 032d 06       		.byte	0x6
 7084 032e 22       		.byte	0x22
 7085 032f 91       		.byte	0x91
 7086 0330 A47F     		.sleb128 -92
 7087 0332 06       		.byte	0x6
 7088 0333 22       		.byte	0x22
 7089 0334 0C       		.byte	0xc
 7090 0335 885B9528 		.4byte	0x28955b88
 7091 0339 1C       		.byte	0x1c
 7092 033a 49       		.byte	0x49
 7093 033b 14       		.byte	0x14
 7094 033c 14       		.byte	0x14
 7095 033d 1F       		.byte	0x1f
 7096 033e 23       		.byte	0x23
 7097 033f 20       		.uleb128 0x20
 7098 0340 24       		.byte	0x24
 7099 0341 17       		.byte	0x17
 7100 0342 25       		.byte	0x25
 7101 0343 21       		.byte	0x21
 7102 0344 91       		.byte	0x91
ARM GAS  C:\Users\atsu\AppData\Local\Temp\ccFWVBKl.s 			page 138


 7103 0345 947F     		.sleb128 -108
 7104 0347 06       		.byte	0x6
 7105 0348 22       		.byte	0x22
 7106 0349 9F       		.byte	0x9f
 7107 034a 00000000 		.4byte	0
 7108 034e 00000000 		.4byte	0
 7109              	.LLST18:
 7110 0352 64000000 		.4byte	.LVL16
 7111 0356 78000000 		.4byte	.LVL17
 7112 035a 0300     		.2byte	0x3
 7113 035c 91       		.byte	0x91
 7114 035d A07F     		.sleb128 -96
 7115 035f 78000000 		.4byte	.LVL17
 7116 0363 7E000000 		.4byte	.LVL18
 7117 0367 0D00     		.2byte	0xd
 7118 0369 70       		.byte	0x70
 7119 036a 00       		.sleb128 0
 7120 036b 44       		.byte	0x44
 7121 036c 14       		.byte	0x14
 7122 036d 14       		.byte	0x14
 7123 036e 1F       		.byte	0x1f
 7124 036f 23       		.byte	0x23
 7125 0370 20       		.uleb128 0x20
 7126 0371 24       		.byte	0x24
 7127 0372 17       		.byte	0x17
 7128 0373 25       		.byte	0x25
 7129 0374 21       		.byte	0x21
 7130 0375 9F       		.byte	0x9f
 7131 0376 7E000000 		.4byte	.LVL18
 7132 037a 82000000 		.4byte	.LVL19
 7133 037e 0100     		.2byte	0x1
 7134 0380 50       		.byte	0x50
 7135 0381 82000000 		.4byte	.LVL19
 7136 0385 E8000000 		.4byte	.LVL33
 7137 0389 0100     		.2byte	0x1
 7138 038b 51       		.byte	0x51
 7139 038c E8000000 		.4byte	.LVL33
 7140 0390 2E070000 		.4byte	.LVL284
 7141 0394 C100     		.2byte	0xc1
 7142 0396 91       		.byte	0x91
 7143 0397 947F     		.sleb128 -108
 7144 0399 06       		.byte	0x6
 7145 039a 20       		.byte	0x20
 7146 039b 91       		.byte	0x91
 7147 039c A07F     		.sleb128 -96
 7148 039e 06       		.byte	0x6
 7149 039f 1A       		.byte	0x1a
 7150 03a0 91       		.byte	0x91
 7151 03a1 947F     		.sleb128 -108
 7152 03a3 06       		.byte	0x6
 7153 03a4 91       		.byte	0x91
 7154 03a5 9C7F     		.sleb128 -100
 7155 03a7 06       		.byte	0x6
 7156 03a8 1A       		.byte	0x1a
 7157 03a9 21       		.byte	0x21
 7158 03aa 91       		.byte	0x91
 7159 03ab A87F     		.sleb128 -88
ARM GAS  C:\Users\atsu\AppData\Local\Temp\ccFWVBKl.s 			page 139


 7160 03ad 06       		.byte	0x6
 7161 03ae 22       		.byte	0x22
 7162 03af 91       		.byte	0x91
 7163 03b0 A47F     		.sleb128 -92
 7164 03b2 06       		.byte	0x6
 7165 03b3 22       		.byte	0x22
 7166 03b4 0C       		.byte	0xc
 7167 03b5 885B9528 		.4byte	0x28955b88
 7168 03b9 1C       		.byte	0x1c
 7169 03ba 49       		.byte	0x49
 7170 03bb 14       		.byte	0x14
 7171 03bc 14       		.byte	0x14
 7172 03bd 1F       		.byte	0x1f
 7173 03be 23       		.byte	0x23
 7174 03bf 20       		.uleb128 0x20
 7175 03c0 24       		.byte	0x24
 7176 03c1 17       		.byte	0x17
 7177 03c2 25       		.byte	0x25
 7178 03c3 21       		.byte	0x21
 7179 03c4 91       		.byte	0x91
 7180 03c5 947F     		.sleb128 -108
 7181 03c7 06       		.byte	0x6
 7182 03c8 22       		.byte	0x22
 7183 03c9 91       		.byte	0x91
 7184 03ca 947F     		.sleb128 -108
 7185 03cc 06       		.byte	0x6
 7186 03cd 20       		.byte	0x20
 7187 03ce 91       		.byte	0x91
 7188 03cf A07F     		.sleb128 -96
 7189 03d1 06       		.byte	0x6
 7190 03d2 1A       		.byte	0x1a
 7191 03d3 91       		.byte	0x91
 7192 03d4 947F     		.sleb128 -108
 7193 03d6 06       		.byte	0x6
 7194 03d7 91       		.byte	0x91
 7195 03d8 9C7F     		.sleb128 -100
 7196 03da 06       		.byte	0x6
 7197 03db 1A       		.byte	0x1a
 7198 03dc 21       		.byte	0x21
 7199 03dd 91       		.byte	0x91
 7200 03de A87F     		.sleb128 -88
 7201 03e0 06       		.byte	0x6
 7202 03e1 22       		.byte	0x22
 7203 03e2 91       		.byte	0x91
 7204 03e3 A47F     		.sleb128 -92
 7205 03e5 06       		.byte	0x6
 7206 03e6 22       		.byte	0x22
 7207 03e7 0C       		.byte	0xc
 7208 03e8 885B9528 		.4byte	0x28955b88
 7209 03ec 1C       		.byte	0x1c
 7210 03ed 49       		.byte	0x49
 7211 03ee 14       		.byte	0x14
 7212 03ef 14       		.byte	0x14
 7213 03f0 1F       		.byte	0x1f
 7214 03f1 23       		.byte	0x23
 7215 03f2 20       		.uleb128 0x20
 7216 03f3 24       		.byte	0x24
ARM GAS  C:\Users\atsu\AppData\Local\Temp\ccFWVBKl.s 			page 140


 7217 03f4 17       		.byte	0x17
 7218 03f5 25       		.byte	0x25
 7219 03f6 21       		.byte	0x21
 7220 03f7 91       		.byte	0x91
 7221 03f8 947F     		.sleb128 -108
 7222 03fa 06       		.byte	0x6
 7223 03fb 22       		.byte	0x22
 7224 03fc 20       		.byte	0x20
 7225 03fd 91       		.byte	0x91
 7226 03fe 9C7F     		.sleb128 -100
 7227 0400 06       		.byte	0x6
 7228 0401 1A       		.byte	0x1a
 7229 0402 91       		.byte	0x91
 7230 0403 947F     		.sleb128 -108
 7231 0405 06       		.byte	0x6
 7232 0406 20       		.byte	0x20
 7233 0407 91       		.byte	0x91
 7234 0408 A07F     		.sleb128 -96
 7235 040a 06       		.byte	0x6
 7236 040b 1A       		.byte	0x1a
 7237 040c 91       		.byte	0x91
 7238 040d 947F     		.sleb128 -108
 7239 040f 06       		.byte	0x6
 7240 0410 91       		.byte	0x91
 7241 0411 9C7F     		.sleb128 -100
 7242 0413 06       		.byte	0x6
 7243 0414 1A       		.byte	0x1a
 7244 0415 21       		.byte	0x21
 7245 0416 91       		.byte	0x91
 7246 0417 A87F     		.sleb128 -88
 7247 0419 06       		.byte	0x6
 7248 041a 22       		.byte	0x22
 7249 041b 91       		.byte	0x91
 7250 041c A47F     		.sleb128 -92
 7251 041e 06       		.byte	0x6
 7252 041f 22       		.byte	0x22
 7253 0420 0C       		.byte	0xc
 7254 0421 885B9528 		.4byte	0x28955b88
 7255 0425 1C       		.byte	0x1c
 7256 0426 49       		.byte	0x49
 7257 0427 14       		.byte	0x14
 7258 0428 14       		.byte	0x14
 7259 0429 1F       		.byte	0x1f
 7260 042a 23       		.byte	0x23
 7261 042b 20       		.uleb128 0x20
 7262 042c 24       		.byte	0x24
 7263 042d 17       		.byte	0x17
 7264 042e 25       		.byte	0x25
 7265 042f 21       		.byte	0x21
 7266 0430 91       		.byte	0x91
 7267 0431 947F     		.sleb128 -108
 7268 0433 06       		.byte	0x6
 7269 0434 22       		.byte	0x22
 7270 0435 91       		.byte	0x91
 7271 0436 947F     		.sleb128 -108
 7272 0438 06       		.byte	0x6
 7273 0439 1A       		.byte	0x1a
ARM GAS  C:\Users\atsu\AppData\Local\Temp\ccFWVBKl.s 			page 141


 7274 043a 21       		.byte	0x21
 7275 043b 91       		.byte	0x91
 7276 043c AC7F     		.sleb128 -84
 7277 043e 06       		.byte	0x6
 7278 043f 22       		.byte	0x22
 7279 0440 91       		.byte	0x91
 7280 0441 A07F     		.sleb128 -96
 7281 0443 06       		.byte	0x6
 7282 0444 22       		.byte	0x22
 7283 0445 0C       		.byte	0xc
 7284 0446 AA483817 		.4byte	0x173848aa
 7285 044a 1C       		.byte	0x1c
 7286 044b 44       		.byte	0x44
 7287 044c 14       		.byte	0x14
 7288 044d 14       		.byte	0x14
 7289 044e 1F       		.byte	0x1f
 7290 044f 23       		.byte	0x23
 7291 0450 20       		.uleb128 0x20
 7292 0451 24       		.byte	0x24
 7293 0452 17       		.byte	0x17
 7294 0453 25       		.byte	0x25
 7295 0454 21       		.byte	0x21
 7296 0455 22       		.byte	0x22
 7297 0456 9F       		.byte	0x9f
 7298 0457 2E070000 		.4byte	.LVL284
 7299 045b 33070000 		.4byte	.LVL285-1
 7300 045f BE00     		.2byte	0xbe
 7301 0461 91       		.byte	0x91
 7302 0462 947F     		.sleb128 -108
 7303 0464 06       		.byte	0x6
 7304 0465 20       		.byte	0x20
 7305 0466 91       		.byte	0x91
 7306 0467 A07F     		.sleb128 -96
 7307 0469 06       		.byte	0x6
 7308 046a 1A       		.byte	0x1a
 7309 046b 91       		.byte	0x91
 7310 046c 947F     		.sleb128 -108
 7311 046e 06       		.byte	0x6
 7312 046f 91       		.byte	0x91
 7313 0470 9C7F     		.sleb128 -100
 7314 0472 06       		.byte	0x6
 7315 0473 1A       		.byte	0x1a
 7316 0474 21       		.byte	0x21
 7317 0475 70       		.byte	0x70
 7318 0476 00       		.sleb128 0
 7319 0477 06       		.byte	0x6
 7320 0478 22       		.byte	0x22
 7321 0479 91       		.byte	0x91
 7322 047a A47F     		.sleb128 -92
 7323 047c 06       		.byte	0x6
 7324 047d 22       		.byte	0x22
 7325 047e 0C       		.byte	0xc
 7326 047f 885B9528 		.4byte	0x28955b88
 7327 0483 1C       		.byte	0x1c
 7328 0484 49       		.byte	0x49
 7329 0485 14       		.byte	0x14
 7330 0486 14       		.byte	0x14
ARM GAS  C:\Users\atsu\AppData\Local\Temp\ccFWVBKl.s 			page 142


 7331 0487 1F       		.byte	0x1f
 7332 0488 23       		.byte	0x23
 7333 0489 20       		.uleb128 0x20
 7334 048a 24       		.byte	0x24
 7335 048b 17       		.byte	0x17
 7336 048c 25       		.byte	0x25
 7337 048d 21       		.byte	0x21
 7338 048e 91       		.byte	0x91
 7339 048f 947F     		.sleb128 -108
 7340 0491 06       		.byte	0x6
 7341 0492 22       		.byte	0x22
 7342 0493 91       		.byte	0x91
 7343 0494 947F     		.sleb128 -108
 7344 0496 06       		.byte	0x6
 7345 0497 20       		.byte	0x20
 7346 0498 91       		.byte	0x91
 7347 0499 A07F     		.sleb128 -96
 7348 049b 06       		.byte	0x6
 7349 049c 1A       		.byte	0x1a
 7350 049d 91       		.byte	0x91
 7351 049e 947F     		.sleb128 -108
 7352 04a0 06       		.byte	0x6
 7353 04a1 91       		.byte	0x91
 7354 04a2 9C7F     		.sleb128 -100
 7355 04a4 06       		.byte	0x6
 7356 04a5 1A       		.byte	0x1a
 7357 04a6 21       		.byte	0x21
 7358 04a7 70       		.byte	0x70
 7359 04a8 00       		.sleb128 0
 7360 04a9 06       		.byte	0x6
 7361 04aa 22       		.byte	0x22
 7362 04ab 91       		.byte	0x91
 7363 04ac A47F     		.sleb128 -92
 7364 04ae 06       		.byte	0x6
 7365 04af 22       		.byte	0x22
 7366 04b0 0C       		.byte	0xc
 7367 04b1 885B9528 		.4byte	0x28955b88
 7368 04b5 1C       		.byte	0x1c
 7369 04b6 49       		.byte	0x49
 7370 04b7 14       		.byte	0x14
 7371 04b8 14       		.byte	0x14
 7372 04b9 1F       		.byte	0x1f
 7373 04ba 23       		.byte	0x23
 7374 04bb 20       		.uleb128 0x20
 7375 04bc 24       		.byte	0x24
 7376 04bd 17       		.byte	0x17
 7377 04be 25       		.byte	0x25
 7378 04bf 21       		.byte	0x21
 7379 04c0 91       		.byte	0x91
 7380 04c1 947F     		.sleb128 -108
 7381 04c3 06       		.byte	0x6
 7382 04c4 22       		.byte	0x22
 7383 04c5 20       		.byte	0x20
 7384 04c6 91       		.byte	0x91
 7385 04c7 9C7F     		.sleb128 -100
 7386 04c9 06       		.byte	0x6
 7387 04ca 1A       		.byte	0x1a
ARM GAS  C:\Users\atsu\AppData\Local\Temp\ccFWVBKl.s 			page 143


 7388 04cb 91       		.byte	0x91
 7389 04cc 947F     		.sleb128 -108
 7390 04ce 06       		.byte	0x6
 7391 04cf 20       		.byte	0x20
 7392 04d0 91       		.byte	0x91
 7393 04d1 A07F     		.sleb128 -96
 7394 04d3 06       		.byte	0x6
 7395 04d4 1A       		.byte	0x1a
 7396 04d5 91       		.byte	0x91
 7397 04d6 947F     		.sleb128 -108
 7398 04d8 06       		.byte	0x6
 7399 04d9 91       		.byte	0x91
 7400 04da 9C7F     		.sleb128 -100
 7401 04dc 06       		.byte	0x6
 7402 04dd 1A       		.byte	0x1a
 7403 04de 21       		.byte	0x21
 7404 04df 70       		.byte	0x70
 7405 04e0 00       		.sleb128 0
 7406 04e1 06       		.byte	0x6
 7407 04e2 22       		.byte	0x22
 7408 04e3 91       		.byte	0x91
 7409 04e4 A47F     		.sleb128 -92
 7410 04e6 06       		.byte	0x6
 7411 04e7 22       		.byte	0x22
 7412 04e8 0C       		.byte	0xc
 7413 04e9 885B9528 		.4byte	0x28955b88
 7414 04ed 1C       		.byte	0x1c
 7415 04ee 49       		.byte	0x49
 7416 04ef 14       		.byte	0x14
 7417 04f0 14       		.byte	0x14
 7418 04f1 1F       		.byte	0x1f
 7419 04f2 23       		.byte	0x23
 7420 04f3 20       		.uleb128 0x20
 7421 04f4 24       		.byte	0x24
 7422 04f5 17       		.byte	0x17
 7423 04f6 25       		.byte	0x25
 7424 04f7 21       		.byte	0x21
 7425 04f8 91       		.byte	0x91
 7426 04f9 947F     		.sleb128 -108
 7427 04fb 06       		.byte	0x6
 7428 04fc 22       		.byte	0x22
 7429 04fd 91       		.byte	0x91
 7430 04fe 947F     		.sleb128 -108
 7431 0500 06       		.byte	0x6
 7432 0501 1A       		.byte	0x1a
 7433 0502 21       		.byte	0x21
 7434 0503 91       		.byte	0x91
 7435 0504 AC7F     		.sleb128 -84
 7436 0506 06       		.byte	0x6
 7437 0507 22       		.byte	0x22
 7438 0508 91       		.byte	0x91
 7439 0509 A07F     		.sleb128 -96
 7440 050b 06       		.byte	0x6
 7441 050c 22       		.byte	0x22
 7442 050d 0C       		.byte	0xc
 7443 050e AA483817 		.4byte	0x173848aa
 7444 0512 1C       		.byte	0x1c
ARM GAS  C:\Users\atsu\AppData\Local\Temp\ccFWVBKl.s 			page 144


 7445 0513 44       		.byte	0x44
 7446 0514 14       		.byte	0x14
 7447 0515 14       		.byte	0x14
 7448 0516 1F       		.byte	0x1f
 7449 0517 23       		.byte	0x23
 7450 0518 20       		.uleb128 0x20
 7451 0519 24       		.byte	0x24
 7452 051a 17       		.byte	0x17
 7453 051b 25       		.byte	0x25
 7454 051c 21       		.byte	0x21
 7455 051d 22       		.byte	0x22
 7456 051e 9F       		.byte	0x9f
 7457 051f 00000000 		.4byte	0
 7458 0523 00000000 		.4byte	0
 7459              	.LLST19:
 7460 0527 82000000 		.4byte	.LVL19
 7461 052b 8C000000 		.4byte	.LVL20
 7462 052f 0100     		.2byte	0x1
 7463 0531 52       		.byte	0x52
 7464 0532 8C000000 		.4byte	.LVL20
 7465 0536 33070000 		.4byte	.LVL285-1
 7466 053a 0300     		.2byte	0x3
 7467 053c 91       		.byte	0x91
 7468 053d B07F     		.sleb128 -80
 7469 053f 00000000 		.4byte	0
 7470 0543 00000000 		.4byte	0
 7471              	.LLST20:
 7472 0547 82000000 		.4byte	.LVL19
 7473 054b CE000000 		.4byte	.LVL28
 7474 054f 0100     		.2byte	0x1
 7475 0551 56       		.byte	0x56
 7476 0552 CE000000 		.4byte	.LVL28
 7477 0556 2E070000 		.4byte	.LVL284
 7478 055a 3400     		.2byte	0x34
 7479 055c 91       		.byte	0x91
 7480 055d 947F     		.sleb128 -108
 7481 055f 06       		.byte	0x6
 7482 0560 20       		.byte	0x20
 7483 0561 91       		.byte	0x91
 7484 0562 A07F     		.sleb128 -96
 7485 0564 06       		.byte	0x6
 7486 0565 1A       		.byte	0x1a
 7487 0566 91       		.byte	0x91
 7488 0567 947F     		.sleb128 -108
 7489 0569 06       		.byte	0x6
 7490 056a 91       		.byte	0x91
 7491 056b 9C7F     		.sleb128 -100
 7492 056d 06       		.byte	0x6
 7493 056e 1A       		.byte	0x1a
 7494 056f 21       		.byte	0x21
 7495 0570 91       		.byte	0x91
 7496 0571 A87F     		.sleb128 -88
 7497 0573 06       		.byte	0x6
 7498 0574 22       		.byte	0x22
 7499 0575 91       		.byte	0x91
 7500 0576 A47F     		.sleb128 -92
 7501 0578 06       		.byte	0x6
ARM GAS  C:\Users\atsu\AppData\Local\Temp\ccFWVBKl.s 			page 145


 7502 0579 22       		.byte	0x22
 7503 057a 0C       		.byte	0xc
 7504 057b 885B9528 		.4byte	0x28955b88
 7505 057f 1C       		.byte	0x1c
 7506 0580 49       		.byte	0x49
 7507 0581 14       		.byte	0x14
 7508 0582 14       		.byte	0x14
 7509 0583 1F       		.byte	0x1f
 7510 0584 23       		.byte	0x23
 7511 0585 20       		.uleb128 0x20
 7512 0586 24       		.byte	0x24
 7513 0587 17       		.byte	0x17
 7514 0588 25       		.byte	0x25
 7515 0589 21       		.byte	0x21
 7516 058a 91       		.byte	0x91
 7517 058b 947F     		.sleb128 -108
 7518 058d 06       		.byte	0x6
 7519 058e 22       		.byte	0x22
 7520 058f 9F       		.byte	0x9f
 7521 0590 2E070000 		.4byte	.LVL284
 7522 0594 33070000 		.4byte	.LVL285-1
 7523 0598 3300     		.2byte	0x33
 7524 059a 91       		.byte	0x91
 7525 059b 947F     		.sleb128 -108
 7526 059d 06       		.byte	0x6
 7527 059e 20       		.byte	0x20
 7528 059f 91       		.byte	0x91
 7529 05a0 A07F     		.sleb128 -96
 7530 05a2 06       		.byte	0x6
 7531 05a3 1A       		.byte	0x1a
 7532 05a4 91       		.byte	0x91
 7533 05a5 947F     		.sleb128 -108
 7534 05a7 06       		.byte	0x6
 7535 05a8 91       		.byte	0x91
 7536 05a9 9C7F     		.sleb128 -100
 7537 05ab 06       		.byte	0x6
 7538 05ac 1A       		.byte	0x1a
 7539 05ad 21       		.byte	0x21
 7540 05ae 70       		.byte	0x70
 7541 05af 00       		.sleb128 0
 7542 05b0 06       		.byte	0x6
 7543 05b1 22       		.byte	0x22
 7544 05b2 91       		.byte	0x91
 7545 05b3 A47F     		.sleb128 -92
 7546 05b5 06       		.byte	0x6
 7547 05b6 22       		.byte	0x22
 7548 05b7 0C       		.byte	0xc
 7549 05b8 885B9528 		.4byte	0x28955b88
 7550 05bc 1C       		.byte	0x1c
 7551 05bd 49       		.byte	0x49
 7552 05be 14       		.byte	0x14
 7553 05bf 14       		.byte	0x14
 7554 05c0 1F       		.byte	0x1f
 7555 05c1 23       		.byte	0x23
 7556 05c2 20       		.uleb128 0x20
 7557 05c3 24       		.byte	0x24
 7558 05c4 17       		.byte	0x17
ARM GAS  C:\Users\atsu\AppData\Local\Temp\ccFWVBKl.s 			page 146


 7559 05c5 25       		.byte	0x25
 7560 05c6 21       		.byte	0x21
 7561 05c7 91       		.byte	0x91
 7562 05c8 947F     		.sleb128 -108
 7563 05ca 06       		.byte	0x6
 7564 05cb 22       		.byte	0x22
 7565 05cc 9F       		.byte	0x9f
 7566 05cd 00000000 		.4byte	0
 7567 05d1 00000000 		.4byte	0
 7568              	.LLST21:
 7569 05d5 82000000 		.4byte	.LVL19
 7570 05d9 E8000000 		.4byte	.LVL33
 7571 05dd 0100     		.2byte	0x1
 7572 05df 51       		.byte	0x51
 7573 05e0 E8000000 		.4byte	.LVL33
 7574 05e4 2E070000 		.4byte	.LVL284
 7575 05e8 C100     		.2byte	0xc1
 7576 05ea 91       		.byte	0x91
 7577 05eb 947F     		.sleb128 -108
 7578 05ed 06       		.byte	0x6
 7579 05ee 20       		.byte	0x20
 7580 05ef 91       		.byte	0x91
 7581 05f0 A07F     		.sleb128 -96
 7582 05f2 06       		.byte	0x6
 7583 05f3 1A       		.byte	0x1a
 7584 05f4 91       		.byte	0x91
 7585 05f5 947F     		.sleb128 -108
 7586 05f7 06       		.byte	0x6
 7587 05f8 91       		.byte	0x91
 7588 05f9 9C7F     		.sleb128 -100
 7589 05fb 06       		.byte	0x6
 7590 05fc 1A       		.byte	0x1a
 7591 05fd 21       		.byte	0x21
 7592 05fe 91       		.byte	0x91
 7593 05ff A87F     		.sleb128 -88
 7594 0601 06       		.byte	0x6
 7595 0602 22       		.byte	0x22
 7596 0603 91       		.byte	0x91
 7597 0604 A47F     		.sleb128 -92
 7598 0606 06       		.byte	0x6
 7599 0607 22       		.byte	0x22
 7600 0608 0C       		.byte	0xc
 7601 0609 885B9528 		.4byte	0x28955b88
 7602 060d 1C       		.byte	0x1c
 7603 060e 49       		.byte	0x49
 7604 060f 14       		.byte	0x14
 7605 0610 14       		.byte	0x14
 7606 0611 1F       		.byte	0x1f
 7607 0612 23       		.byte	0x23
 7608 0613 20       		.uleb128 0x20
 7609 0614 24       		.byte	0x24
 7610 0615 17       		.byte	0x17
 7611 0616 25       		.byte	0x25
 7612 0617 21       		.byte	0x21
 7613 0618 91       		.byte	0x91
 7614 0619 947F     		.sleb128 -108
 7615 061b 06       		.byte	0x6
ARM GAS  C:\Users\atsu\AppData\Local\Temp\ccFWVBKl.s 			page 147


 7616 061c 22       		.byte	0x22
 7617 061d 91       		.byte	0x91
 7618 061e 947F     		.sleb128 -108
 7619 0620 06       		.byte	0x6
 7620 0621 20       		.byte	0x20
 7621 0622 91       		.byte	0x91
 7622 0623 A07F     		.sleb128 -96
 7623 0625 06       		.byte	0x6
 7624 0626 1A       		.byte	0x1a
 7625 0627 91       		.byte	0x91
 7626 0628 947F     		.sleb128 -108
 7627 062a 06       		.byte	0x6
 7628 062b 91       		.byte	0x91
 7629 062c 9C7F     		.sleb128 -100
 7630 062e 06       		.byte	0x6
 7631 062f 1A       		.byte	0x1a
 7632 0630 21       		.byte	0x21
 7633 0631 91       		.byte	0x91
 7634 0632 A87F     		.sleb128 -88
 7635 0634 06       		.byte	0x6
 7636 0635 22       		.byte	0x22
 7637 0636 91       		.byte	0x91
 7638 0637 A47F     		.sleb128 -92
 7639 0639 06       		.byte	0x6
 7640 063a 22       		.byte	0x22
 7641 063b 0C       		.byte	0xc
 7642 063c 885B9528 		.4byte	0x28955b88
 7643 0640 1C       		.byte	0x1c
 7644 0641 49       		.byte	0x49
 7645 0642 14       		.byte	0x14
 7646 0643 14       		.byte	0x14
 7647 0644 1F       		.byte	0x1f
 7648 0645 23       		.byte	0x23
 7649 0646 20       		.uleb128 0x20
 7650 0647 24       		.byte	0x24
 7651 0648 17       		.byte	0x17
 7652 0649 25       		.byte	0x25
 7653 064a 21       		.byte	0x21
 7654 064b 91       		.byte	0x91
 7655 064c 947F     		.sleb128 -108
 7656 064e 06       		.byte	0x6
 7657 064f 22       		.byte	0x22
 7658 0650 20       		.byte	0x20
 7659 0651 91       		.byte	0x91
 7660 0652 9C7F     		.sleb128 -100
 7661 0654 06       		.byte	0x6
 7662 0655 1A       		.byte	0x1a
 7663 0656 91       		.byte	0x91
 7664 0657 947F     		.sleb128 -108
 7665 0659 06       		.byte	0x6
 7666 065a 20       		.byte	0x20
 7667 065b 91       		.byte	0x91
 7668 065c A07F     		.sleb128 -96
 7669 065e 06       		.byte	0x6
 7670 065f 1A       		.byte	0x1a
 7671 0660 91       		.byte	0x91
 7672 0661 947F     		.sleb128 -108
ARM GAS  C:\Users\atsu\AppData\Local\Temp\ccFWVBKl.s 			page 148


 7673 0663 06       		.byte	0x6
 7674 0664 91       		.byte	0x91
 7675 0665 9C7F     		.sleb128 -100
 7676 0667 06       		.byte	0x6
 7677 0668 1A       		.byte	0x1a
 7678 0669 21       		.byte	0x21
 7679 066a 91       		.byte	0x91
 7680 066b A87F     		.sleb128 -88
 7681 066d 06       		.byte	0x6
 7682 066e 22       		.byte	0x22
 7683 066f 91       		.byte	0x91
 7684 0670 A47F     		.sleb128 -92
 7685 0672 06       		.byte	0x6
 7686 0673 22       		.byte	0x22
 7687 0674 0C       		.byte	0xc
 7688 0675 885B9528 		.4byte	0x28955b88
 7689 0679 1C       		.byte	0x1c
 7690 067a 49       		.byte	0x49
 7691 067b 14       		.byte	0x14
 7692 067c 14       		.byte	0x14
 7693 067d 1F       		.byte	0x1f
 7694 067e 23       		.byte	0x23
 7695 067f 20       		.uleb128 0x20
 7696 0680 24       		.byte	0x24
 7697 0681 17       		.byte	0x17
 7698 0682 25       		.byte	0x25
 7699 0683 21       		.byte	0x21
 7700 0684 91       		.byte	0x91
 7701 0685 947F     		.sleb128 -108
 7702 0687 06       		.byte	0x6
 7703 0688 22       		.byte	0x22
 7704 0689 91       		.byte	0x91
 7705 068a 947F     		.sleb128 -108
 7706 068c 06       		.byte	0x6
 7707 068d 1A       		.byte	0x1a
 7708 068e 21       		.byte	0x21
 7709 068f 91       		.byte	0x91
 7710 0690 AC7F     		.sleb128 -84
 7711 0692 06       		.byte	0x6
 7712 0693 22       		.byte	0x22
 7713 0694 91       		.byte	0x91
 7714 0695 A07F     		.sleb128 -96
 7715 0697 06       		.byte	0x6
 7716 0698 22       		.byte	0x22
 7717 0699 0C       		.byte	0xc
 7718 069a AA483817 		.4byte	0x173848aa
 7719 069e 1C       		.byte	0x1c
 7720 069f 44       		.byte	0x44
 7721 06a0 14       		.byte	0x14
 7722 06a1 14       		.byte	0x14
 7723 06a2 1F       		.byte	0x1f
 7724 06a3 23       		.byte	0x23
 7725 06a4 20       		.uleb128 0x20
 7726 06a5 24       		.byte	0x24
 7727 06a6 17       		.byte	0x17
 7728 06a7 25       		.byte	0x25
 7729 06a8 21       		.byte	0x21
ARM GAS  C:\Users\atsu\AppData\Local\Temp\ccFWVBKl.s 			page 149


 7730 06a9 22       		.byte	0x22
 7731 06aa 9F       		.byte	0x9f
 7732 06ab 2E070000 		.4byte	.LVL284
 7733 06af 33070000 		.4byte	.LVL285-1
 7734 06b3 BE00     		.2byte	0xbe
 7735 06b5 91       		.byte	0x91
 7736 06b6 947F     		.sleb128 -108
 7737 06b8 06       		.byte	0x6
 7738 06b9 20       		.byte	0x20
 7739 06ba 91       		.byte	0x91
 7740 06bb A07F     		.sleb128 -96
 7741 06bd 06       		.byte	0x6
 7742 06be 1A       		.byte	0x1a
 7743 06bf 91       		.byte	0x91
 7744 06c0 947F     		.sleb128 -108
 7745 06c2 06       		.byte	0x6
 7746 06c3 91       		.byte	0x91
 7747 06c4 9C7F     		.sleb128 -100
 7748 06c6 06       		.byte	0x6
 7749 06c7 1A       		.byte	0x1a
 7750 06c8 21       		.byte	0x21
 7751 06c9 70       		.byte	0x70
 7752 06ca 00       		.sleb128 0
 7753 06cb 06       		.byte	0x6
 7754 06cc 22       		.byte	0x22
 7755 06cd 91       		.byte	0x91
 7756 06ce A47F     		.sleb128 -92
 7757 06d0 06       		.byte	0x6
 7758 06d1 22       		.byte	0x22
 7759 06d2 0C       		.byte	0xc
 7760 06d3 885B9528 		.4byte	0x28955b88
 7761 06d7 1C       		.byte	0x1c
 7762 06d8 49       		.byte	0x49
 7763 06d9 14       		.byte	0x14
 7764 06da 14       		.byte	0x14
 7765 06db 1F       		.byte	0x1f
 7766 06dc 23       		.byte	0x23
 7767 06dd 20       		.uleb128 0x20
 7768 06de 24       		.byte	0x24
 7769 06df 17       		.byte	0x17
 7770 06e0 25       		.byte	0x25
 7771 06e1 21       		.byte	0x21
 7772 06e2 91       		.byte	0x91
 7773 06e3 947F     		.sleb128 -108
 7774 06e5 06       		.byte	0x6
 7775 06e6 22       		.byte	0x22
 7776 06e7 91       		.byte	0x91
 7777 06e8 947F     		.sleb128 -108
 7778 06ea 06       		.byte	0x6
 7779 06eb 20       		.byte	0x20
 7780 06ec 91       		.byte	0x91
 7781 06ed A07F     		.sleb128 -96
 7782 06ef 06       		.byte	0x6
 7783 06f0 1A       		.byte	0x1a
 7784 06f1 91       		.byte	0x91
 7785 06f2 947F     		.sleb128 -108
 7786 06f4 06       		.byte	0x6
ARM GAS  C:\Users\atsu\AppData\Local\Temp\ccFWVBKl.s 			page 150


 7787 06f5 91       		.byte	0x91
 7788 06f6 9C7F     		.sleb128 -100
 7789 06f8 06       		.byte	0x6
 7790 06f9 1A       		.byte	0x1a
 7791 06fa 21       		.byte	0x21
 7792 06fb 70       		.byte	0x70
 7793 06fc 00       		.sleb128 0
 7794 06fd 06       		.byte	0x6
 7795 06fe 22       		.byte	0x22
 7796 06ff 91       		.byte	0x91
 7797 0700 A47F     		.sleb128 -92
 7798 0702 06       		.byte	0x6
 7799 0703 22       		.byte	0x22
 7800 0704 0C       		.byte	0xc
 7801 0705 885B9528 		.4byte	0x28955b88
 7802 0709 1C       		.byte	0x1c
 7803 070a 49       		.byte	0x49
 7804 070b 14       		.byte	0x14
 7805 070c 14       		.byte	0x14
 7806 070d 1F       		.byte	0x1f
 7807 070e 23       		.byte	0x23
 7808 070f 20       		.uleb128 0x20
 7809 0710 24       		.byte	0x24
 7810 0711 17       		.byte	0x17
 7811 0712 25       		.byte	0x25
 7812 0713 21       		.byte	0x21
 7813 0714 91       		.byte	0x91
 7814 0715 947F     		.sleb128 -108
 7815 0717 06       		.byte	0x6
 7816 0718 22       		.byte	0x22
 7817 0719 20       		.byte	0x20
 7818 071a 91       		.byte	0x91
 7819 071b 9C7F     		.sleb128 -100
 7820 071d 06       		.byte	0x6
 7821 071e 1A       		.byte	0x1a
 7822 071f 91       		.byte	0x91
 7823 0720 947F     		.sleb128 -108
 7824 0722 06       		.byte	0x6
 7825 0723 20       		.byte	0x20
 7826 0724 91       		.byte	0x91
 7827 0725 A07F     		.sleb128 -96
 7828 0727 06       		.byte	0x6
 7829 0728 1A       		.byte	0x1a
 7830 0729 91       		.byte	0x91
 7831 072a 947F     		.sleb128 -108
 7832 072c 06       		.byte	0x6
 7833 072d 91       		.byte	0x91
 7834 072e 9C7F     		.sleb128 -100
 7835 0730 06       		.byte	0x6
 7836 0731 1A       		.byte	0x1a
 7837 0732 21       		.byte	0x21
 7838 0733 70       		.byte	0x70
 7839 0734 00       		.sleb128 0
 7840 0735 06       		.byte	0x6
 7841 0736 22       		.byte	0x22
 7842 0737 91       		.byte	0x91
 7843 0738 A47F     		.sleb128 -92
ARM GAS  C:\Users\atsu\AppData\Local\Temp\ccFWVBKl.s 			page 151


 7844 073a 06       		.byte	0x6
 7845 073b 22       		.byte	0x22
 7846 073c 0C       		.byte	0xc
 7847 073d 885B9528 		.4byte	0x28955b88
 7848 0741 1C       		.byte	0x1c
 7849 0742 49       		.byte	0x49
 7850 0743 14       		.byte	0x14
 7851 0744 14       		.byte	0x14
 7852 0745 1F       		.byte	0x1f
 7853 0746 23       		.byte	0x23
 7854 0747 20       		.uleb128 0x20
 7855 0748 24       		.byte	0x24
 7856 0749 17       		.byte	0x17
 7857 074a 25       		.byte	0x25
 7858 074b 21       		.byte	0x21
 7859 074c 91       		.byte	0x91
 7860 074d 947F     		.sleb128 -108
 7861 074f 06       		.byte	0x6
 7862 0750 22       		.byte	0x22
 7863 0751 91       		.byte	0x91
 7864 0752 947F     		.sleb128 -108
 7865 0754 06       		.byte	0x6
 7866 0755 1A       		.byte	0x1a
 7867 0756 21       		.byte	0x21
 7868 0757 91       		.byte	0x91
 7869 0758 AC7F     		.sleb128 -84
 7870 075a 06       		.byte	0x6
 7871 075b 22       		.byte	0x22
 7872 075c 91       		.byte	0x91
 7873 075d A07F     		.sleb128 -96
 7874 075f 06       		.byte	0x6
 7875 0760 22       		.byte	0x22
 7876 0761 0C       		.byte	0xc
 7877 0762 AA483817 		.4byte	0x173848aa
 7878 0766 1C       		.byte	0x1c
 7879 0767 44       		.byte	0x44
 7880 0768 14       		.byte	0x14
 7881 0769 14       		.byte	0x14
 7882 076a 1F       		.byte	0x1f
 7883 076b 23       		.byte	0x23
 7884 076c 20       		.uleb128 0x20
 7885 076d 24       		.byte	0x24
 7886 076e 17       		.byte	0x17
 7887 076f 25       		.byte	0x25
 7888 0770 21       		.byte	0x21
 7889 0771 22       		.byte	0x22
 7890 0772 9F       		.byte	0x9f
 7891 0773 00000000 		.4byte	0
 7892 0777 00000000 		.4byte	0
 7893              	.LLST22:
 7894 077b 82000000 		.4byte	.LVL19
 7895 077f 94000000 		.4byte	.LVL21
 7896 0783 0300     		.2byte	0x3
 7897 0785 91       		.byte	0x91
 7898 0786 9C7F     		.sleb128 -100
 7899 0788 94000000 		.4byte	.LVL21
 7900 078c 98000000 		.4byte	.LVL22
ARM GAS  C:\Users\atsu\AppData\Local\Temp\ccFWVBKl.s 			page 152


 7901 0790 0D00     		.2byte	0xd
 7902 0792 70       		.byte	0x70
 7903 0793 00       		.sleb128 0
 7904 0794 3F       		.byte	0x3f
 7905 0795 14       		.byte	0x14
 7906 0796 14       		.byte	0x14
 7907 0797 1F       		.byte	0x1f
 7908 0798 23       		.byte	0x23
 7909 0799 20       		.uleb128 0x20
 7910 079a 24       		.byte	0x24
 7911 079b 17       		.byte	0x17
 7912 079c 25       		.byte	0x25
 7913 079d 21       		.byte	0x21
 7914 079e 9F       		.byte	0x9f
 7915 079f 98000000 		.4byte	.LVL22
 7916 07a3 9A000000 		.4byte	.LVL23
 7917 07a7 0100     		.2byte	0x1
 7918 07a9 50       		.byte	0x50
 7919 07aa 9A000000 		.4byte	.LVL23
 7920 07ae 02010000 		.4byte	.LVL38
 7921 07b2 0100     		.2byte	0x1
 7922 07b4 52       		.byte	0x52
 7923 07b5 00000000 		.4byte	0
 7924 07b9 00000000 		.4byte	0
 7925              	.LLST23:
 7926 07bd 9A000000 		.4byte	.LVL23
 7927 07c1 33070000 		.4byte	.LVL285-1
 7928 07c5 0300     		.2byte	0x3
 7929 07c7 91       		.byte	0x91
 7930 07c8 B47F     		.sleb128 -76
 7931 07ca 00000000 		.4byte	0
 7932 07ce 00000000 		.4byte	0
 7933              	.LLST24:
 7934 07d2 9A000000 		.4byte	.LVL23
 7935 07d6 CE000000 		.4byte	.LVL28
 7936 07da 0100     		.2byte	0x1
 7937 07dc 56       		.byte	0x56
 7938 07dd CE000000 		.4byte	.LVL28
 7939 07e1 2E070000 		.4byte	.LVL284
 7940 07e5 3400     		.2byte	0x34
 7941 07e7 91       		.byte	0x91
 7942 07e8 947F     		.sleb128 -108
 7943 07ea 06       		.byte	0x6
 7944 07eb 20       		.byte	0x20
 7945 07ec 91       		.byte	0x91
 7946 07ed A07F     		.sleb128 -96
 7947 07ef 06       		.byte	0x6
 7948 07f0 1A       		.byte	0x1a
 7949 07f1 91       		.byte	0x91
 7950 07f2 947F     		.sleb128 -108
 7951 07f4 06       		.byte	0x6
 7952 07f5 91       		.byte	0x91
 7953 07f6 9C7F     		.sleb128 -100
 7954 07f8 06       		.byte	0x6
 7955 07f9 1A       		.byte	0x1a
 7956 07fa 21       		.byte	0x21
 7957 07fb 91       		.byte	0x91
ARM GAS  C:\Users\atsu\AppData\Local\Temp\ccFWVBKl.s 			page 153


 7958 07fc A87F     		.sleb128 -88
 7959 07fe 06       		.byte	0x6
 7960 07ff 22       		.byte	0x22
 7961 0800 91       		.byte	0x91
 7962 0801 A47F     		.sleb128 -92
 7963 0803 06       		.byte	0x6
 7964 0804 22       		.byte	0x22
 7965 0805 0C       		.byte	0xc
 7966 0806 885B9528 		.4byte	0x28955b88
 7967 080a 1C       		.byte	0x1c
 7968 080b 49       		.byte	0x49
 7969 080c 14       		.byte	0x14
 7970 080d 14       		.byte	0x14
 7971 080e 1F       		.byte	0x1f
 7972 080f 23       		.byte	0x23
 7973 0810 20       		.uleb128 0x20
 7974 0811 24       		.byte	0x24
 7975 0812 17       		.byte	0x17
 7976 0813 25       		.byte	0x25
 7977 0814 21       		.byte	0x21
 7978 0815 91       		.byte	0x91
 7979 0816 947F     		.sleb128 -108
 7980 0818 06       		.byte	0x6
 7981 0819 22       		.byte	0x22
 7982 081a 9F       		.byte	0x9f
 7983 081b 2E070000 		.4byte	.LVL284
 7984 081f 33070000 		.4byte	.LVL285-1
 7985 0823 3300     		.2byte	0x33
 7986 0825 91       		.byte	0x91
 7987 0826 947F     		.sleb128 -108
 7988 0828 06       		.byte	0x6
 7989 0829 20       		.byte	0x20
 7990 082a 91       		.byte	0x91
 7991 082b A07F     		.sleb128 -96
 7992 082d 06       		.byte	0x6
 7993 082e 1A       		.byte	0x1a
 7994 082f 91       		.byte	0x91
 7995 0830 947F     		.sleb128 -108
 7996 0832 06       		.byte	0x6
 7997 0833 91       		.byte	0x91
 7998 0834 9C7F     		.sleb128 -100
 7999 0836 06       		.byte	0x6
 8000 0837 1A       		.byte	0x1a
 8001 0838 21       		.byte	0x21
 8002 0839 70       		.byte	0x70
 8003 083a 00       		.sleb128 0
 8004 083b 06       		.byte	0x6
 8005 083c 22       		.byte	0x22
 8006 083d 91       		.byte	0x91
 8007 083e A47F     		.sleb128 -92
 8008 0840 06       		.byte	0x6
 8009 0841 22       		.byte	0x22
 8010 0842 0C       		.byte	0xc
 8011 0843 885B9528 		.4byte	0x28955b88
 8012 0847 1C       		.byte	0x1c
 8013 0848 49       		.byte	0x49
 8014 0849 14       		.byte	0x14
ARM GAS  C:\Users\atsu\AppData\Local\Temp\ccFWVBKl.s 			page 154


 8015 084a 14       		.byte	0x14
 8016 084b 1F       		.byte	0x1f
 8017 084c 23       		.byte	0x23
 8018 084d 20       		.uleb128 0x20
 8019 084e 24       		.byte	0x24
 8020 084f 17       		.byte	0x17
 8021 0850 25       		.byte	0x25
 8022 0851 21       		.byte	0x21
 8023 0852 91       		.byte	0x91
 8024 0853 947F     		.sleb128 -108
 8025 0855 06       		.byte	0x6
 8026 0856 22       		.byte	0x22
 8027 0857 9F       		.byte	0x9f
 8028 0858 00000000 		.4byte	0
 8029 085c 00000000 		.4byte	0
 8030              	.LLST25:
 8031 0860 9A000000 		.4byte	.LVL23
 8032 0864 E8000000 		.4byte	.LVL33
 8033 0868 0100     		.2byte	0x1
 8034 086a 51       		.byte	0x51
 8035 086b E8000000 		.4byte	.LVL33
 8036 086f 2E070000 		.4byte	.LVL284
 8037 0873 C100     		.2byte	0xc1
 8038 0875 91       		.byte	0x91
 8039 0876 947F     		.sleb128 -108
 8040 0878 06       		.byte	0x6
 8041 0879 20       		.byte	0x20
 8042 087a 91       		.byte	0x91
 8043 087b A07F     		.sleb128 -96
 8044 087d 06       		.byte	0x6
 8045 087e 1A       		.byte	0x1a
 8046 087f 91       		.byte	0x91
 8047 0880 947F     		.sleb128 -108
 8048 0882 06       		.byte	0x6
 8049 0883 91       		.byte	0x91
 8050 0884 9C7F     		.sleb128 -100
 8051 0886 06       		.byte	0x6
 8052 0887 1A       		.byte	0x1a
 8053 0888 21       		.byte	0x21
 8054 0889 91       		.byte	0x91
 8055 088a A87F     		.sleb128 -88
 8056 088c 06       		.byte	0x6
 8057 088d 22       		.byte	0x22
 8058 088e 91       		.byte	0x91
 8059 088f A47F     		.sleb128 -92
 8060 0891 06       		.byte	0x6
 8061 0892 22       		.byte	0x22
 8062 0893 0C       		.byte	0xc
 8063 0894 885B9528 		.4byte	0x28955b88
 8064 0898 1C       		.byte	0x1c
 8065 0899 49       		.byte	0x49
 8066 089a 14       		.byte	0x14
 8067 089b 14       		.byte	0x14
 8068 089c 1F       		.byte	0x1f
 8069 089d 23       		.byte	0x23
 8070 089e 20       		.uleb128 0x20
 8071 089f 24       		.byte	0x24
ARM GAS  C:\Users\atsu\AppData\Local\Temp\ccFWVBKl.s 			page 155


 8072 08a0 17       		.byte	0x17
 8073 08a1 25       		.byte	0x25
 8074 08a2 21       		.byte	0x21
 8075 08a3 91       		.byte	0x91
 8076 08a4 947F     		.sleb128 -108
 8077 08a6 06       		.byte	0x6
 8078 08a7 22       		.byte	0x22
 8079 08a8 91       		.byte	0x91
 8080 08a9 947F     		.sleb128 -108
 8081 08ab 06       		.byte	0x6
 8082 08ac 20       		.byte	0x20
 8083 08ad 91       		.byte	0x91
 8084 08ae A07F     		.sleb128 -96
 8085 08b0 06       		.byte	0x6
 8086 08b1 1A       		.byte	0x1a
 8087 08b2 91       		.byte	0x91
 8088 08b3 947F     		.sleb128 -108
 8089 08b5 06       		.byte	0x6
 8090 08b6 91       		.byte	0x91
 8091 08b7 9C7F     		.sleb128 -100
 8092 08b9 06       		.byte	0x6
 8093 08ba 1A       		.byte	0x1a
 8094 08bb 21       		.byte	0x21
 8095 08bc 91       		.byte	0x91
 8096 08bd A87F     		.sleb128 -88
 8097 08bf 06       		.byte	0x6
 8098 08c0 22       		.byte	0x22
 8099 08c1 91       		.byte	0x91
 8100 08c2 A47F     		.sleb128 -92
 8101 08c4 06       		.byte	0x6
 8102 08c5 22       		.byte	0x22
 8103 08c6 0C       		.byte	0xc
 8104 08c7 885B9528 		.4byte	0x28955b88
 8105 08cb 1C       		.byte	0x1c
 8106 08cc 49       		.byte	0x49
 8107 08cd 14       		.byte	0x14
 8108 08ce 14       		.byte	0x14
 8109 08cf 1F       		.byte	0x1f
 8110 08d0 23       		.byte	0x23
 8111 08d1 20       		.uleb128 0x20
 8112 08d2 24       		.byte	0x24
 8113 08d3 17       		.byte	0x17
 8114 08d4 25       		.byte	0x25
 8115 08d5 21       		.byte	0x21
 8116 08d6 91       		.byte	0x91
 8117 08d7 947F     		.sleb128 -108
 8118 08d9 06       		.byte	0x6
 8119 08da 22       		.byte	0x22
 8120 08db 20       		.byte	0x20
 8121 08dc 91       		.byte	0x91
 8122 08dd 9C7F     		.sleb128 -100
 8123 08df 06       		.byte	0x6
 8124 08e0 1A       		.byte	0x1a
 8125 08e1 91       		.byte	0x91
 8126 08e2 947F     		.sleb128 -108
 8127 08e4 06       		.byte	0x6
 8128 08e5 20       		.byte	0x20
ARM GAS  C:\Users\atsu\AppData\Local\Temp\ccFWVBKl.s 			page 156


 8129 08e6 91       		.byte	0x91
 8130 08e7 A07F     		.sleb128 -96
 8131 08e9 06       		.byte	0x6
 8132 08ea 1A       		.byte	0x1a
 8133 08eb 91       		.byte	0x91
 8134 08ec 947F     		.sleb128 -108
 8135 08ee 06       		.byte	0x6
 8136 08ef 91       		.byte	0x91
 8137 08f0 9C7F     		.sleb128 -100
 8138 08f2 06       		.byte	0x6
 8139 08f3 1A       		.byte	0x1a
 8140 08f4 21       		.byte	0x21
 8141 08f5 91       		.byte	0x91
 8142 08f6 A87F     		.sleb128 -88
 8143 08f8 06       		.byte	0x6
 8144 08f9 22       		.byte	0x22
 8145 08fa 91       		.byte	0x91
 8146 08fb A47F     		.sleb128 -92
 8147 08fd 06       		.byte	0x6
 8148 08fe 22       		.byte	0x22
 8149 08ff 0C       		.byte	0xc
 8150 0900 885B9528 		.4byte	0x28955b88
 8151 0904 1C       		.byte	0x1c
 8152 0905 49       		.byte	0x49
 8153 0906 14       		.byte	0x14
 8154 0907 14       		.byte	0x14
 8155 0908 1F       		.byte	0x1f
 8156 0909 23       		.byte	0x23
 8157 090a 20       		.uleb128 0x20
 8158 090b 24       		.byte	0x24
 8159 090c 17       		.byte	0x17
 8160 090d 25       		.byte	0x25
 8161 090e 21       		.byte	0x21
 8162 090f 91       		.byte	0x91
 8163 0910 947F     		.sleb128 -108
 8164 0912 06       		.byte	0x6
 8165 0913 22       		.byte	0x22
 8166 0914 91       		.byte	0x91
 8167 0915 947F     		.sleb128 -108
 8168 0917 06       		.byte	0x6
 8169 0918 1A       		.byte	0x1a
 8170 0919 21       		.byte	0x21
 8171 091a 91       		.byte	0x91
 8172 091b AC7F     		.sleb128 -84
 8173 091d 06       		.byte	0x6
 8174 091e 22       		.byte	0x22
 8175 091f 91       		.byte	0x91
 8176 0920 A07F     		.sleb128 -96
 8177 0922 06       		.byte	0x6
 8178 0923 22       		.byte	0x22
 8179 0924 0C       		.byte	0xc
 8180 0925 AA483817 		.4byte	0x173848aa
 8181 0929 1C       		.byte	0x1c
 8182 092a 44       		.byte	0x44
 8183 092b 14       		.byte	0x14
 8184 092c 14       		.byte	0x14
 8185 092d 1F       		.byte	0x1f
ARM GAS  C:\Users\atsu\AppData\Local\Temp\ccFWVBKl.s 			page 157


 8186 092e 23       		.byte	0x23
 8187 092f 20       		.uleb128 0x20
 8188 0930 24       		.byte	0x24
 8189 0931 17       		.byte	0x17
 8190 0932 25       		.byte	0x25
 8191 0933 21       		.byte	0x21
 8192 0934 22       		.byte	0x22
 8193 0935 9F       		.byte	0x9f
 8194 0936 2E070000 		.4byte	.LVL284
 8195 093a 33070000 		.4byte	.LVL285-1
 8196 093e BE00     		.2byte	0xbe
 8197 0940 91       		.byte	0x91
 8198 0941 947F     		.sleb128 -108
 8199 0943 06       		.byte	0x6
 8200 0944 20       		.byte	0x20
 8201 0945 91       		.byte	0x91
 8202 0946 A07F     		.sleb128 -96
 8203 0948 06       		.byte	0x6
 8204 0949 1A       		.byte	0x1a
 8205 094a 91       		.byte	0x91
 8206 094b 947F     		.sleb128 -108
 8207 094d 06       		.byte	0x6
 8208 094e 91       		.byte	0x91
 8209 094f 9C7F     		.sleb128 -100
 8210 0951 06       		.byte	0x6
 8211 0952 1A       		.byte	0x1a
 8212 0953 21       		.byte	0x21
 8213 0954 70       		.byte	0x70
 8214 0955 00       		.sleb128 0
 8215 0956 06       		.byte	0x6
 8216 0957 22       		.byte	0x22
 8217 0958 91       		.byte	0x91
 8218 0959 A47F     		.sleb128 -92
 8219 095b 06       		.byte	0x6
 8220 095c 22       		.byte	0x22
 8221 095d 0C       		.byte	0xc
 8222 095e 885B9528 		.4byte	0x28955b88
 8223 0962 1C       		.byte	0x1c
 8224 0963 49       		.byte	0x49
 8225 0964 14       		.byte	0x14
 8226 0965 14       		.byte	0x14
 8227 0966 1F       		.byte	0x1f
 8228 0967 23       		.byte	0x23
 8229 0968 20       		.uleb128 0x20
 8230 0969 24       		.byte	0x24
 8231 096a 17       		.byte	0x17
 8232 096b 25       		.byte	0x25
 8233 096c 21       		.byte	0x21
 8234 096d 91       		.byte	0x91
 8235 096e 947F     		.sleb128 -108
 8236 0970 06       		.byte	0x6
 8237 0971 22       		.byte	0x22
 8238 0972 91       		.byte	0x91
 8239 0973 947F     		.sleb128 -108
 8240 0975 06       		.byte	0x6
 8241 0976 20       		.byte	0x20
 8242 0977 91       		.byte	0x91
ARM GAS  C:\Users\atsu\AppData\Local\Temp\ccFWVBKl.s 			page 158


 8243 0978 A07F     		.sleb128 -96
 8244 097a 06       		.byte	0x6
 8245 097b 1A       		.byte	0x1a
 8246 097c 91       		.byte	0x91
 8247 097d 947F     		.sleb128 -108
 8248 097f 06       		.byte	0x6
 8249 0980 91       		.byte	0x91
 8250 0981 9C7F     		.sleb128 -100
 8251 0983 06       		.byte	0x6
 8252 0984 1A       		.byte	0x1a
 8253 0985 21       		.byte	0x21
 8254 0986 70       		.byte	0x70
 8255 0987 00       		.sleb128 0
 8256 0988 06       		.byte	0x6
 8257 0989 22       		.byte	0x22
 8258 098a 91       		.byte	0x91
 8259 098b A47F     		.sleb128 -92
 8260 098d 06       		.byte	0x6
 8261 098e 22       		.byte	0x22
 8262 098f 0C       		.byte	0xc
 8263 0990 885B9528 		.4byte	0x28955b88
 8264 0994 1C       		.byte	0x1c
 8265 0995 49       		.byte	0x49
 8266 0996 14       		.byte	0x14
 8267 0997 14       		.byte	0x14
 8268 0998 1F       		.byte	0x1f
 8269 0999 23       		.byte	0x23
 8270 099a 20       		.uleb128 0x20
 8271 099b 24       		.byte	0x24
 8272 099c 17       		.byte	0x17
 8273 099d 25       		.byte	0x25
 8274 099e 21       		.byte	0x21
 8275 099f 91       		.byte	0x91
 8276 09a0 947F     		.sleb128 -108
 8277 09a2 06       		.byte	0x6
 8278 09a3 22       		.byte	0x22
 8279 09a4 20       		.byte	0x20
 8280 09a5 91       		.byte	0x91
 8281 09a6 9C7F     		.sleb128 -100
 8282 09a8 06       		.byte	0x6
 8283 09a9 1A       		.byte	0x1a
 8284 09aa 91       		.byte	0x91
 8285 09ab 947F     		.sleb128 -108
 8286 09ad 06       		.byte	0x6
 8287 09ae 20       		.byte	0x20
 8288 09af 91       		.byte	0x91
 8289 09b0 A07F     		.sleb128 -96
 8290 09b2 06       		.byte	0x6
 8291 09b3 1A       		.byte	0x1a
 8292 09b4 91       		.byte	0x91
 8293 09b5 947F     		.sleb128 -108
 8294 09b7 06       		.byte	0x6
 8295 09b8 91       		.byte	0x91
 8296 09b9 9C7F     		.sleb128 -100
 8297 09bb 06       		.byte	0x6
 8298 09bc 1A       		.byte	0x1a
 8299 09bd 21       		.byte	0x21
ARM GAS  C:\Users\atsu\AppData\Local\Temp\ccFWVBKl.s 			page 159


 8300 09be 70       		.byte	0x70
 8301 09bf 00       		.sleb128 0
 8302 09c0 06       		.byte	0x6
 8303 09c1 22       		.byte	0x22
 8304 09c2 91       		.byte	0x91
 8305 09c3 A47F     		.sleb128 -92
 8306 09c5 06       		.byte	0x6
 8307 09c6 22       		.byte	0x22
 8308 09c7 0C       		.byte	0xc
 8309 09c8 885B9528 		.4byte	0x28955b88
 8310 09cc 1C       		.byte	0x1c
 8311 09cd 49       		.byte	0x49
 8312 09ce 14       		.byte	0x14
 8313 09cf 14       		.byte	0x14
 8314 09d0 1F       		.byte	0x1f
 8315 09d1 23       		.byte	0x23
 8316 09d2 20       		.uleb128 0x20
 8317 09d3 24       		.byte	0x24
 8318 09d4 17       		.byte	0x17
 8319 09d5 25       		.byte	0x25
 8320 09d6 21       		.byte	0x21
 8321 09d7 91       		.byte	0x91
 8322 09d8 947F     		.sleb128 -108
 8323 09da 06       		.byte	0x6
 8324 09db 22       		.byte	0x22
 8325 09dc 91       		.byte	0x91
 8326 09dd 947F     		.sleb128 -108
 8327 09df 06       		.byte	0x6
 8328 09e0 1A       		.byte	0x1a
 8329 09e1 21       		.byte	0x21
 8330 09e2 91       		.byte	0x91
 8331 09e3 AC7F     		.sleb128 -84
 8332 09e5 06       		.byte	0x6
 8333 09e6 22       		.byte	0x22
 8334 09e7 91       		.byte	0x91
 8335 09e8 A07F     		.sleb128 -96
 8336 09ea 06       		.byte	0x6
 8337 09eb 22       		.byte	0x22
 8338 09ec 0C       		.byte	0xc
 8339 09ed AA483817 		.4byte	0x173848aa
 8340 09f1 1C       		.byte	0x1c
 8341 09f2 44       		.byte	0x44
 8342 09f3 14       		.byte	0x14
 8343 09f4 14       		.byte	0x14
 8344 09f5 1F       		.byte	0x1f
 8345 09f6 23       		.byte	0x23
 8346 09f7 20       		.uleb128 0x20
 8347 09f8 24       		.byte	0x24
 8348 09f9 17       		.byte	0x17
 8349 09fa 25       		.byte	0x25
 8350 09fb 21       		.byte	0x21
 8351 09fc 22       		.byte	0x22
 8352 09fd 9F       		.byte	0x9f
 8353 09fe 00000000 		.4byte	0
 8354 0a02 00000000 		.4byte	0
 8355              	.LLST26:
 8356 0a06 9A000000 		.4byte	.LVL23
ARM GAS  C:\Users\atsu\AppData\Local\Temp\ccFWVBKl.s 			page 160


 8357 0a0a 02010000 		.4byte	.LVL38
 8358 0a0e 0100     		.2byte	0x1
 8359 0a10 52       		.byte	0x52
 8360 0a11 00000000 		.4byte	0
 8361 0a15 00000000 		.4byte	0
 8362              	.LLST27:
 8363 0a19 9A000000 		.4byte	.LVL23
 8364 0a1d B4000000 		.4byte	.LVL24
 8365 0a21 0300     		.2byte	0x3
 8366 0a23 91       		.byte	0x91
 8367 0a24 947F     		.sleb128 -108
 8368 0a26 B4000000 		.4byte	.LVL24
 8369 0a2a BA000000 		.4byte	.LVL25
 8370 0a2e 0D00     		.2byte	0xd
 8371 0a30 73       		.byte	0x73
 8372 0a31 00       		.sleb128 0
 8373 0a32 3A       		.byte	0x3a
 8374 0a33 14       		.byte	0x14
 8375 0a34 14       		.byte	0x14
 8376 0a35 1F       		.byte	0x1f
 8377 0a36 23       		.byte	0x23
 8378 0a37 20       		.uleb128 0x20
 8379 0a38 24       		.byte	0x24
 8380 0a39 17       		.byte	0x17
 8381 0a3a 25       		.byte	0x25
 8382 0a3b 21       		.byte	0x21
 8383 0a3c 9F       		.byte	0x9f
 8384 0a3d BA000000 		.4byte	.LVL25
 8385 0a41 18010000 		.4byte	.LVL44
 8386 0a45 0100     		.2byte	0x1
 8387 0a47 53       		.byte	0x53
 8388 0a48 00000000 		.4byte	0
 8389 0a4c 00000000 		.4byte	0
 8390              	.LLST28:
 8391 0a50 C0000000 		.4byte	.LVL26
 8392 0a54 C4000000 		.4byte	.LVL27
 8393 0a58 0100     		.2byte	0x1
 8394 0a5a 54       		.byte	0x54
 8395 0a5b C4000000 		.4byte	.LVL27
 8396 0a5f 33070000 		.4byte	.LVL285-1
 8397 0a63 0300     		.2byte	0x3
 8398 0a65 91       		.byte	0x91
 8399 0a66 B87F     		.sleb128 -72
 8400 0a68 00000000 		.4byte	0
 8401 0a6c 00000000 		.4byte	0
 8402              	.LLST29:
 8403 0a70 C0000000 		.4byte	.LVL26
 8404 0a74 E8000000 		.4byte	.LVL33
 8405 0a78 0100     		.2byte	0x1
 8406 0a7a 51       		.byte	0x51
 8407 0a7b E8000000 		.4byte	.LVL33
 8408 0a7f 2E070000 		.4byte	.LVL284
 8409 0a83 C100     		.2byte	0xc1
 8410 0a85 91       		.byte	0x91
 8411 0a86 947F     		.sleb128 -108
 8412 0a88 06       		.byte	0x6
 8413 0a89 20       		.byte	0x20
ARM GAS  C:\Users\atsu\AppData\Local\Temp\ccFWVBKl.s 			page 161


 8414 0a8a 91       		.byte	0x91
 8415 0a8b A07F     		.sleb128 -96
 8416 0a8d 06       		.byte	0x6
 8417 0a8e 1A       		.byte	0x1a
 8418 0a8f 91       		.byte	0x91
 8419 0a90 947F     		.sleb128 -108
 8420 0a92 06       		.byte	0x6
 8421 0a93 91       		.byte	0x91
 8422 0a94 9C7F     		.sleb128 -100
 8423 0a96 06       		.byte	0x6
 8424 0a97 1A       		.byte	0x1a
 8425 0a98 21       		.byte	0x21
 8426 0a99 91       		.byte	0x91
 8427 0a9a A87F     		.sleb128 -88
 8428 0a9c 06       		.byte	0x6
 8429 0a9d 22       		.byte	0x22
 8430 0a9e 91       		.byte	0x91
 8431 0a9f A47F     		.sleb128 -92
 8432 0aa1 06       		.byte	0x6
 8433 0aa2 22       		.byte	0x22
 8434 0aa3 0C       		.byte	0xc
 8435 0aa4 885B9528 		.4byte	0x28955b88
 8436 0aa8 1C       		.byte	0x1c
 8437 0aa9 49       		.byte	0x49
 8438 0aaa 14       		.byte	0x14
 8439 0aab 14       		.byte	0x14
 8440 0aac 1F       		.byte	0x1f
 8441 0aad 23       		.byte	0x23
 8442 0aae 20       		.uleb128 0x20
 8443 0aaf 24       		.byte	0x24
 8444 0ab0 17       		.byte	0x17
 8445 0ab1 25       		.byte	0x25
 8446 0ab2 21       		.byte	0x21
 8447 0ab3 91       		.byte	0x91
 8448 0ab4 947F     		.sleb128 -108
 8449 0ab6 06       		.byte	0x6
 8450 0ab7 22       		.byte	0x22
 8451 0ab8 91       		.byte	0x91
 8452 0ab9 947F     		.sleb128 -108
 8453 0abb 06       		.byte	0x6
 8454 0abc 20       		.byte	0x20
 8455 0abd 91       		.byte	0x91
 8456 0abe A07F     		.sleb128 -96
 8457 0ac0 06       		.byte	0x6
 8458 0ac1 1A       		.byte	0x1a
 8459 0ac2 91       		.byte	0x91
 8460 0ac3 947F     		.sleb128 -108
 8461 0ac5 06       		.byte	0x6
 8462 0ac6 91       		.byte	0x91
 8463 0ac7 9C7F     		.sleb128 -100
 8464 0ac9 06       		.byte	0x6
 8465 0aca 1A       		.byte	0x1a
 8466 0acb 21       		.byte	0x21
 8467 0acc 91       		.byte	0x91
 8468 0acd A87F     		.sleb128 -88
 8469 0acf 06       		.byte	0x6
 8470 0ad0 22       		.byte	0x22
ARM GAS  C:\Users\atsu\AppData\Local\Temp\ccFWVBKl.s 			page 162


 8471 0ad1 91       		.byte	0x91
 8472 0ad2 A47F     		.sleb128 -92
 8473 0ad4 06       		.byte	0x6
 8474 0ad5 22       		.byte	0x22
 8475 0ad6 0C       		.byte	0xc
 8476 0ad7 885B9528 		.4byte	0x28955b88
 8477 0adb 1C       		.byte	0x1c
 8478 0adc 49       		.byte	0x49
 8479 0add 14       		.byte	0x14
 8480 0ade 14       		.byte	0x14
 8481 0adf 1F       		.byte	0x1f
 8482 0ae0 23       		.byte	0x23
 8483 0ae1 20       		.uleb128 0x20
 8484 0ae2 24       		.byte	0x24
 8485 0ae3 17       		.byte	0x17
 8486 0ae4 25       		.byte	0x25
 8487 0ae5 21       		.byte	0x21
 8488 0ae6 91       		.byte	0x91
 8489 0ae7 947F     		.sleb128 -108
 8490 0ae9 06       		.byte	0x6
 8491 0aea 22       		.byte	0x22
 8492 0aeb 20       		.byte	0x20
 8493 0aec 91       		.byte	0x91
 8494 0aed 9C7F     		.sleb128 -100
 8495 0aef 06       		.byte	0x6
 8496 0af0 1A       		.byte	0x1a
 8497 0af1 91       		.byte	0x91
 8498 0af2 947F     		.sleb128 -108
 8499 0af4 06       		.byte	0x6
 8500 0af5 20       		.byte	0x20
 8501 0af6 91       		.byte	0x91
 8502 0af7 A07F     		.sleb128 -96
 8503 0af9 06       		.byte	0x6
 8504 0afa 1A       		.byte	0x1a
 8505 0afb 91       		.byte	0x91
 8506 0afc 947F     		.sleb128 -108
 8507 0afe 06       		.byte	0x6
 8508 0aff 91       		.byte	0x91
 8509 0b00 9C7F     		.sleb128 -100
 8510 0b02 06       		.byte	0x6
 8511 0b03 1A       		.byte	0x1a
 8512 0b04 21       		.byte	0x21
 8513 0b05 91       		.byte	0x91
 8514 0b06 A87F     		.sleb128 -88
 8515 0b08 06       		.byte	0x6
 8516 0b09 22       		.byte	0x22
 8517 0b0a 91       		.byte	0x91
 8518 0b0b A47F     		.sleb128 -92
 8519 0b0d 06       		.byte	0x6
 8520 0b0e 22       		.byte	0x22
 8521 0b0f 0C       		.byte	0xc
 8522 0b10 885B9528 		.4byte	0x28955b88
 8523 0b14 1C       		.byte	0x1c
 8524 0b15 49       		.byte	0x49
 8525 0b16 14       		.byte	0x14
 8526 0b17 14       		.byte	0x14
 8527 0b18 1F       		.byte	0x1f
ARM GAS  C:\Users\atsu\AppData\Local\Temp\ccFWVBKl.s 			page 163


 8528 0b19 23       		.byte	0x23
 8529 0b1a 20       		.uleb128 0x20
 8530 0b1b 24       		.byte	0x24
 8531 0b1c 17       		.byte	0x17
 8532 0b1d 25       		.byte	0x25
 8533 0b1e 21       		.byte	0x21
 8534 0b1f 91       		.byte	0x91
 8535 0b20 947F     		.sleb128 -108
 8536 0b22 06       		.byte	0x6
 8537 0b23 22       		.byte	0x22
 8538 0b24 91       		.byte	0x91
 8539 0b25 947F     		.sleb128 -108
 8540 0b27 06       		.byte	0x6
 8541 0b28 1A       		.byte	0x1a
 8542 0b29 21       		.byte	0x21
 8543 0b2a 91       		.byte	0x91
 8544 0b2b AC7F     		.sleb128 -84
 8545 0b2d 06       		.byte	0x6
 8546 0b2e 22       		.byte	0x22
 8547 0b2f 91       		.byte	0x91
 8548 0b30 A07F     		.sleb128 -96
 8549 0b32 06       		.byte	0x6
 8550 0b33 22       		.byte	0x22
 8551 0b34 0C       		.byte	0xc
 8552 0b35 AA483817 		.4byte	0x173848aa
 8553 0b39 1C       		.byte	0x1c
 8554 0b3a 44       		.byte	0x44
 8555 0b3b 14       		.byte	0x14
 8556 0b3c 14       		.byte	0x14
 8557 0b3d 1F       		.byte	0x1f
 8558 0b3e 23       		.byte	0x23
 8559 0b3f 20       		.uleb128 0x20
 8560 0b40 24       		.byte	0x24
 8561 0b41 17       		.byte	0x17
 8562 0b42 25       		.byte	0x25
 8563 0b43 21       		.byte	0x21
 8564 0b44 22       		.byte	0x22
 8565 0b45 9F       		.byte	0x9f
 8566 0b46 2E070000 		.4byte	.LVL284
 8567 0b4a 33070000 		.4byte	.LVL285-1
 8568 0b4e BE00     		.2byte	0xbe
 8569 0b50 91       		.byte	0x91
 8570 0b51 947F     		.sleb128 -108
 8571 0b53 06       		.byte	0x6
 8572 0b54 20       		.byte	0x20
 8573 0b55 91       		.byte	0x91
 8574 0b56 A07F     		.sleb128 -96
 8575 0b58 06       		.byte	0x6
 8576 0b59 1A       		.byte	0x1a
 8577 0b5a 91       		.byte	0x91
 8578 0b5b 947F     		.sleb128 -108
 8579 0b5d 06       		.byte	0x6
 8580 0b5e 91       		.byte	0x91
 8581 0b5f 9C7F     		.sleb128 -100
 8582 0b61 06       		.byte	0x6
 8583 0b62 1A       		.byte	0x1a
 8584 0b63 21       		.byte	0x21
ARM GAS  C:\Users\atsu\AppData\Local\Temp\ccFWVBKl.s 			page 164


 8585 0b64 70       		.byte	0x70
 8586 0b65 00       		.sleb128 0
 8587 0b66 06       		.byte	0x6
 8588 0b67 22       		.byte	0x22
 8589 0b68 91       		.byte	0x91
 8590 0b69 A47F     		.sleb128 -92
 8591 0b6b 06       		.byte	0x6
 8592 0b6c 22       		.byte	0x22
 8593 0b6d 0C       		.byte	0xc
 8594 0b6e 885B9528 		.4byte	0x28955b88
 8595 0b72 1C       		.byte	0x1c
 8596 0b73 49       		.byte	0x49
 8597 0b74 14       		.byte	0x14
 8598 0b75 14       		.byte	0x14
 8599 0b76 1F       		.byte	0x1f
 8600 0b77 23       		.byte	0x23
 8601 0b78 20       		.uleb128 0x20
 8602 0b79 24       		.byte	0x24
 8603 0b7a 17       		.byte	0x17
 8604 0b7b 25       		.byte	0x25
 8605 0b7c 21       		.byte	0x21
 8606 0b7d 91       		.byte	0x91
 8607 0b7e 947F     		.sleb128 -108
 8608 0b80 06       		.byte	0x6
 8609 0b81 22       		.byte	0x22
 8610 0b82 91       		.byte	0x91
 8611 0b83 947F     		.sleb128 -108
 8612 0b85 06       		.byte	0x6
 8613 0b86 20       		.byte	0x20
 8614 0b87 91       		.byte	0x91
 8615 0b88 A07F     		.sleb128 -96
 8616 0b8a 06       		.byte	0x6
 8617 0b8b 1A       		.byte	0x1a
 8618 0b8c 91       		.byte	0x91
 8619 0b8d 947F     		.sleb128 -108
 8620 0b8f 06       		.byte	0x6
 8621 0b90 91       		.byte	0x91
 8622 0b91 9C7F     		.sleb128 -100
 8623 0b93 06       		.byte	0x6
 8624 0b94 1A       		.byte	0x1a
 8625 0b95 21       		.byte	0x21
 8626 0b96 70       		.byte	0x70
 8627 0b97 00       		.sleb128 0
 8628 0b98 06       		.byte	0x6
 8629 0b99 22       		.byte	0x22
 8630 0b9a 91       		.byte	0x91
 8631 0b9b A47F     		.sleb128 -92
 8632 0b9d 06       		.byte	0x6
 8633 0b9e 22       		.byte	0x22
 8634 0b9f 0C       		.byte	0xc
 8635 0ba0 885B9528 		.4byte	0x28955b88
 8636 0ba4 1C       		.byte	0x1c
 8637 0ba5 49       		.byte	0x49
 8638 0ba6 14       		.byte	0x14
 8639 0ba7 14       		.byte	0x14
 8640 0ba8 1F       		.byte	0x1f
 8641 0ba9 23       		.byte	0x23
ARM GAS  C:\Users\atsu\AppData\Local\Temp\ccFWVBKl.s 			page 165


 8642 0baa 20       		.uleb128 0x20
 8643 0bab 24       		.byte	0x24
 8644 0bac 17       		.byte	0x17
 8645 0bad 25       		.byte	0x25
 8646 0bae 21       		.byte	0x21
 8647 0baf 91       		.byte	0x91
 8648 0bb0 947F     		.sleb128 -108
 8649 0bb2 06       		.byte	0x6
 8650 0bb3 22       		.byte	0x22
 8651 0bb4 20       		.byte	0x20
 8652 0bb5 91       		.byte	0x91
 8653 0bb6 9C7F     		.sleb128 -100
 8654 0bb8 06       		.byte	0x6
 8655 0bb9 1A       		.byte	0x1a
 8656 0bba 91       		.byte	0x91
 8657 0bbb 947F     		.sleb128 -108
 8658 0bbd 06       		.byte	0x6
 8659 0bbe 20       		.byte	0x20
 8660 0bbf 91       		.byte	0x91
 8661 0bc0 A07F     		.sleb128 -96
 8662 0bc2 06       		.byte	0x6
 8663 0bc3 1A       		.byte	0x1a
 8664 0bc4 91       		.byte	0x91
 8665 0bc5 947F     		.sleb128 -108
 8666 0bc7 06       		.byte	0x6
 8667 0bc8 91       		.byte	0x91
 8668 0bc9 9C7F     		.sleb128 -100
 8669 0bcb 06       		.byte	0x6
 8670 0bcc 1A       		.byte	0x1a
 8671 0bcd 21       		.byte	0x21
 8672 0bce 70       		.byte	0x70
 8673 0bcf 00       		.sleb128 0
 8674 0bd0 06       		.byte	0x6
 8675 0bd1 22       		.byte	0x22
 8676 0bd2 91       		.byte	0x91
 8677 0bd3 A47F     		.sleb128 -92
 8678 0bd5 06       		.byte	0x6
 8679 0bd6 22       		.byte	0x22
 8680 0bd7 0C       		.byte	0xc
 8681 0bd8 885B9528 		.4byte	0x28955b88
 8682 0bdc 1C       		.byte	0x1c
 8683 0bdd 49       		.byte	0x49
 8684 0bde 14       		.byte	0x14
 8685 0bdf 14       		.byte	0x14
 8686 0be0 1F       		.byte	0x1f
 8687 0be1 23       		.byte	0x23
 8688 0be2 20       		.uleb128 0x20
 8689 0be3 24       		.byte	0x24
 8690 0be4 17       		.byte	0x17
 8691 0be5 25       		.byte	0x25
 8692 0be6 21       		.byte	0x21
 8693 0be7 91       		.byte	0x91
 8694 0be8 947F     		.sleb128 -108
 8695 0bea 06       		.byte	0x6
 8696 0beb 22       		.byte	0x22
 8697 0bec 91       		.byte	0x91
 8698 0bed 947F     		.sleb128 -108
ARM GAS  C:\Users\atsu\AppData\Local\Temp\ccFWVBKl.s 			page 166


 8699 0bef 06       		.byte	0x6
 8700 0bf0 1A       		.byte	0x1a
 8701 0bf1 21       		.byte	0x21
 8702 0bf2 91       		.byte	0x91
 8703 0bf3 AC7F     		.sleb128 -84
 8704 0bf5 06       		.byte	0x6
 8705 0bf6 22       		.byte	0x22
 8706 0bf7 91       		.byte	0x91
 8707 0bf8 A07F     		.sleb128 -96
 8708 0bfa 06       		.byte	0x6
 8709 0bfb 22       		.byte	0x22
 8710 0bfc 0C       		.byte	0xc
 8711 0bfd AA483817 		.4byte	0x173848aa
 8712 0c01 1C       		.byte	0x1c
 8713 0c02 44       		.byte	0x44
 8714 0c03 14       		.byte	0x14
 8715 0c04 14       		.byte	0x14
 8716 0c05 1F       		.byte	0x1f
 8717 0c06 23       		.byte	0x23
 8718 0c07 20       		.uleb128 0x20
 8719 0c08 24       		.byte	0x24
 8720 0c09 17       		.byte	0x17
 8721 0c0a 25       		.byte	0x25
 8722 0c0b 21       		.byte	0x21
 8723 0c0c 22       		.byte	0x22
 8724 0c0d 9F       		.byte	0x9f
 8725 0c0e 00000000 		.4byte	0
 8726 0c12 00000000 		.4byte	0
 8727              	.LLST30:
 8728 0c16 C0000000 		.4byte	.LVL26
 8729 0c1a 02010000 		.4byte	.LVL38
 8730 0c1e 0100     		.2byte	0x1
 8731 0c20 52       		.byte	0x52
 8732 0c21 00000000 		.4byte	0
 8733 0c25 00000000 		.4byte	0
 8734              	.LLST31:
 8735 0c29 C0000000 		.4byte	.LVL26
 8736 0c2d 18010000 		.4byte	.LVL44
 8737 0c31 0100     		.2byte	0x1
 8738 0c33 53       		.byte	0x53
 8739 0c34 00000000 		.4byte	0
 8740 0c38 00000000 		.4byte	0
 8741              	.LLST32:
 8742 0c3c C0000000 		.4byte	.LVL26
 8743 0c40 CE000000 		.4byte	.LVL28
 8744 0c44 0100     		.2byte	0x1
 8745 0c46 56       		.byte	0x56
 8746 0c47 CE000000 		.4byte	.LVL28
 8747 0c4b D0000000 		.4byte	.LVL29
 8748 0c4f 3400     		.2byte	0x34
 8749 0c51 91       		.byte	0x91
 8750 0c52 947F     		.sleb128 -108
 8751 0c54 06       		.byte	0x6
 8752 0c55 20       		.byte	0x20
 8753 0c56 91       		.byte	0x91
 8754 0c57 A07F     		.sleb128 -96
 8755 0c59 06       		.byte	0x6
ARM GAS  C:\Users\atsu\AppData\Local\Temp\ccFWVBKl.s 			page 167


 8756 0c5a 1A       		.byte	0x1a
 8757 0c5b 91       		.byte	0x91
 8758 0c5c 947F     		.sleb128 -108
 8759 0c5e 06       		.byte	0x6
 8760 0c5f 91       		.byte	0x91
 8761 0c60 9C7F     		.sleb128 -100
 8762 0c62 06       		.byte	0x6
 8763 0c63 1A       		.byte	0x1a
 8764 0c64 21       		.byte	0x21
 8765 0c65 91       		.byte	0x91
 8766 0c66 A87F     		.sleb128 -88
 8767 0c68 06       		.byte	0x6
 8768 0c69 22       		.byte	0x22
 8769 0c6a 91       		.byte	0x91
 8770 0c6b A47F     		.sleb128 -92
 8771 0c6d 06       		.byte	0x6
 8772 0c6e 22       		.byte	0x22
 8773 0c6f 0C       		.byte	0xc
 8774 0c70 885B9528 		.4byte	0x28955b88
 8775 0c74 1C       		.byte	0x1c
 8776 0c75 49       		.byte	0x49
 8777 0c76 14       		.byte	0x14
 8778 0c77 14       		.byte	0x14
 8779 0c78 1F       		.byte	0x1f
 8780 0c79 23       		.byte	0x23
 8781 0c7a 20       		.uleb128 0x20
 8782 0c7b 24       		.byte	0x24
 8783 0c7c 17       		.byte	0x17
 8784 0c7d 25       		.byte	0x25
 8785 0c7e 21       		.byte	0x21
 8786 0c7f 91       		.byte	0x91
 8787 0c80 947F     		.sleb128 -108
 8788 0c82 06       		.byte	0x6
 8789 0c83 22       		.byte	0x22
 8790 0c84 9F       		.byte	0x9f
 8791 0c85 D0000000 		.4byte	.LVL29
 8792 0c89 D4000000 		.4byte	.LVL30
 8793 0c8d 0D00     		.2byte	0xd
 8794 0c8f 76       		.byte	0x76
 8795 0c90 00       		.sleb128 0
 8796 0c91 49       		.byte	0x49
 8797 0c92 14       		.byte	0x14
 8798 0c93 14       		.byte	0x14
 8799 0c94 1F       		.byte	0x1f
 8800 0c95 23       		.byte	0x23
 8801 0c96 20       		.uleb128 0x20
 8802 0c97 24       		.byte	0x24
 8803 0c98 17       		.byte	0x17
 8804 0c99 25       		.byte	0x25
 8805 0c9a 21       		.byte	0x21
 8806 0c9b 9F       		.byte	0x9f
 8807 0c9c D4000000 		.4byte	.LVL30
 8808 0ca0 D6000000 		.4byte	.LVL31
 8809 0ca4 0100     		.2byte	0x1
 8810 0ca6 56       		.byte	0x56
 8811 0ca7 D6000000 		.4byte	.LVL31
 8812 0cab 3E010000 		.4byte	.LVL49
ARM GAS  C:\Users\atsu\AppData\Local\Temp\ccFWVBKl.s 			page 168


 8813 0caf 0100     		.2byte	0x1
 8814 0cb1 54       		.byte	0x54
 8815 0cb2 00000000 		.4byte	0
 8816 0cb6 00000000 		.4byte	0
 8817              	.LLST33:
 8818 0cba D6000000 		.4byte	.LVL31
 8819 0cbe DE000000 		.4byte	.LVL32
 8820 0cc2 0100     		.2byte	0x1
 8821 0cc4 50       		.byte	0x50
 8822 0cc5 DE000000 		.4byte	.LVL32
 8823 0cc9 33070000 		.4byte	.LVL285-1
 8824 0ccd 0300     		.2byte	0x3
 8825 0ccf 91       		.byte	0x91
 8826 0cd0 BC7F     		.sleb128 -68
 8827 0cd2 00000000 		.4byte	0
 8828 0cd6 00000000 		.4byte	0
 8829              	.LLST34:
 8830 0cda D6000000 		.4byte	.LVL31
 8831 0cde 02010000 		.4byte	.LVL38
 8832 0ce2 0100     		.2byte	0x1
 8833 0ce4 52       		.byte	0x52
 8834 0ce5 00000000 		.4byte	0
 8835 0ce9 00000000 		.4byte	0
 8836              	.LLST35:
 8837 0ced D6000000 		.4byte	.LVL31
 8838 0cf1 18010000 		.4byte	.LVL44
 8839 0cf5 0100     		.2byte	0x1
 8840 0cf7 53       		.byte	0x53
 8841 0cf8 00000000 		.4byte	0
 8842 0cfc 00000000 		.4byte	0
 8843              	.LLST36:
 8844 0d00 D6000000 		.4byte	.LVL31
 8845 0d04 3E010000 		.4byte	.LVL49
 8846 0d08 0100     		.2byte	0x1
 8847 0d0a 54       		.byte	0x54
 8848 0d0b 00000000 		.4byte	0
 8849 0d0f 00000000 		.4byte	0
 8850              	.LLST37:
 8851 0d13 D6000000 		.4byte	.LVL31
 8852 0d17 E8000000 		.4byte	.LVL33
 8853 0d1b 0100     		.2byte	0x1
 8854 0d1d 51       		.byte	0x51
 8855 0d1e E8000000 		.4byte	.LVL33
 8856 0d22 EC000000 		.4byte	.LVL34
 8857 0d26 C100     		.2byte	0xc1
 8858 0d28 91       		.byte	0x91
 8859 0d29 947F     		.sleb128 -108
 8860 0d2b 06       		.byte	0x6
 8861 0d2c 20       		.byte	0x20
 8862 0d2d 91       		.byte	0x91
 8863 0d2e A07F     		.sleb128 -96
 8864 0d30 06       		.byte	0x6
 8865 0d31 1A       		.byte	0x1a
 8866 0d32 91       		.byte	0x91
 8867 0d33 947F     		.sleb128 -108
 8868 0d35 06       		.byte	0x6
 8869 0d36 91       		.byte	0x91
ARM GAS  C:\Users\atsu\AppData\Local\Temp\ccFWVBKl.s 			page 169


 8870 0d37 9C7F     		.sleb128 -100
 8871 0d39 06       		.byte	0x6
 8872 0d3a 1A       		.byte	0x1a
 8873 0d3b 21       		.byte	0x21
 8874 0d3c 91       		.byte	0x91
 8875 0d3d A87F     		.sleb128 -88
 8876 0d3f 06       		.byte	0x6
 8877 0d40 22       		.byte	0x22
 8878 0d41 91       		.byte	0x91
 8879 0d42 A47F     		.sleb128 -92
 8880 0d44 06       		.byte	0x6
 8881 0d45 22       		.byte	0x22
 8882 0d46 0C       		.byte	0xc
 8883 0d47 885B9528 		.4byte	0x28955b88
 8884 0d4b 1C       		.byte	0x1c
 8885 0d4c 49       		.byte	0x49
 8886 0d4d 14       		.byte	0x14
 8887 0d4e 14       		.byte	0x14
 8888 0d4f 1F       		.byte	0x1f
 8889 0d50 23       		.byte	0x23
 8890 0d51 20       		.uleb128 0x20
 8891 0d52 24       		.byte	0x24
 8892 0d53 17       		.byte	0x17
 8893 0d54 25       		.byte	0x25
 8894 0d55 21       		.byte	0x21
 8895 0d56 91       		.byte	0x91
 8896 0d57 947F     		.sleb128 -108
 8897 0d59 06       		.byte	0x6
 8898 0d5a 22       		.byte	0x22
 8899 0d5b 91       		.byte	0x91
 8900 0d5c 947F     		.sleb128 -108
 8901 0d5e 06       		.byte	0x6
 8902 0d5f 20       		.byte	0x20
 8903 0d60 91       		.byte	0x91
 8904 0d61 A07F     		.sleb128 -96
 8905 0d63 06       		.byte	0x6
 8906 0d64 1A       		.byte	0x1a
 8907 0d65 91       		.byte	0x91
 8908 0d66 947F     		.sleb128 -108
 8909 0d68 06       		.byte	0x6
 8910 0d69 91       		.byte	0x91
 8911 0d6a 9C7F     		.sleb128 -100
 8912 0d6c 06       		.byte	0x6
 8913 0d6d 1A       		.byte	0x1a
 8914 0d6e 21       		.byte	0x21
 8915 0d6f 91       		.byte	0x91
 8916 0d70 A87F     		.sleb128 -88
 8917 0d72 06       		.byte	0x6
 8918 0d73 22       		.byte	0x22
 8919 0d74 91       		.byte	0x91
 8920 0d75 A47F     		.sleb128 -92
 8921 0d77 06       		.byte	0x6
 8922 0d78 22       		.byte	0x22
 8923 0d79 0C       		.byte	0xc
 8924 0d7a 885B9528 		.4byte	0x28955b88
 8925 0d7e 1C       		.byte	0x1c
 8926 0d7f 49       		.byte	0x49
ARM GAS  C:\Users\atsu\AppData\Local\Temp\ccFWVBKl.s 			page 170


 8927 0d80 14       		.byte	0x14
 8928 0d81 14       		.byte	0x14
 8929 0d82 1F       		.byte	0x1f
 8930 0d83 23       		.byte	0x23
 8931 0d84 20       		.uleb128 0x20
 8932 0d85 24       		.byte	0x24
 8933 0d86 17       		.byte	0x17
 8934 0d87 25       		.byte	0x25
 8935 0d88 21       		.byte	0x21
 8936 0d89 91       		.byte	0x91
 8937 0d8a 947F     		.sleb128 -108
 8938 0d8c 06       		.byte	0x6
 8939 0d8d 22       		.byte	0x22
 8940 0d8e 20       		.byte	0x20
 8941 0d8f 91       		.byte	0x91
 8942 0d90 9C7F     		.sleb128 -100
 8943 0d92 06       		.byte	0x6
 8944 0d93 1A       		.byte	0x1a
 8945 0d94 91       		.byte	0x91
 8946 0d95 947F     		.sleb128 -108
 8947 0d97 06       		.byte	0x6
 8948 0d98 20       		.byte	0x20
 8949 0d99 91       		.byte	0x91
 8950 0d9a A07F     		.sleb128 -96
 8951 0d9c 06       		.byte	0x6
 8952 0d9d 1A       		.byte	0x1a
 8953 0d9e 91       		.byte	0x91
 8954 0d9f 947F     		.sleb128 -108
 8955 0da1 06       		.byte	0x6
 8956 0da2 91       		.byte	0x91
 8957 0da3 9C7F     		.sleb128 -100
 8958 0da5 06       		.byte	0x6
 8959 0da6 1A       		.byte	0x1a
 8960 0da7 21       		.byte	0x21
 8961 0da8 91       		.byte	0x91
 8962 0da9 A87F     		.sleb128 -88
 8963 0dab 06       		.byte	0x6
 8964 0dac 22       		.byte	0x22
 8965 0dad 91       		.byte	0x91
 8966 0dae A47F     		.sleb128 -92
 8967 0db0 06       		.byte	0x6
 8968 0db1 22       		.byte	0x22
 8969 0db2 0C       		.byte	0xc
 8970 0db3 885B9528 		.4byte	0x28955b88
 8971 0db7 1C       		.byte	0x1c
 8972 0db8 49       		.byte	0x49
 8973 0db9 14       		.byte	0x14
 8974 0dba 14       		.byte	0x14
 8975 0dbb 1F       		.byte	0x1f
 8976 0dbc 23       		.byte	0x23
 8977 0dbd 20       		.uleb128 0x20
 8978 0dbe 24       		.byte	0x24
 8979 0dbf 17       		.byte	0x17
 8980 0dc0 25       		.byte	0x25
 8981 0dc1 21       		.byte	0x21
 8982 0dc2 91       		.byte	0x91
 8983 0dc3 947F     		.sleb128 -108
ARM GAS  C:\Users\atsu\AppData\Local\Temp\ccFWVBKl.s 			page 171


 8984 0dc5 06       		.byte	0x6
 8985 0dc6 22       		.byte	0x22
 8986 0dc7 91       		.byte	0x91
 8987 0dc8 947F     		.sleb128 -108
 8988 0dca 06       		.byte	0x6
 8989 0dcb 1A       		.byte	0x1a
 8990 0dcc 21       		.byte	0x21
 8991 0dcd 91       		.byte	0x91
 8992 0dce AC7F     		.sleb128 -84
 8993 0dd0 06       		.byte	0x6
 8994 0dd1 22       		.byte	0x22
 8995 0dd2 91       		.byte	0x91
 8996 0dd3 A07F     		.sleb128 -96
 8997 0dd5 06       		.byte	0x6
 8998 0dd6 22       		.byte	0x22
 8999 0dd7 0C       		.byte	0xc
 9000 0dd8 AA483817 		.4byte	0x173848aa
 9001 0ddc 1C       		.byte	0x1c
 9002 0ddd 44       		.byte	0x44
 9003 0dde 14       		.byte	0x14
 9004 0ddf 14       		.byte	0x14
 9005 0de0 1F       		.byte	0x1f
 9006 0de1 23       		.byte	0x23
 9007 0de2 20       		.uleb128 0x20
 9008 0de3 24       		.byte	0x24
 9009 0de4 17       		.byte	0x17
 9010 0de5 25       		.byte	0x25
 9011 0de6 21       		.byte	0x21
 9012 0de7 22       		.byte	0x22
 9013 0de8 9F       		.byte	0x9f
 9014 0de9 EC000000 		.4byte	.LVL34
 9015 0ded F0000000 		.4byte	.LVL35
 9016 0df1 0D00     		.2byte	0xd
 9017 0df3 71       		.byte	0x71
 9018 0df4 00       		.sleb128 0
 9019 0df5 44       		.byte	0x44
 9020 0df6 14       		.byte	0x14
 9021 0df7 14       		.byte	0x14
 9022 0df8 1F       		.byte	0x1f
 9023 0df9 23       		.byte	0x23
 9024 0dfa 20       		.uleb128 0x20
 9025 0dfb 24       		.byte	0x24
 9026 0dfc 17       		.byte	0x17
 9027 0dfd 25       		.byte	0x25
 9028 0dfe 21       		.byte	0x21
 9029 0dff 9F       		.byte	0x9f
 9030 0e00 F0000000 		.4byte	.LVL35
 9031 0e04 58010000 		.4byte	.LVL54
 9032 0e08 0100     		.2byte	0x1
 9033 0e0a 51       		.byte	0x51
 9034 0e0b 00000000 		.4byte	0
 9035 0e0f 00000000 		.4byte	0
 9036              	.LLST38:
 9037 0e13 F4000000 		.4byte	.LVL36
 9038 0e17 F8000000 		.4byte	.LVL37
 9039 0e1b 0100     		.2byte	0x1
 9040 0e1d 50       		.byte	0x50
ARM GAS  C:\Users\atsu\AppData\Local\Temp\ccFWVBKl.s 			page 172


 9041 0e1e F8000000 		.4byte	.LVL37
 9042 0e22 33070000 		.4byte	.LVL285-1
 9043 0e26 0200     		.2byte	0x2
 9044 0e28 91       		.byte	0x91
 9045 0e29 40       		.sleb128 -64
 9046 0e2a 00000000 		.4byte	0
 9047 0e2e 00000000 		.4byte	0
 9048              	.LLST39:
 9049 0e32 F4000000 		.4byte	.LVL36
 9050 0e36 18010000 		.4byte	.LVL44
 9051 0e3a 0100     		.2byte	0x1
 9052 0e3c 53       		.byte	0x53
 9053 0e3d 00000000 		.4byte	0
 9054 0e41 00000000 		.4byte	0
 9055              	.LLST40:
 9056 0e45 F4000000 		.4byte	.LVL36
 9057 0e49 3E010000 		.4byte	.LVL49
 9058 0e4d 0100     		.2byte	0x1
 9059 0e4f 54       		.byte	0x54
 9060 0e50 00000000 		.4byte	0
 9061 0e54 00000000 		.4byte	0
 9062              	.LLST41:
 9063 0e58 F4000000 		.4byte	.LVL36
 9064 0e5c 58010000 		.4byte	.LVL54
 9065 0e60 0100     		.2byte	0x1
 9066 0e62 51       		.byte	0x51
 9067 0e63 00000000 		.4byte	0
 9068 0e67 00000000 		.4byte	0
 9069              	.LLST42:
 9070 0e6b F4000000 		.4byte	.LVL36
 9071 0e6f 02010000 		.4byte	.LVL38
 9072 0e73 0100     		.2byte	0x1
 9073 0e75 52       		.byte	0x52
 9074 0e76 04010000 		.4byte	.LVL39
 9075 0e7a 0A010000 		.4byte	.LVL40
 9076 0e7e 0D00     		.2byte	0xd
 9077 0e80 72       		.byte	0x72
 9078 0e81 00       		.sleb128 0
 9079 0e82 3F       		.byte	0x3f
 9080 0e83 14       		.byte	0x14
 9081 0e84 14       		.byte	0x14
 9082 0e85 1F       		.byte	0x1f
 9083 0e86 23       		.byte	0x23
 9084 0e87 20       		.uleb128 0x20
 9085 0e88 24       		.byte	0x24
 9086 0e89 17       		.byte	0x17
 9087 0e8a 25       		.byte	0x25
 9088 0e8b 21       		.byte	0x21
 9089 0e8c 9F       		.byte	0x9f
 9090 0e8d 0A010000 		.4byte	.LVL40
 9091 0e91 72010000 		.4byte	.LVL59
 9092 0e95 0100     		.2byte	0x1
 9093 0e97 52       		.byte	0x52
 9094 0e98 00000000 		.4byte	0
 9095 0e9c 00000000 		.4byte	0
 9096              	.LLST43:
 9097 0ea0 0E010000 		.4byte	.LVL41
ARM GAS  C:\Users\atsu\AppData\Local\Temp\ccFWVBKl.s 			page 173


 9098 0ea4 12010000 		.4byte	.LVL42
 9099 0ea8 0100     		.2byte	0x1
 9100 0eaa 56       		.byte	0x56
 9101 0eab 12010000 		.4byte	.LVL42
 9102 0eaf 14010000 		.4byte	.LVL43
 9103 0eb3 0100     		.2byte	0x1
 9104 0eb5 5C       		.byte	0x5c
 9105 0eb6 14010000 		.4byte	.LVL43
 9106 0eba 33070000 		.4byte	.LVL285-1
 9107 0ebe 0200     		.2byte	0x2
 9108 0ec0 91       		.byte	0x91
 9109 0ec1 44       		.sleb128 -60
 9110 0ec2 00000000 		.4byte	0
 9111 0ec6 00000000 		.4byte	0
 9112              	.LLST44:
 9113 0eca 0E010000 		.4byte	.LVL41
 9114 0ece 3E010000 		.4byte	.LVL49
 9115 0ed2 0100     		.2byte	0x1
 9116 0ed4 54       		.byte	0x54
 9117 0ed5 00000000 		.4byte	0
 9118 0ed9 00000000 		.4byte	0
 9119              	.LLST45:
 9120 0edd 0E010000 		.4byte	.LVL41
 9121 0ee1 58010000 		.4byte	.LVL54
 9122 0ee5 0100     		.2byte	0x1
 9123 0ee7 51       		.byte	0x51
 9124 0ee8 00000000 		.4byte	0
 9125 0eec 00000000 		.4byte	0
 9126              	.LLST46:
 9127 0ef0 0E010000 		.4byte	.LVL41
 9128 0ef4 72010000 		.4byte	.LVL59
 9129 0ef8 0100     		.2byte	0x1
 9130 0efa 52       		.byte	0x52
 9131 0efb 00000000 		.4byte	0
 9132 0eff 00000000 		.4byte	0
 9133              	.LLST47:
 9134 0f03 0E010000 		.4byte	.LVL41
 9135 0f07 18010000 		.4byte	.LVL44
 9136 0f0b 0100     		.2byte	0x1
 9137 0f0d 53       		.byte	0x53
 9138 0f0e 24010000 		.4byte	.LVL45
 9139 0f12 2A010000 		.4byte	.LVL46
 9140 0f16 0D00     		.2byte	0xd
 9141 0f18 73       		.byte	0x73
 9142 0f19 00       		.sleb128 0
 9143 0f1a 3A       		.byte	0x3a
 9144 0f1b 14       		.byte	0x14
 9145 0f1c 14       		.byte	0x14
 9146 0f1d 1F       		.byte	0x1f
 9147 0f1e 23       		.byte	0x23
 9148 0f1f 20       		.uleb128 0x20
 9149 0f20 24       		.byte	0x24
 9150 0f21 17       		.byte	0x17
 9151 0f22 25       		.byte	0x25
 9152 0f23 21       		.byte	0x21
 9153 0f24 9F       		.byte	0x9f
 9154 0f25 2A010000 		.4byte	.LVL46
ARM GAS  C:\Users\atsu\AppData\Local\Temp\ccFWVBKl.s 			page 174


 9155 0f29 88010000 		.4byte	.LVL65
 9156 0f2d 0100     		.2byte	0x1
 9157 0f2f 53       		.byte	0x53
 9158 0f30 00000000 		.4byte	0
 9159 0f34 00000000 		.4byte	0
 9160              	.LLST48:
 9161 0f38 30010000 		.4byte	.LVL47
 9162 0f3c 34010000 		.4byte	.LVL48
 9163 0f40 0100     		.2byte	0x1
 9164 0f42 50       		.byte	0x50
 9165 0f43 34010000 		.4byte	.LVL48
 9166 0f47 33070000 		.4byte	.LVL285-1
 9167 0f4b 0200     		.2byte	0x2
 9168 0f4d 91       		.byte	0x91
 9169 0f4e 48       		.sleb128 -56
 9170 0f4f 00000000 		.4byte	0
 9171 0f53 00000000 		.4byte	0
 9172              	.LLST49:
 9173 0f57 30010000 		.4byte	.LVL47
 9174 0f5b 58010000 		.4byte	.LVL54
 9175 0f5f 0100     		.2byte	0x1
 9176 0f61 51       		.byte	0x51
 9177 0f62 00000000 		.4byte	0
 9178 0f66 00000000 		.4byte	0
 9179              	.LLST50:
 9180 0f6a 30010000 		.4byte	.LVL47
 9181 0f6e 72010000 		.4byte	.LVL59
 9182 0f72 0100     		.2byte	0x1
 9183 0f74 52       		.byte	0x52
 9184 0f75 00000000 		.4byte	0
 9185 0f79 00000000 		.4byte	0
 9186              	.LLST51:
 9187 0f7d 30010000 		.4byte	.LVL47
 9188 0f81 88010000 		.4byte	.LVL65
 9189 0f85 0100     		.2byte	0x1
 9190 0f87 53       		.byte	0x53
 9191 0f88 00000000 		.4byte	0
 9192 0f8c 00000000 		.4byte	0
 9193              	.LLST52:
 9194 0f90 30010000 		.4byte	.LVL47
 9195 0f94 3E010000 		.4byte	.LVL49
 9196 0f98 0100     		.2byte	0x1
 9197 0f9a 54       		.byte	0x54
 9198 0f9b 40010000 		.4byte	.LVL50
 9199 0f9f 46010000 		.4byte	.LVL51
 9200 0fa3 0D00     		.2byte	0xd
 9201 0fa5 74       		.byte	0x74
 9202 0fa6 00       		.sleb128 0
 9203 0fa7 49       		.byte	0x49
 9204 0fa8 14       		.byte	0x14
 9205 0fa9 14       		.byte	0x14
 9206 0faa 1F       		.byte	0x1f
 9207 0fab 23       		.byte	0x23
 9208 0fac 20       		.uleb128 0x20
 9209 0fad 24       		.byte	0x24
 9210 0fae 17       		.byte	0x17
 9211 0faf 25       		.byte	0x25
ARM GAS  C:\Users\atsu\AppData\Local\Temp\ccFWVBKl.s 			page 175


 9212 0fb0 21       		.byte	0x21
 9213 0fb1 9F       		.byte	0x9f
 9214 0fb2 46010000 		.4byte	.LVL51
 9215 0fb6 AE010000 		.4byte	.LVL70
 9216 0fba 0100     		.2byte	0x1
 9217 0fbc 54       		.byte	0x54
 9218 0fbd 00000000 		.4byte	0
 9219 0fc1 00000000 		.4byte	0
 9220              	.LLST53:
 9221 0fc5 4A010000 		.4byte	.LVL52
 9222 0fc9 4E010000 		.4byte	.LVL53
 9223 0fcd 0100     		.2byte	0x1
 9224 0fcf 56       		.byte	0x56
 9225 0fd0 4E010000 		.4byte	.LVL53
 9226 0fd4 33070000 		.4byte	.LVL285-1
 9227 0fd8 0200     		.2byte	0x2
 9228 0fda 91       		.byte	0x91
 9229 0fdb 4C       		.sleb128 -52
 9230 0fdc 00000000 		.4byte	0
 9231 0fe0 00000000 		.4byte	0
 9232              	.LLST54:
 9233 0fe4 4A010000 		.4byte	.LVL52
 9234 0fe8 72010000 		.4byte	.LVL59
 9235 0fec 0100     		.2byte	0x1
 9236 0fee 52       		.byte	0x52
 9237 0fef 00000000 		.4byte	0
 9238 0ff3 00000000 		.4byte	0
 9239              	.LLST55:
 9240 0ff7 4A010000 		.4byte	.LVL52
 9241 0ffb 88010000 		.4byte	.LVL65
 9242 0fff 0100     		.2byte	0x1
 9243 1001 53       		.byte	0x53
 9244 1002 00000000 		.4byte	0
 9245 1006 00000000 		.4byte	0
 9246              	.LLST56:
 9247 100a 4A010000 		.4byte	.LVL52
 9248 100e AE010000 		.4byte	.LVL70
 9249 1012 0100     		.2byte	0x1
 9250 1014 54       		.byte	0x54
 9251 1015 00000000 		.4byte	0
 9252 1019 00000000 		.4byte	0
 9253              	.LLST57:
 9254 101d 4A010000 		.4byte	.LVL52
 9255 1021 58010000 		.4byte	.LVL54
 9256 1025 0100     		.2byte	0x1
 9257 1027 51       		.byte	0x51
 9258 1028 5C010000 		.4byte	.LVL55
 9259 102c 60010000 		.4byte	.LVL56
 9260 1030 0D00     		.2byte	0xd
 9261 1032 71       		.byte	0x71
 9262 1033 00       		.sleb128 0
 9263 1034 44       		.byte	0x44
 9264 1035 14       		.byte	0x14
 9265 1036 14       		.byte	0x14
 9266 1037 1F       		.byte	0x1f
 9267 1038 23       		.byte	0x23
 9268 1039 20       		.uleb128 0x20
ARM GAS  C:\Users\atsu\AppData\Local\Temp\ccFWVBKl.s 			page 176


 9269 103a 24       		.byte	0x24
 9270 103b 17       		.byte	0x17
 9271 103c 25       		.byte	0x25
 9272 103d 21       		.byte	0x21
 9273 103e 9F       		.byte	0x9f
 9274 103f 60010000 		.4byte	.LVL56
 9275 1043 C6010000 		.4byte	.LVL75
 9276 1047 0100     		.2byte	0x1
 9277 1049 51       		.byte	0x51
 9278 104a 00000000 		.4byte	0
 9279 104e 00000000 		.4byte	0
 9280              	.LLST58:
 9281 1052 64010000 		.4byte	.LVL57
 9282 1056 68010000 		.4byte	.LVL58
 9283 105a 0100     		.2byte	0x1
 9284 105c 50       		.byte	0x50
 9285 105d 68010000 		.4byte	.LVL58
 9286 1061 33070000 		.4byte	.LVL285-1
 9287 1065 0200     		.2byte	0x2
 9288 1067 91       		.byte	0x91
 9289 1068 50       		.sleb128 -48
 9290 1069 00000000 		.4byte	0
 9291 106d 00000000 		.4byte	0
 9292              	.LLST59:
 9293 1071 64010000 		.4byte	.LVL57
 9294 1075 88010000 		.4byte	.LVL65
 9295 1079 0100     		.2byte	0x1
 9296 107b 53       		.byte	0x53
 9297 107c 00000000 		.4byte	0
 9298 1080 00000000 		.4byte	0
 9299              	.LLST60:
 9300 1084 64010000 		.4byte	.LVL57
 9301 1088 AE010000 		.4byte	.LVL70
 9302 108c 0100     		.2byte	0x1
 9303 108e 54       		.byte	0x54
 9304 108f 00000000 		.4byte	0
 9305 1093 00000000 		.4byte	0
 9306              	.LLST61:
 9307 1097 64010000 		.4byte	.LVL57
 9308 109b C6010000 		.4byte	.LVL75
 9309 109f 0100     		.2byte	0x1
 9310 10a1 51       		.byte	0x51
 9311 10a2 00000000 		.4byte	0
 9312 10a6 00000000 		.4byte	0
 9313              	.LLST62:
 9314 10aa 64010000 		.4byte	.LVL57
 9315 10ae 72010000 		.4byte	.LVL59
 9316 10b2 0100     		.2byte	0x1
 9317 10b4 52       		.byte	0x52
 9318 10b5 74010000 		.4byte	.LVL60
 9319 10b9 7A010000 		.4byte	.LVL61
 9320 10bd 0D00     		.2byte	0xd
 9321 10bf 72       		.byte	0x72
 9322 10c0 00       		.sleb128 0
 9323 10c1 3F       		.byte	0x3f
 9324 10c2 14       		.byte	0x14
 9325 10c3 14       		.byte	0x14
ARM GAS  C:\Users\atsu\AppData\Local\Temp\ccFWVBKl.s 			page 177


 9326 10c4 1F       		.byte	0x1f
 9327 10c5 23       		.byte	0x23
 9328 10c6 20       		.uleb128 0x20
 9329 10c7 24       		.byte	0x24
 9330 10c8 17       		.byte	0x17
 9331 10c9 25       		.byte	0x25
 9332 10ca 21       		.byte	0x21
 9333 10cb 9F       		.byte	0x9f
 9334 10cc 7A010000 		.4byte	.LVL61
 9335 10d0 E0010000 		.4byte	.LVL80
 9336 10d4 0100     		.2byte	0x1
 9337 10d6 52       		.byte	0x52
 9338 10d7 00000000 		.4byte	0
 9339 10db 00000000 		.4byte	0
 9340              	.LLST63:
 9341 10df 7E010000 		.4byte	.LVL62
 9342 10e3 82010000 		.4byte	.LVL63
 9343 10e7 0100     		.2byte	0x1
 9344 10e9 56       		.byte	0x56
 9345 10ea 82010000 		.4byte	.LVL63
 9346 10ee 84010000 		.4byte	.LVL64
 9347 10f2 0100     		.2byte	0x1
 9348 10f4 5C       		.byte	0x5c
 9349 10f5 84010000 		.4byte	.LVL64
 9350 10f9 33070000 		.4byte	.LVL285-1
 9351 10fd 0200     		.2byte	0x2
 9352 10ff 91       		.byte	0x91
 9353 1100 54       		.sleb128 -44
 9354 1101 00000000 		.4byte	0
 9355 1105 00000000 		.4byte	0
 9356              	.LLST64:
 9357 1109 7E010000 		.4byte	.LVL62
 9358 110d AE010000 		.4byte	.LVL70
 9359 1111 0100     		.2byte	0x1
 9360 1113 54       		.byte	0x54
 9361 1114 00000000 		.4byte	0
 9362 1118 00000000 		.4byte	0
 9363              	.LLST65:
 9364 111c 7E010000 		.4byte	.LVL62
 9365 1120 C6010000 		.4byte	.LVL75
 9366 1124 0100     		.2byte	0x1
 9367 1126 51       		.byte	0x51
 9368 1127 00000000 		.4byte	0
 9369 112b 00000000 		.4byte	0
 9370              	.LLST66:
 9371 112f 7E010000 		.4byte	.LVL62
 9372 1133 E0010000 		.4byte	.LVL80
 9373 1137 0100     		.2byte	0x1
 9374 1139 52       		.byte	0x52
 9375 113a 00000000 		.4byte	0
 9376 113e 00000000 		.4byte	0
 9377              	.LLST67:
 9378 1142 7E010000 		.4byte	.LVL62
 9379 1146 88010000 		.4byte	.LVL65
 9380 114a 0100     		.2byte	0x1
 9381 114c 53       		.byte	0x53
 9382 114d 94010000 		.4byte	.LVL66
ARM GAS  C:\Users\atsu\AppData\Local\Temp\ccFWVBKl.s 			page 178


 9383 1151 9A010000 		.4byte	.LVL67
 9384 1155 0D00     		.2byte	0xd
 9385 1157 73       		.byte	0x73
 9386 1158 00       		.sleb128 0
 9387 1159 3A       		.byte	0x3a
 9388 115a 14       		.byte	0x14
 9389 115b 14       		.byte	0x14
 9390 115c 1F       		.byte	0x1f
 9391 115d 23       		.byte	0x23
 9392 115e 20       		.uleb128 0x20
 9393 115f 24       		.byte	0x24
 9394 1160 17       		.byte	0x17
 9395 1161 25       		.byte	0x25
 9396 1162 21       		.byte	0x21
 9397 1163 9F       		.byte	0x9f
 9398 1164 9A010000 		.4byte	.LVL67
 9399 1168 FC010000 		.4byte	.LVL85
 9400 116c 0100     		.2byte	0x1
 9401 116e 53       		.byte	0x53
 9402 116f 00000000 		.4byte	0
 9403 1173 00000000 		.4byte	0
 9404              	.LLST68:
 9405 1177 A0010000 		.4byte	.LVL68
 9406 117b A4010000 		.4byte	.LVL69
 9407 117f 0100     		.2byte	0x1
 9408 1181 50       		.byte	0x50
 9409 1182 A4010000 		.4byte	.LVL69
 9410 1186 33070000 		.4byte	.LVL285-1
 9411 118a 0200     		.2byte	0x2
 9412 118c 91       		.byte	0x91
 9413 118d 58       		.sleb128 -40
 9414 118e 00000000 		.4byte	0
 9415 1192 00000000 		.4byte	0
 9416              	.LLST69:
 9417 1196 A0010000 		.4byte	.LVL68
 9418 119a C6010000 		.4byte	.LVL75
 9419 119e 0100     		.2byte	0x1
 9420 11a0 51       		.byte	0x51
 9421 11a1 00000000 		.4byte	0
 9422 11a5 00000000 		.4byte	0
 9423              	.LLST70:
 9424 11a9 A0010000 		.4byte	.LVL68
 9425 11ad E0010000 		.4byte	.LVL80
 9426 11b1 0100     		.2byte	0x1
 9427 11b3 52       		.byte	0x52
 9428 11b4 00000000 		.4byte	0
 9429 11b8 00000000 		.4byte	0
 9430              	.LLST71:
 9431 11bc A0010000 		.4byte	.LVL68
 9432 11c0 FC010000 		.4byte	.LVL85
 9433 11c4 0100     		.2byte	0x1
 9434 11c6 53       		.byte	0x53
 9435 11c7 00000000 		.4byte	0
 9436 11cb 00000000 		.4byte	0
 9437              	.LLST72:
 9438 11cf A0010000 		.4byte	.LVL68
 9439 11d3 AE010000 		.4byte	.LVL70
ARM GAS  C:\Users\atsu\AppData\Local\Temp\ccFWVBKl.s 			page 179


 9440 11d7 0100     		.2byte	0x1
 9441 11d9 54       		.byte	0x54
 9442 11da B0010000 		.4byte	.LVL71
 9443 11de B2010000 		.4byte	.LVL72
 9444 11e2 0D00     		.2byte	0xd
 9445 11e4 74       		.byte	0x74
 9446 11e5 00       		.sleb128 0
 9447 11e6 49       		.byte	0x49
 9448 11e7 14       		.byte	0x14
 9449 11e8 14       		.byte	0x14
 9450 11e9 1F       		.byte	0x1f
 9451 11ea 23       		.byte	0x23
 9452 11eb 20       		.uleb128 0x20
 9453 11ec 24       		.byte	0x24
 9454 11ed 17       		.byte	0x17
 9455 11ee 25       		.byte	0x25
 9456 11ef 21       		.byte	0x21
 9457 11f0 9F       		.byte	0x9f
 9458 11f1 B2010000 		.4byte	.LVL72
 9459 11f5 B8010000 		.4byte	.LVL73
 9460 11f9 0100     		.2byte	0x1
 9461 11fb 54       		.byte	0x54
 9462 11fc B8010000 		.4byte	.LVL73
 9463 1200 16020000 		.4byte	.LVL89
 9464 1204 0100     		.2byte	0x1
 9465 1206 56       		.byte	0x56
 9466 1207 00000000 		.4byte	0
 9467 120b 00000000 		.4byte	0
 9468              	.LLST73:
 9469 120f B8010000 		.4byte	.LVL73
 9470 1213 BC010000 		.4byte	.LVL74
 9471 1217 0100     		.2byte	0x1
 9472 1219 55       		.byte	0x55
 9473 121a BC010000 		.4byte	.LVL74
 9474 121e 33070000 		.4byte	.LVL285-1
 9475 1222 0200     		.2byte	0x2
 9476 1224 91       		.byte	0x91
 9477 1225 5C       		.sleb128 -36
 9478 1226 00000000 		.4byte	0
 9479 122a 00000000 		.4byte	0
 9480              	.LLST74:
 9481 122e B8010000 		.4byte	.LVL73
 9482 1232 E0010000 		.4byte	.LVL80
 9483 1236 0100     		.2byte	0x1
 9484 1238 52       		.byte	0x52
 9485 1239 00000000 		.4byte	0
 9486 123d 00000000 		.4byte	0
 9487              	.LLST75:
 9488 1241 B8010000 		.4byte	.LVL73
 9489 1245 FC010000 		.4byte	.LVL85
 9490 1249 0100     		.2byte	0x1
 9491 124b 53       		.byte	0x53
 9492 124c 00000000 		.4byte	0
 9493 1250 00000000 		.4byte	0
 9494              	.LLST76:
 9495 1254 B8010000 		.4byte	.LVL73
 9496 1258 16020000 		.4byte	.LVL89
ARM GAS  C:\Users\atsu\AppData\Local\Temp\ccFWVBKl.s 			page 180


 9497 125c 0100     		.2byte	0x1
 9498 125e 56       		.byte	0x56
 9499 125f 00000000 		.4byte	0
 9500 1263 00000000 		.4byte	0
 9501              	.LLST77:
 9502 1267 B8010000 		.4byte	.LVL73
 9503 126b C6010000 		.4byte	.LVL75
 9504 126f 0100     		.2byte	0x1
 9505 1271 51       		.byte	0x51
 9506 1272 C8010000 		.4byte	.LVL76
 9507 1276 CA010000 		.4byte	.LVL77
 9508 127a 0D00     		.2byte	0xd
 9509 127c 74       		.byte	0x74
 9510 127d 00       		.sleb128 0
 9511 127e 44       		.byte	0x44
 9512 127f 14       		.byte	0x14
 9513 1280 14       		.byte	0x14
 9514 1281 1F       		.byte	0x1f
 9515 1282 23       		.byte	0x23
 9516 1283 20       		.uleb128 0x20
 9517 1284 24       		.byte	0x24
 9518 1285 17       		.byte	0x17
 9519 1286 25       		.byte	0x25
 9520 1287 21       		.byte	0x21
 9521 1288 9F       		.byte	0x9f
 9522 1289 CA010000 		.4byte	.LVL77
 9523 128d D0010000 		.4byte	.LVL78
 9524 1291 0100     		.2byte	0x1
 9525 1293 54       		.byte	0x54
 9526 1294 D0010000 		.4byte	.LVL78
 9527 1298 2E020000 		.4byte	.LVL93
 9528 129c 0100     		.2byte	0x1
 9529 129e 55       		.byte	0x55
 9530 129f 00000000 		.4byte	0
 9531 12a3 00000000 		.4byte	0
 9532              	.LLST78:
 9533 12a7 D0010000 		.4byte	.LVL78
 9534 12ab D8010000 		.4byte	.LVL79
 9535 12af 0100     		.2byte	0x1
 9536 12b1 51       		.byte	0x51
 9537 12b2 D8010000 		.4byte	.LVL79
 9538 12b6 33070000 		.4byte	.LVL285-1
 9539 12ba 0200     		.2byte	0x2
 9540 12bc 91       		.byte	0x91
 9541 12bd 60       		.sleb128 -32
 9542 12be 00000000 		.4byte	0
 9543 12c2 00000000 		.4byte	0
 9544              	.LLST79:
 9545 12c6 D0010000 		.4byte	.LVL78
 9546 12ca FC010000 		.4byte	.LVL85
 9547 12ce 0100     		.2byte	0x1
 9548 12d0 53       		.byte	0x53
 9549 12d1 00000000 		.4byte	0
 9550 12d5 00000000 		.4byte	0
 9551              	.LLST80:
 9552 12d9 D0010000 		.4byte	.LVL78
 9553 12dd 16020000 		.4byte	.LVL89
ARM GAS  C:\Users\atsu\AppData\Local\Temp\ccFWVBKl.s 			page 181


 9554 12e1 0100     		.2byte	0x1
 9555 12e3 56       		.byte	0x56
 9556 12e4 00000000 		.4byte	0
 9557 12e8 00000000 		.4byte	0
 9558              	.LLST81:
 9559 12ec D0010000 		.4byte	.LVL78
 9560 12f0 2E020000 		.4byte	.LVL93
 9561 12f4 0100     		.2byte	0x1
 9562 12f6 55       		.byte	0x55
 9563 12f7 00000000 		.4byte	0
 9564 12fb 00000000 		.4byte	0
 9565              	.LLST82:
 9566 12ff D0010000 		.4byte	.LVL78
 9567 1303 E0010000 		.4byte	.LVL80
 9568 1307 0100     		.2byte	0x1
 9569 1309 52       		.byte	0x52
 9570 130a E2010000 		.4byte	.LVL81
 9571 130e E8010000 		.4byte	.LVL82
 9572 1312 0D00     		.2byte	0xd
 9573 1314 74       		.byte	0x74
 9574 1315 00       		.sleb128 0
 9575 1316 3F       		.byte	0x3f
 9576 1317 14       		.byte	0x14
 9577 1318 14       		.byte	0x14
 9578 1319 1F       		.byte	0x1f
 9579 131a 23       		.byte	0x23
 9580 131b 20       		.uleb128 0x20
 9581 131c 24       		.byte	0x24
 9582 131d 17       		.byte	0x17
 9583 131e 25       		.byte	0x25
 9584 131f 21       		.byte	0x21
 9585 1320 9F       		.byte	0x9f
 9586 1321 E8010000 		.4byte	.LVL82
 9587 1325 EA010000 		.4byte	.LVL83
 9588 1329 0100     		.2byte	0x1
 9589 132b 54       		.byte	0x54
 9590 132c EA010000 		.4byte	.LVL83
 9591 1330 48020000 		.4byte	.LVL97
 9592 1334 0100     		.2byte	0x1
 9593 1336 52       		.byte	0x52
 9594 1337 00000000 		.4byte	0
 9595 133b 00000000 		.4byte	0
 9596              	.LLST83:
 9597 133f EA010000 		.4byte	.LVL83
 9598 1343 F4010000 		.4byte	.LVL84
 9599 1347 0100     		.2byte	0x1
 9600 1349 50       		.byte	0x50
 9601 134a F4010000 		.4byte	.LVL84
 9602 134e 33070000 		.4byte	.LVL285-1
 9603 1352 0200     		.2byte	0x2
 9604 1354 91       		.byte	0x91
 9605 1355 64       		.sleb128 -28
 9606 1356 00000000 		.4byte	0
 9607 135a 00000000 		.4byte	0
 9608              	.LLST84:
 9609 135e EA010000 		.4byte	.LVL83
 9610 1362 16020000 		.4byte	.LVL89
ARM GAS  C:\Users\atsu\AppData\Local\Temp\ccFWVBKl.s 			page 182


 9611 1366 0100     		.2byte	0x1
 9612 1368 56       		.byte	0x56
 9613 1369 00000000 		.4byte	0
 9614 136d 00000000 		.4byte	0
 9615              	.LLST85:
 9616 1371 EA010000 		.4byte	.LVL83
 9617 1375 2E020000 		.4byte	.LVL93
 9618 1379 0100     		.2byte	0x1
 9619 137b 55       		.byte	0x55
 9620 137c 00000000 		.4byte	0
 9621 1380 00000000 		.4byte	0
 9622              	.LLST86:
 9623 1384 EA010000 		.4byte	.LVL83
 9624 1388 48020000 		.4byte	.LVL97
 9625 138c 0100     		.2byte	0x1
 9626 138e 52       		.byte	0x52
 9627 138f 00000000 		.4byte	0
 9628 1393 00000000 		.4byte	0
 9629              	.LLST87:
 9630 1397 EA010000 		.4byte	.LVL83
 9631 139b FC010000 		.4byte	.LVL85
 9632 139f 0100     		.2byte	0x1
 9633 13a1 53       		.byte	0x53
 9634 13a2 00020000 		.4byte	.LVL86
 9635 13a6 04020000 		.4byte	.LVL87
 9636 13aa 0D00     		.2byte	0xd
 9637 13ac 74       		.byte	0x74
 9638 13ad 00       		.sleb128 0
 9639 13ae 3A       		.byte	0x3a
 9640 13af 14       		.byte	0x14
 9641 13b0 14       		.byte	0x14
 9642 13b1 1F       		.byte	0x1f
 9643 13b2 23       		.byte	0x23
 9644 13b3 20       		.uleb128 0x20
 9645 13b4 24       		.byte	0x24
 9646 13b5 17       		.byte	0x17
 9647 13b6 25       		.byte	0x25
 9648 13b7 21       		.byte	0x21
 9649 13b8 9F       		.byte	0x9f
 9650 13b9 04020000 		.4byte	.LVL87
 9651 13bd 06020000 		.4byte	.LVL88
 9652 13c1 0100     		.2byte	0x1
 9653 13c3 54       		.byte	0x54
 9654 13c4 06020000 		.4byte	.LVL88
 9655 13c8 64020000 		.4byte	.LVL101
 9656 13cc 0100     		.2byte	0x1
 9657 13ce 50       		.byte	0x50
 9658 13cf 00000000 		.4byte	0
 9659 13d3 00000000 		.4byte	0
 9660              	.LLST88:
 9661 13d7 06020000 		.4byte	.LVL88
 9662 13db 33070000 		.4byte	.LVL285-1
 9663 13df 0300     		.2byte	0x3
 9664 13e1 91       		.byte	0x91
 9665 13e2 AC7F     		.sleb128 -84
 9666 13e4 00000000 		.4byte	0
 9667 13e8 00000000 		.4byte	0
ARM GAS  C:\Users\atsu\AppData\Local\Temp\ccFWVBKl.s 			page 183


 9668              	.LLST89:
 9669 13ec 06020000 		.4byte	.LVL88
 9670 13f0 2E020000 		.4byte	.LVL93
 9671 13f4 0100     		.2byte	0x1
 9672 13f6 55       		.byte	0x55
 9673 13f7 00000000 		.4byte	0
 9674 13fb 00000000 		.4byte	0
 9675              	.LLST90:
 9676 13ff 06020000 		.4byte	.LVL88
 9677 1403 48020000 		.4byte	.LVL97
 9678 1407 0100     		.2byte	0x1
 9679 1409 52       		.byte	0x52
 9680 140a 00000000 		.4byte	0
 9681 140e 00000000 		.4byte	0
 9682              	.LLST91:
 9683 1412 06020000 		.4byte	.LVL88
 9684 1416 64020000 		.4byte	.LVL101
 9685 141a 0100     		.2byte	0x1
 9686 141c 50       		.byte	0x50
 9687 141d 00000000 		.4byte	0
 9688 1421 00000000 		.4byte	0
 9689              	.LLST92:
 9690 1425 06020000 		.4byte	.LVL88
 9691 1429 16020000 		.4byte	.LVL89
 9692 142d 0100     		.2byte	0x1
 9693 142f 56       		.byte	0x56
 9694 1430 1C020000 		.4byte	.LVL90
 9695 1434 22020000 		.4byte	.LVL91
 9696 1438 0D00     		.2byte	0xd
 9697 143a 77       		.byte	0x77
 9698 143b 00       		.sleb128 0
 9699 143c 4B       		.byte	0x4b
 9700 143d 14       		.byte	0x14
 9701 143e 14       		.byte	0x14
 9702 143f 1F       		.byte	0x1f
 9703 1440 23       		.byte	0x23
 9704 1441 20       		.uleb128 0x20
 9705 1442 24       		.byte	0x24
 9706 1443 17       		.byte	0x17
 9707 1444 25       		.byte	0x25
 9708 1445 21       		.byte	0x21
 9709 1446 9F       		.byte	0x9f
 9710 1447 22020000 		.4byte	.LVL91
 9711 144b 7E020000 		.4byte	.LVL105
 9712 144f 0100     		.2byte	0x1
 9713 1451 57       		.byte	0x57
 9714 1452 00000000 		.4byte	0
 9715 1456 00000000 		.4byte	0
 9716              	.LLST93:
 9717 145a 24020000 		.4byte	.LVL92
 9718 145e 33070000 		.4byte	.LVL285-1
 9719 1462 0200     		.2byte	0x2
 9720 1464 91       		.byte	0x91
 9721 1465 40       		.sleb128 -64
 9722 1466 00000000 		.4byte	0
 9723 146a 00000000 		.4byte	0
 9724              	.LLST94:
ARM GAS  C:\Users\atsu\AppData\Local\Temp\ccFWVBKl.s 			page 184


 9725 146e 24020000 		.4byte	.LVL92
 9726 1472 48020000 		.4byte	.LVL97
 9727 1476 0100     		.2byte	0x1
 9728 1478 52       		.byte	0x52
 9729 1479 00000000 		.4byte	0
 9730 147d 00000000 		.4byte	0
 9731              	.LLST95:
 9732 1481 24020000 		.4byte	.LVL92
 9733 1485 64020000 		.4byte	.LVL101
 9734 1489 0100     		.2byte	0x1
 9735 148b 50       		.byte	0x50
 9736 148c 00000000 		.4byte	0
 9737 1490 00000000 		.4byte	0
 9738              	.LLST96:
 9739 1494 24020000 		.4byte	.LVL92
 9740 1498 7E020000 		.4byte	.LVL105
 9741 149c 0100     		.2byte	0x1
 9742 149e 57       		.byte	0x57
 9743 149f 00000000 		.4byte	0
 9744 14a3 00000000 		.4byte	0
 9745              	.LLST97:
 9746 14a7 24020000 		.4byte	.LVL92
 9747 14ab 2E020000 		.4byte	.LVL93
 9748 14af 0100     		.2byte	0x1
 9749 14b1 55       		.byte	0x55
 9750 14b2 34020000 		.4byte	.LVL94
 9751 14b6 3A020000 		.4byte	.LVL95
 9752 14ba 0D00     		.2byte	0xd
 9753 14bc 74       		.byte	0x74
 9754 14bd 00       		.sleb128 0
 9755 14be 47       		.byte	0x47
 9756 14bf 14       		.byte	0x14
 9757 14c0 14       		.byte	0x14
 9758 14c1 1F       		.byte	0x1f
 9759 14c2 23       		.byte	0x23
 9760 14c3 20       		.uleb128 0x20
 9761 14c4 24       		.byte	0x24
 9762 14c5 17       		.byte	0x17
 9763 14c6 25       		.byte	0x25
 9764 14c7 21       		.byte	0x21
 9765 14c8 9F       		.byte	0x9f
 9766 14c9 3A020000 		.4byte	.LVL95
 9767 14cd 3C020000 		.4byte	.LVL96
 9768 14d1 0100     		.2byte	0x1
 9769 14d3 54       		.byte	0x54
 9770 14d4 3C020000 		.4byte	.LVL96
 9771 14d8 9C020000 		.4byte	.LVL109
 9772 14dc 0100     		.2byte	0x1
 9773 14de 51       		.byte	0x51
 9774 14df 00000000 		.4byte	0
 9775 14e3 00000000 		.4byte	0
 9776              	.LLST98:
 9777 14e7 3C020000 		.4byte	.LVL96
 9778 14eb 33070000 		.4byte	.LVL285-1
 9779 14ef 0200     		.2byte	0x2
 9780 14f1 91       		.byte	0x91
 9781 14f2 54       		.sleb128 -44
ARM GAS  C:\Users\atsu\AppData\Local\Temp\ccFWVBKl.s 			page 185


 9782 14f3 00000000 		.4byte	0
 9783 14f7 00000000 		.4byte	0
 9784              	.LLST99:
 9785 14fb 3C020000 		.4byte	.LVL96
 9786 14ff 64020000 		.4byte	.LVL101
 9787 1503 0100     		.2byte	0x1
 9788 1505 50       		.byte	0x50
 9789 1506 00000000 		.4byte	0
 9790 150a 00000000 		.4byte	0
 9791              	.LLST100:
 9792 150e 3C020000 		.4byte	.LVL96
 9793 1512 7E020000 		.4byte	.LVL105
 9794 1516 0100     		.2byte	0x1
 9795 1518 57       		.byte	0x57
 9796 1519 00000000 		.4byte	0
 9797 151d 00000000 		.4byte	0
 9798              	.LLST101:
 9799 1521 3C020000 		.4byte	.LVL96
 9800 1525 9C020000 		.4byte	.LVL109
 9801 1529 0100     		.2byte	0x1
 9802 152b 51       		.byte	0x51
 9803 152c 00000000 		.4byte	0
 9804 1530 00000000 		.4byte	0
 9805              	.LLST102:
 9806 1534 3C020000 		.4byte	.LVL96
 9807 1538 48020000 		.4byte	.LVL97
 9808 153c 0100     		.2byte	0x1
 9809 153e 52       		.byte	0x52
 9810 153f 4E020000 		.4byte	.LVL98
 9811 1543 54020000 		.4byte	.LVL99
 9812 1547 0D00     		.2byte	0xd
 9813 1549 75       		.byte	0x75
 9814 154a 00       		.sleb128 0
 9815 154b 42       		.byte	0x42
 9816 154c 14       		.byte	0x14
 9817 154d 14       		.byte	0x14
 9818 154e 1F       		.byte	0x1f
 9819 154f 23       		.byte	0x23
 9820 1550 20       		.uleb128 0x20
 9821 1551 24       		.byte	0x24
 9822 1552 17       		.byte	0x17
 9823 1553 25       		.byte	0x25
 9824 1554 21       		.byte	0x21
 9825 1555 9F       		.byte	0x9f
 9826 1556 54020000 		.4byte	.LVL99
 9827 155a 56020000 		.4byte	.LVL100
 9828 155e 0100     		.2byte	0x1
 9829 1560 55       		.byte	0x55
 9830 1561 56020000 		.4byte	.LVL100
 9831 1565 B8020000 		.4byte	.LVL113
 9832 1569 0100     		.2byte	0x1
 9833 156b 52       		.byte	0x52
 9834 156c 00000000 		.4byte	0
 9835 1570 00000000 		.4byte	0
 9836              	.LLST103:
 9837 1574 56020000 		.4byte	.LVL100
 9838 1578 2E070000 		.4byte	.LVL284
ARM GAS  C:\Users\atsu\AppData\Local\Temp\ccFWVBKl.s 			page 186


 9839 157c 0300     		.2byte	0x3
 9840 157e 91       		.byte	0x91
 9841 157f A87F     		.sleb128 -88
 9842 1581 2E070000 		.4byte	.LVL284
 9843 1585 33070000 		.4byte	.LVL285-1
 9844 1589 0200     		.2byte	0x2
 9845 158b 70       		.byte	0x70
 9846 158c 00       		.sleb128 0
 9847 158d 00000000 		.4byte	0
 9848 1591 00000000 		.4byte	0
 9849              	.LLST104:
 9850 1595 56020000 		.4byte	.LVL100
 9851 1599 7E020000 		.4byte	.LVL105
 9852 159d 0100     		.2byte	0x1
 9853 159f 57       		.byte	0x57
 9854 15a0 00000000 		.4byte	0
 9855 15a4 00000000 		.4byte	0
 9856              	.LLST105:
 9857 15a8 56020000 		.4byte	.LVL100
 9858 15ac 9C020000 		.4byte	.LVL109
 9859 15b0 0100     		.2byte	0x1
 9860 15b2 51       		.byte	0x51
 9861 15b3 00000000 		.4byte	0
 9862 15b7 00000000 		.4byte	0
 9863              	.LLST106:
 9864 15bb 56020000 		.4byte	.LVL100
 9865 15bf B8020000 		.4byte	.LVL113
 9866 15c3 0100     		.2byte	0x1
 9867 15c5 52       		.byte	0x52
 9868 15c6 00000000 		.4byte	0
 9869 15ca 00000000 		.4byte	0
 9870              	.LLST107:
 9871 15ce 56020000 		.4byte	.LVL100
 9872 15d2 64020000 		.4byte	.LVL101
 9873 15d6 0100     		.2byte	0x1
 9874 15d8 50       		.byte	0x50
 9875 15d9 66020000 		.4byte	.LVL102
 9876 15dd 6C020000 		.4byte	.LVL103
 9877 15e1 0D00     		.2byte	0xd
 9878 15e3 70       		.byte	0x70
 9879 15e4 00       		.sleb128 0
 9880 15e5 3C       		.byte	0x3c
 9881 15e6 14       		.byte	0x14
 9882 15e7 14       		.byte	0x14
 9883 15e8 1F       		.byte	0x1f
 9884 15e9 23       		.byte	0x23
 9885 15ea 20       		.uleb128 0x20
 9886 15eb 24       		.byte	0x24
 9887 15ec 17       		.byte	0x17
 9888 15ed 25       		.byte	0x25
 9889 15ee 21       		.byte	0x21
 9890 15ef 9F       		.byte	0x9f
 9891 15f0 6C020000 		.4byte	.LVL103
 9892 15f4 6E020000 		.4byte	.LVL104
 9893 15f8 0100     		.2byte	0x1
 9894 15fa 50       		.byte	0x50
 9895 15fb 6E020000 		.4byte	.LVL104
ARM GAS  C:\Users\atsu\AppData\Local\Temp\ccFWVBKl.s 			page 187


 9896 15ff D2020000 		.4byte	.LVL117
 9897 1603 0100     		.2byte	0x1
 9898 1605 53       		.byte	0x53
 9899 1606 00000000 		.4byte	0
 9900 160a 00000000 		.4byte	0
 9901              	.LLST108:
 9902 160e 6E020000 		.4byte	.LVL104
 9903 1612 33070000 		.4byte	.LVL285-1
 9904 1616 0300     		.2byte	0x3
 9905 1618 91       		.byte	0x91
 9906 1619 BC7F     		.sleb128 -68
 9907 161b 00000000 		.4byte	0
 9908 161f 00000000 		.4byte	0
 9909              	.LLST109:
 9910 1623 6E020000 		.4byte	.LVL104
 9911 1627 9C020000 		.4byte	.LVL109
 9912 162b 0100     		.2byte	0x1
 9913 162d 51       		.byte	0x51
 9914 162e 00000000 		.4byte	0
 9915 1632 00000000 		.4byte	0
 9916              	.LLST110:
 9917 1636 6E020000 		.4byte	.LVL104
 9918 163a B8020000 		.4byte	.LVL113
 9919 163e 0100     		.2byte	0x1
 9920 1640 52       		.byte	0x52
 9921 1641 00000000 		.4byte	0
 9922 1645 00000000 		.4byte	0
 9923              	.LLST111:
 9924 1649 6E020000 		.4byte	.LVL104
 9925 164d D2020000 		.4byte	.LVL117
 9926 1651 0100     		.2byte	0x1
 9927 1653 53       		.byte	0x53
 9928 1654 00000000 		.4byte	0
 9929 1658 00000000 		.4byte	0
 9930              	.LLST112:
 9931 165c 6E020000 		.4byte	.LVL104
 9932 1660 7E020000 		.4byte	.LVL105
 9933 1664 0100     		.2byte	0x1
 9934 1666 57       		.byte	0x57
 9935 1667 82020000 		.4byte	.LVL106
 9936 166b 86020000 		.4byte	.LVL107
 9937 166f 0D00     		.2byte	0xd
 9938 1671 74       		.byte	0x74
 9939 1672 00       		.sleb128 0
 9940 1673 4B       		.byte	0x4b
 9941 1674 14       		.byte	0x14
 9942 1675 14       		.byte	0x14
 9943 1676 1F       		.byte	0x1f
 9944 1677 23       		.byte	0x23
 9945 1678 20       		.uleb128 0x20
 9946 1679 24       		.byte	0x24
 9947 167a 17       		.byte	0x17
 9948 167b 25       		.byte	0x25
 9949 167c 21       		.byte	0x21
 9950 167d 9F       		.byte	0x9f
 9951 167e 86020000 		.4byte	.LVL107
 9952 1682 88020000 		.4byte	.LVL108
ARM GAS  C:\Users\atsu\AppData\Local\Temp\ccFWVBKl.s 			page 188


 9953 1686 0100     		.2byte	0x1
 9954 1688 54       		.byte	0x54
 9955 1689 88020000 		.4byte	.LVL108
 9956 168d EC020000 		.4byte	.LVL121
 9957 1691 0100     		.2byte	0x1
 9958 1693 50       		.byte	0x50
 9959 1694 00000000 		.4byte	0
 9960 1698 00000000 		.4byte	0
 9961              	.LLST113:
 9962 169c 88020000 		.4byte	.LVL108
 9963 16a0 33070000 		.4byte	.LVL285-1
 9964 16a4 0200     		.2byte	0x2
 9965 16a6 91       		.byte	0x91
 9966 16a7 50       		.sleb128 -48
 9967 16a8 00000000 		.4byte	0
 9968 16ac 00000000 		.4byte	0
 9969              	.LLST114:
 9970 16b0 88020000 		.4byte	.LVL108
 9971 16b4 B8020000 		.4byte	.LVL113
 9972 16b8 0100     		.2byte	0x1
 9973 16ba 52       		.byte	0x52
 9974 16bb 00000000 		.4byte	0
 9975 16bf 00000000 		.4byte	0
 9976              	.LLST115:
 9977 16c3 88020000 		.4byte	.LVL108
 9978 16c7 D2020000 		.4byte	.LVL117
 9979 16cb 0100     		.2byte	0x1
 9980 16cd 53       		.byte	0x53
 9981 16ce 00000000 		.4byte	0
 9982 16d2 00000000 		.4byte	0
 9983              	.LLST116:
 9984 16d6 88020000 		.4byte	.LVL108
 9985 16da EC020000 		.4byte	.LVL121
 9986 16de 0100     		.2byte	0x1
 9987 16e0 50       		.byte	0x50
 9988 16e1 00000000 		.4byte	0
 9989 16e5 00000000 		.4byte	0
 9990              	.LLST117:
 9991 16e9 88020000 		.4byte	.LVL108
 9992 16ed 9C020000 		.4byte	.LVL109
 9993 16f1 0100     		.2byte	0x1
 9994 16f3 51       		.byte	0x51
 9995 16f4 A0020000 		.4byte	.LVL110
 9996 16f8 A4020000 		.4byte	.LVL111
 9997 16fc 0D00     		.2byte	0xd
 9998 16fe 71       		.byte	0x71
 9999 16ff 00       		.sleb128 0
 10000 1700 47       		.byte	0x47
 10001 1701 14       		.byte	0x14
 10002 1702 14       		.byte	0x14
 10003 1703 1F       		.byte	0x1f
 10004 1704 23       		.byte	0x23
 10005 1705 20       		.uleb128 0x20
 10006 1706 24       		.byte	0x24
 10007 1707 17       		.byte	0x17
 10008 1708 25       		.byte	0x25
 10009 1709 21       		.byte	0x21
ARM GAS  C:\Users\atsu\AppData\Local\Temp\ccFWVBKl.s 			page 189


 10010 170a 9F       		.byte	0x9f
 10011 170b A4020000 		.4byte	.LVL111
 10012 170f 02030000 		.4byte	.LVL125
 10013 1713 0100     		.2byte	0x1
 10014 1715 51       		.byte	0x51
 10015 1716 00000000 		.4byte	0
 10016 171a 00000000 		.4byte	0
 10017              	.LLST118:
 10018 171e AA020000 		.4byte	.LVL112
 10019 1722 33070000 		.4byte	.LVL285-1
 10020 1726 0200     		.2byte	0x2
 10021 1728 91       		.byte	0x91
 10022 1729 64       		.sleb128 -28
 10023 172a 00000000 		.4byte	0
 10024 172e 00000000 		.4byte	0
 10025              	.LLST119:
 10026 1732 AA020000 		.4byte	.LVL112
 10027 1736 D2020000 		.4byte	.LVL117
 10028 173a 0100     		.2byte	0x1
 10029 173c 53       		.byte	0x53
 10030 173d 00000000 		.4byte	0
 10031 1741 00000000 		.4byte	0
 10032              	.LLST120:
 10033 1745 AA020000 		.4byte	.LVL112
 10034 1749 EC020000 		.4byte	.LVL121
 10035 174d 0100     		.2byte	0x1
 10036 174f 50       		.byte	0x50
 10037 1750 00000000 		.4byte	0
 10038 1754 00000000 		.4byte	0
 10039              	.LLST121:
 10040 1758 AA020000 		.4byte	.LVL112
 10041 175c 02030000 		.4byte	.LVL125
 10042 1760 0100     		.2byte	0x1
 10043 1762 51       		.byte	0x51
 10044 1763 00000000 		.4byte	0
 10045 1767 00000000 		.4byte	0
 10046              	.LLST122:
 10047 176b AA020000 		.4byte	.LVL112
 10048 176f B8020000 		.4byte	.LVL113
 10049 1773 0100     		.2byte	0x1
 10050 1775 52       		.byte	0x52
 10051 1776 BA020000 		.4byte	.LVL114
 10052 177a C0020000 		.4byte	.LVL115
 10053 177e 0D00     		.2byte	0xd
 10054 1780 72       		.byte	0x72
 10055 1781 00       		.sleb128 0
 10056 1782 42       		.byte	0x42
 10057 1783 14       		.byte	0x14
 10058 1784 14       		.byte	0x14
 10059 1785 1F       		.byte	0x1f
 10060 1786 23       		.byte	0x23
 10061 1787 20       		.uleb128 0x20
 10062 1788 24       		.byte	0x24
 10063 1789 17       		.byte	0x17
 10064 178a 25       		.byte	0x25
 10065 178b 21       		.byte	0x21
 10066 178c 9F       		.byte	0x9f
ARM GAS  C:\Users\atsu\AppData\Local\Temp\ccFWVBKl.s 			page 190


 10067 178d C0020000 		.4byte	.LVL115
 10068 1791 28030000 		.4byte	.LVL129
 10069 1795 0100     		.2byte	0x1
 10070 1797 52       		.byte	0x52
 10071 1798 00000000 		.4byte	0
 10072 179c 00000000 		.4byte	0
 10073              	.LLST123:
 10074 17a0 C4020000 		.4byte	.LVL116
 10075 17a4 33070000 		.4byte	.LVL285-1
 10076 17a8 0300     		.2byte	0x3
 10077 17aa 91       		.byte	0x91
 10078 17ab B87F     		.sleb128 -72
 10079 17ad 00000000 		.4byte	0
 10080 17b1 00000000 		.4byte	0
 10081              	.LLST124:
 10082 17b5 C4020000 		.4byte	.LVL116
 10083 17b9 EC020000 		.4byte	.LVL121
 10084 17bd 0100     		.2byte	0x1
 10085 17bf 50       		.byte	0x50
 10086 17c0 00000000 		.4byte	0
 10087 17c4 00000000 		.4byte	0
 10088              	.LLST125:
 10089 17c8 C4020000 		.4byte	.LVL116
 10090 17cc 02030000 		.4byte	.LVL125
 10091 17d0 0100     		.2byte	0x1
 10092 17d2 51       		.byte	0x51
 10093 17d3 00000000 		.4byte	0
 10094 17d7 00000000 		.4byte	0
 10095              	.LLST126:
 10096 17db C4020000 		.4byte	.LVL116
 10097 17df 28030000 		.4byte	.LVL129
 10098 17e3 0100     		.2byte	0x1
 10099 17e5 52       		.byte	0x52
 10100 17e6 00000000 		.4byte	0
 10101 17ea 00000000 		.4byte	0
 10102              	.LLST127:
 10103 17ee C4020000 		.4byte	.LVL116
 10104 17f2 D2020000 		.4byte	.LVL117
 10105 17f6 0100     		.2byte	0x1
 10106 17f8 53       		.byte	0x53
 10107 17f9 D6020000 		.4byte	.LVL118
 10108 17fd DA020000 		.4byte	.LVL119
 10109 1801 0D00     		.2byte	0xd
 10110 1803 73       		.byte	0x73
 10111 1804 00       		.sleb128 0
 10112 1805 3C       		.byte	0x3c
 10113 1806 14       		.byte	0x14
 10114 1807 14       		.byte	0x14
 10115 1808 1F       		.byte	0x1f
 10116 1809 23       		.byte	0x23
 10117 180a 20       		.uleb128 0x20
 10118 180b 24       		.byte	0x24
 10119 180c 17       		.byte	0x17
 10120 180d 25       		.byte	0x25
 10121 180e 21       		.byte	0x21
 10122 180f 9F       		.byte	0x9f
 10123 1810 DA020000 		.4byte	.LVL119
ARM GAS  C:\Users\atsu\AppData\Local\Temp\ccFWVBKl.s 			page 191


 10124 1814 42030000 		.4byte	.LVL133
 10125 1818 0100     		.2byte	0x1
 10126 181a 53       		.byte	0x53
 10127 181b 00000000 		.4byte	0
 10128 181f 00000000 		.4byte	0
 10129              	.LLST128:
 10130 1823 DE020000 		.4byte	.LVL120
 10131 1827 33070000 		.4byte	.LVL285-1
 10132 182b 0200     		.2byte	0x2
 10133 182d 91       		.byte	0x91
 10134 182e 4C       		.sleb128 -52
 10135 182f 00000000 		.4byte	0
 10136 1833 00000000 		.4byte	0
 10137              	.LLST129:
 10138 1837 DE020000 		.4byte	.LVL120
 10139 183b 02030000 		.4byte	.LVL125
 10140 183f 0100     		.2byte	0x1
 10141 1841 51       		.byte	0x51
 10142 1842 00000000 		.4byte	0
 10143 1846 00000000 		.4byte	0
 10144              	.LLST130:
 10145 184a DE020000 		.4byte	.LVL120
 10146 184e 28030000 		.4byte	.LVL129
 10147 1852 0100     		.2byte	0x1
 10148 1854 52       		.byte	0x52
 10149 1855 00000000 		.4byte	0
 10150 1859 00000000 		.4byte	0
 10151              	.LLST131:
 10152 185d DE020000 		.4byte	.LVL120
 10153 1861 42030000 		.4byte	.LVL133
 10154 1865 0100     		.2byte	0x1
 10155 1867 53       		.byte	0x53
 10156 1868 00000000 		.4byte	0
 10157 186c 00000000 		.4byte	0
 10158              	.LLST132:
 10159 1870 DE020000 		.4byte	.LVL120
 10160 1874 EC020000 		.4byte	.LVL121
 10161 1878 0100     		.2byte	0x1
 10162 187a 50       		.byte	0x50
 10163 187b EE020000 		.4byte	.LVL122
 10164 187f F4020000 		.4byte	.LVL123
 10165 1883 0D00     		.2byte	0xd
 10166 1885 70       		.byte	0x70
 10167 1886 00       		.sleb128 0
 10168 1887 4B       		.byte	0x4b
 10169 1888 14       		.byte	0x14
 10170 1889 14       		.byte	0x14
 10171 188a 1F       		.byte	0x1f
 10172 188b 23       		.byte	0x23
 10173 188c 20       		.uleb128 0x20
 10174 188d 24       		.byte	0x24
 10175 188e 17       		.byte	0x17
 10176 188f 25       		.byte	0x25
 10177 1890 21       		.byte	0x21
 10178 1891 9F       		.byte	0x9f
 10179 1892 F4020000 		.4byte	.LVL123
 10180 1896 5C030000 		.4byte	.LVL137
ARM GAS  C:\Users\atsu\AppData\Local\Temp\ccFWVBKl.s 			page 192


 10181 189a 0100     		.2byte	0x1
 10182 189c 50       		.byte	0x50
 10183 189d 00000000 		.4byte	0
 10184 18a1 00000000 		.4byte	0
 10185              	.LLST133:
 10186 18a5 F8020000 		.4byte	.LVL124
 10187 18a9 33070000 		.4byte	.LVL285-1
 10188 18ad 0200     		.2byte	0x2
 10189 18af 91       		.byte	0x91
 10190 18b0 60       		.sleb128 -32
 10191 18b1 00000000 		.4byte	0
 10192 18b5 00000000 		.4byte	0
 10193              	.LLST134:
 10194 18b9 F8020000 		.4byte	.LVL124
 10195 18bd 28030000 		.4byte	.LVL129
 10196 18c1 0100     		.2byte	0x1
 10197 18c3 52       		.byte	0x52
 10198 18c4 00000000 		.4byte	0
 10199 18c8 00000000 		.4byte	0
 10200              	.LLST135:
 10201 18cc F8020000 		.4byte	.LVL124
 10202 18d0 42030000 		.4byte	.LVL133
 10203 18d4 0100     		.2byte	0x1
 10204 18d6 53       		.byte	0x53
 10205 18d7 00000000 		.4byte	0
 10206 18db 00000000 		.4byte	0
 10207              	.LLST136:
 10208 18df F8020000 		.4byte	.LVL124
 10209 18e3 5C030000 		.4byte	.LVL137
 10210 18e7 0100     		.2byte	0x1
 10211 18e9 50       		.byte	0x50
 10212 18ea 00000000 		.4byte	0
 10213 18ee 00000000 		.4byte	0
 10214              	.LLST137:
 10215 18f2 F8020000 		.4byte	.LVL124
 10216 18f6 02030000 		.4byte	.LVL125
 10217 18fa 0100     		.2byte	0x1
 10218 18fc 51       		.byte	0x51
 10219 18fd 0E030000 		.4byte	.LVL126
 10220 1901 14030000 		.4byte	.LVL127
 10221 1905 0D00     		.2byte	0xd
 10222 1907 71       		.byte	0x71
 10223 1908 00       		.sleb128 0
 10224 1909 47       		.byte	0x47
 10225 190a 14       		.byte	0x14
 10226 190b 14       		.byte	0x14
 10227 190c 1F       		.byte	0x1f
 10228 190d 23       		.byte	0x23
 10229 190e 20       		.uleb128 0x20
 10230 190f 24       		.byte	0x24
 10231 1910 17       		.byte	0x17
 10232 1911 25       		.byte	0x25
 10233 1912 21       		.byte	0x21
 10234 1913 9F       		.byte	0x9f
 10235 1914 14030000 		.4byte	.LVL127
 10236 1918 72030000 		.4byte	.LVL141
 10237 191c 0100     		.2byte	0x1
ARM GAS  C:\Users\atsu\AppData\Local\Temp\ccFWVBKl.s 			page 193


 10238 191e 51       		.byte	0x51
 10239 191f 00000000 		.4byte	0
 10240 1923 00000000 		.4byte	0
 10241              	.LLST138:
 10242 1927 1A030000 		.4byte	.LVL128
 10243 192b 33070000 		.4byte	.LVL285-1
 10244 192f 0300     		.2byte	0x3
 10245 1931 91       		.byte	0x91
 10246 1932 B47F     		.sleb128 -76
 10247 1934 00000000 		.4byte	0
 10248 1938 00000000 		.4byte	0
 10249              	.LLST139:
 10250 193c 1A030000 		.4byte	.LVL128
 10251 1940 42030000 		.4byte	.LVL133
 10252 1944 0100     		.2byte	0x1
 10253 1946 53       		.byte	0x53
 10254 1947 00000000 		.4byte	0
 10255 194b 00000000 		.4byte	0
 10256              	.LLST140:
 10257 194f 1A030000 		.4byte	.LVL128
 10258 1953 5C030000 		.4byte	.LVL137
 10259 1957 0100     		.2byte	0x1
 10260 1959 50       		.byte	0x50
 10261 195a 00000000 		.4byte	0
 10262 195e 00000000 		.4byte	0
 10263              	.LLST141:
 10264 1962 1A030000 		.4byte	.LVL128
 10265 1966 72030000 		.4byte	.LVL141
 10266 196a 0100     		.2byte	0x1
 10267 196c 51       		.byte	0x51
 10268 196d 00000000 		.4byte	0
 10269 1971 00000000 		.4byte	0
 10270              	.LLST142:
 10271 1975 1A030000 		.4byte	.LVL128
 10272 1979 28030000 		.4byte	.LVL129
 10273 197d 0100     		.2byte	0x1
 10274 197f 52       		.byte	0x52
 10275 1980 2A030000 		.4byte	.LVL130
 10276 1984 30030000 		.4byte	.LVL131
 10277 1988 0D00     		.2byte	0xd
 10278 198a 72       		.byte	0x72
 10279 198b 00       		.sleb128 0
 10280 198c 42       		.byte	0x42
 10281 198d 14       		.byte	0x14
 10282 198e 14       		.byte	0x14
 10283 198f 1F       		.byte	0x1f
 10284 1990 23       		.byte	0x23
 10285 1991 20       		.uleb128 0x20
 10286 1992 24       		.byte	0x24
 10287 1993 17       		.byte	0x17
 10288 1994 25       		.byte	0x25
 10289 1995 21       		.byte	0x21
 10290 1996 9F       		.byte	0x9f
 10291 1997 30030000 		.4byte	.LVL131
 10292 199b 98030000 		.4byte	.LVL145
 10293 199f 0100     		.2byte	0x1
 10294 19a1 52       		.byte	0x52
ARM GAS  C:\Users\atsu\AppData\Local\Temp\ccFWVBKl.s 			page 194


 10295 19a2 00000000 		.4byte	0
 10296 19a6 00000000 		.4byte	0
 10297              	.LLST143:
 10298 19aa 34030000 		.4byte	.LVL132
 10299 19ae 33070000 		.4byte	.LVL285-1
 10300 19b2 0200     		.2byte	0x2
 10301 19b4 91       		.byte	0x91
 10302 19b5 48       		.sleb128 -56
 10303 19b6 00000000 		.4byte	0
 10304 19ba 00000000 		.4byte	0
 10305              	.LLST144:
 10306 19be 34030000 		.4byte	.LVL132
 10307 19c2 5C030000 		.4byte	.LVL137
 10308 19c6 0100     		.2byte	0x1
 10309 19c8 50       		.byte	0x50
 10310 19c9 00000000 		.4byte	0
 10311 19cd 00000000 		.4byte	0
 10312              	.LLST145:
 10313 19d1 34030000 		.4byte	.LVL132
 10314 19d5 72030000 		.4byte	.LVL141
 10315 19d9 0100     		.2byte	0x1
 10316 19db 51       		.byte	0x51
 10317 19dc 00000000 		.4byte	0
 10318 19e0 00000000 		.4byte	0
 10319              	.LLST146:
 10320 19e4 34030000 		.4byte	.LVL132
 10321 19e8 98030000 		.4byte	.LVL145
 10322 19ec 0100     		.2byte	0x1
 10323 19ee 52       		.byte	0x52
 10324 19ef 00000000 		.4byte	0
 10325 19f3 00000000 		.4byte	0
 10326              	.LLST147:
 10327 19f7 34030000 		.4byte	.LVL132
 10328 19fb 42030000 		.4byte	.LVL133
 10329 19ff 0100     		.2byte	0x1
 10330 1a01 53       		.byte	0x53
 10331 1a02 46030000 		.4byte	.LVL134
 10332 1a06 4A030000 		.4byte	.LVL135
 10333 1a0a 0D00     		.2byte	0xd
 10334 1a0c 73       		.byte	0x73
 10335 1a0d 00       		.sleb128 0
 10336 1a0e 3C       		.byte	0x3c
 10337 1a0f 14       		.byte	0x14
 10338 1a10 14       		.byte	0x14
 10339 1a11 1F       		.byte	0x1f
 10340 1a12 23       		.byte	0x23
 10341 1a13 20       		.uleb128 0x20
 10342 1a14 24       		.byte	0x24
 10343 1a15 17       		.byte	0x17
 10344 1a16 25       		.byte	0x25
 10345 1a17 21       		.byte	0x21
 10346 1a18 9F       		.byte	0x9f
 10347 1a19 4A030000 		.4byte	.LVL135
 10348 1a1d B0030000 		.4byte	.LVL149
 10349 1a21 0100     		.2byte	0x1
 10350 1a23 53       		.byte	0x53
 10351 1a24 00000000 		.4byte	0
ARM GAS  C:\Users\atsu\AppData\Local\Temp\ccFWVBKl.s 			page 195


 10352 1a28 00000000 		.4byte	0
 10353              	.LLST148:
 10354 1a2c 4E030000 		.4byte	.LVL136
 10355 1a30 33070000 		.4byte	.LVL285-1
 10356 1a34 0200     		.2byte	0x2
 10357 1a36 91       		.byte	0x91
 10358 1a37 5C       		.sleb128 -36
 10359 1a38 00000000 		.4byte	0
 10360 1a3c 00000000 		.4byte	0
 10361              	.LLST149:
 10362 1a40 4E030000 		.4byte	.LVL136
 10363 1a44 72030000 		.4byte	.LVL141
 10364 1a48 0100     		.2byte	0x1
 10365 1a4a 51       		.byte	0x51
 10366 1a4b 00000000 		.4byte	0
 10367 1a4f 00000000 		.4byte	0
 10368              	.LLST150:
 10369 1a53 4E030000 		.4byte	.LVL136
 10370 1a57 98030000 		.4byte	.LVL145
 10371 1a5b 0100     		.2byte	0x1
 10372 1a5d 52       		.byte	0x52
 10373 1a5e 00000000 		.4byte	0
 10374 1a62 00000000 		.4byte	0
 10375              	.LLST151:
 10376 1a66 4E030000 		.4byte	.LVL136
 10377 1a6a B0030000 		.4byte	.LVL149
 10378 1a6e 0100     		.2byte	0x1
 10379 1a70 53       		.byte	0x53
 10380 1a71 00000000 		.4byte	0
 10381 1a75 00000000 		.4byte	0
 10382              	.LLST152:
 10383 1a79 4E030000 		.4byte	.LVL136
 10384 1a7d 5C030000 		.4byte	.LVL137
 10385 1a81 0100     		.2byte	0x1
 10386 1a83 50       		.byte	0x50
 10387 1a84 5E030000 		.4byte	.LVL138
 10388 1a88 64030000 		.4byte	.LVL139
 10389 1a8c 0D00     		.2byte	0xd
 10390 1a8e 70       		.byte	0x70
 10391 1a8f 00       		.sleb128 0
 10392 1a90 4B       		.byte	0x4b
 10393 1a91 14       		.byte	0x14
 10394 1a92 14       		.byte	0x14
 10395 1a93 1F       		.byte	0x1f
 10396 1a94 23       		.byte	0x23
 10397 1a95 20       		.uleb128 0x20
 10398 1a96 24       		.byte	0x24
 10399 1a97 17       		.byte	0x17
 10400 1a98 25       		.byte	0x25
 10401 1a99 21       		.byte	0x21
 10402 1a9a 9F       		.byte	0x9f
 10403 1a9b 64030000 		.4byte	.LVL139
 10404 1a9f C2030000 		.4byte	.LVL153
 10405 1aa3 0100     		.2byte	0x1
 10406 1aa5 50       		.byte	0x50
 10407 1aa6 00000000 		.4byte	0
 10408 1aaa 00000000 		.4byte	0
ARM GAS  C:\Users\atsu\AppData\Local\Temp\ccFWVBKl.s 			page 196


 10409              	.LLST153:
 10410 1aae 68030000 		.4byte	.LVL140
 10411 1ab2 33070000 		.4byte	.LVL285-1
 10412 1ab6 0300     		.2byte	0x3
 10413 1ab8 91       		.byte	0x91
 10414 1ab9 B07F     		.sleb128 -80
 10415 1abb 00000000 		.4byte	0
 10416 1abf 00000000 		.4byte	0
 10417              	.LLST154:
 10418 1ac3 68030000 		.4byte	.LVL140
 10419 1ac7 98030000 		.4byte	.LVL145
 10420 1acb 0100     		.2byte	0x1
 10421 1acd 52       		.byte	0x52
 10422 1ace 00000000 		.4byte	0
 10423 1ad2 00000000 		.4byte	0
 10424              	.LLST155:
 10425 1ad6 68030000 		.4byte	.LVL140
 10426 1ada B0030000 		.4byte	.LVL149
 10427 1ade 0100     		.2byte	0x1
 10428 1ae0 53       		.byte	0x53
 10429 1ae1 00000000 		.4byte	0
 10430 1ae5 00000000 		.4byte	0
 10431              	.LLST156:
 10432 1ae9 68030000 		.4byte	.LVL140
 10433 1aed C2030000 		.4byte	.LVL153
 10434 1af1 0100     		.2byte	0x1
 10435 1af3 50       		.byte	0x50
 10436 1af4 00000000 		.4byte	0
 10437 1af8 00000000 		.4byte	0
 10438              	.LLST157:
 10439 1afc 68030000 		.4byte	.LVL140
 10440 1b00 72030000 		.4byte	.LVL141
 10441 1b04 0100     		.2byte	0x1
 10442 1b06 51       		.byte	0x51
 10443 1b07 7E030000 		.4byte	.LVL142
 10444 1b0b 84030000 		.4byte	.LVL143
 10445 1b0f 0D00     		.2byte	0xd
 10446 1b11 71       		.byte	0x71
 10447 1b12 00       		.sleb128 0
 10448 1b13 47       		.byte	0x47
 10449 1b14 14       		.byte	0x14
 10450 1b15 14       		.byte	0x14
 10451 1b16 1F       		.byte	0x1f
 10452 1b17 23       		.byte	0x23
 10453 1b18 20       		.uleb128 0x20
 10454 1b19 24       		.byte	0x24
 10455 1b1a 17       		.byte	0x17
 10456 1b1b 25       		.byte	0x25
 10457 1b1c 21       		.byte	0x21
 10458 1b1d 9F       		.byte	0x9f
 10459 1b1e 84030000 		.4byte	.LVL143
 10460 1b22 D8030000 		.4byte	.LVL157
 10461 1b26 0100     		.2byte	0x1
 10462 1b28 51       		.byte	0x51
 10463 1b29 00000000 		.4byte	0
 10464 1b2d 00000000 		.4byte	0
 10465              	.LLST158:
ARM GAS  C:\Users\atsu\AppData\Local\Temp\ccFWVBKl.s 			page 197


 10466 1b31 8A030000 		.4byte	.LVL144
 10467 1b35 33070000 		.4byte	.LVL285-1
 10468 1b39 0200     		.2byte	0x2
 10469 1b3b 91       		.byte	0x91
 10470 1b3c 44       		.sleb128 -60
 10471 1b3d 00000000 		.4byte	0
 10472 1b41 00000000 		.4byte	0
 10473              	.LLST159:
 10474 1b45 8A030000 		.4byte	.LVL144
 10475 1b49 B0030000 		.4byte	.LVL149
 10476 1b4d 0100     		.2byte	0x1
 10477 1b4f 53       		.byte	0x53
 10478 1b50 00000000 		.4byte	0
 10479 1b54 00000000 		.4byte	0
 10480              	.LLST160:
 10481 1b58 8A030000 		.4byte	.LVL144
 10482 1b5c C2030000 		.4byte	.LVL153
 10483 1b60 0100     		.2byte	0x1
 10484 1b62 50       		.byte	0x50
 10485 1b63 00000000 		.4byte	0
 10486 1b67 00000000 		.4byte	0
 10487              	.LLST161:
 10488 1b6b 8A030000 		.4byte	.LVL144
 10489 1b6f D8030000 		.4byte	.LVL157
 10490 1b73 0100     		.2byte	0x1
 10491 1b75 51       		.byte	0x51
 10492 1b76 00000000 		.4byte	0
 10493 1b7a 00000000 		.4byte	0
 10494              	.LLST162:
 10495 1b7e 8A030000 		.4byte	.LVL144
 10496 1b82 98030000 		.4byte	.LVL145
 10497 1b86 0100     		.2byte	0x1
 10498 1b88 52       		.byte	0x52
 10499 1b89 9A030000 		.4byte	.LVL146
 10500 1b8d 9C030000 		.4byte	.LVL147
 10501 1b91 0D00     		.2byte	0xd
 10502 1b93 72       		.byte	0x72
 10503 1b94 00       		.sleb128 0
 10504 1b95 42       		.byte	0x42
 10505 1b96 14       		.byte	0x14
 10506 1b97 14       		.byte	0x14
 10507 1b98 1F       		.byte	0x1f
 10508 1b99 23       		.byte	0x23
 10509 1b9a 20       		.uleb128 0x20
 10510 1b9b 24       		.byte	0x24
 10511 1b9c 17       		.byte	0x17
 10512 1b9d 25       		.byte	0x25
 10513 1b9e 21       		.byte	0x21
 10514 1b9f 9F       		.byte	0x9f
 10515 1ba0 9C030000 		.4byte	.LVL147
 10516 1ba4 EE030000 		.4byte	.LVL161
 10517 1ba8 0100     		.2byte	0x1
 10518 1baa 52       		.byte	0x52
 10519 1bab 00000000 		.4byte	0
 10520 1baf 00000000 		.4byte	0
 10521              	.LLST163:
 10522 1bb3 A2030000 		.4byte	.LVL148
ARM GAS  C:\Users\atsu\AppData\Local\Temp\ccFWVBKl.s 			page 198


 10523 1bb7 33070000 		.4byte	.LVL285-1
 10524 1bbb 0200     		.2byte	0x2
 10525 1bbd 91       		.byte	0x91
 10526 1bbe 58       		.sleb128 -40
 10527 1bbf 00000000 		.4byte	0
 10528 1bc3 00000000 		.4byte	0
 10529              	.LLST164:
 10530 1bc7 A2030000 		.4byte	.LVL148
 10531 1bcb C2030000 		.4byte	.LVL153
 10532 1bcf 0100     		.2byte	0x1
 10533 1bd1 50       		.byte	0x50
 10534 1bd2 00000000 		.4byte	0
 10535 1bd6 00000000 		.4byte	0
 10536              	.LLST165:
 10537 1bda A2030000 		.4byte	.LVL148
 10538 1bde D8030000 		.4byte	.LVL157
 10539 1be2 0100     		.2byte	0x1
 10540 1be4 51       		.byte	0x51
 10541 1be5 00000000 		.4byte	0
 10542 1be9 00000000 		.4byte	0
 10543              	.LLST166:
 10544 1bed A2030000 		.4byte	.LVL148
 10545 1bf1 EE030000 		.4byte	.LVL161
 10546 1bf5 0100     		.2byte	0x1
 10547 1bf7 52       		.byte	0x52
 10548 1bf8 00000000 		.4byte	0
 10549 1bfc 00000000 		.4byte	0
 10550              	.LLST167:
 10551 1c00 A2030000 		.4byte	.LVL148
 10552 1c04 B0030000 		.4byte	.LVL149
 10553 1c08 0100     		.2byte	0x1
 10554 1c0a 53       		.byte	0x53
 10555 1c0b B2030000 		.4byte	.LVL150
 10556 1c0f B4030000 		.4byte	.LVL151
 10557 1c13 0D00     		.2byte	0xd
 10558 1c15 77       		.byte	0x77
 10559 1c16 00       		.sleb128 0
 10560 1c17 3C       		.byte	0x3c
 10561 1c18 14       		.byte	0x14
 10562 1c19 14       		.byte	0x14
 10563 1c1a 1F       		.byte	0x1f
 10564 1c1b 23       		.byte	0x23
 10565 1c1c 20       		.uleb128 0x20
 10566 1c1d 24       		.byte	0x24
 10567 1c1e 17       		.byte	0x17
 10568 1c1f 25       		.byte	0x25
 10569 1c20 21       		.byte	0x21
 10570 1c21 9F       		.byte	0x9f
 10571 1c22 B4030000 		.4byte	.LVL151
 10572 1c26 BA030000 		.4byte	.LVL152
 10573 1c2a 0100     		.2byte	0x1
 10574 1c2c 57       		.byte	0x57
 10575 1c2d BA030000 		.4byte	.LVL152
 10576 1c31 06040000 		.4byte	.LVL165
 10577 1c35 0100     		.2byte	0x1
 10578 1c37 53       		.byte	0x53
 10579 1c38 00000000 		.4byte	0
ARM GAS  C:\Users\atsu\AppData\Local\Temp\ccFWVBKl.s 			page 199


 10580 1c3c 00000000 		.4byte	0
 10581              	.LLST168:
 10582 1c40 BA030000 		.4byte	.LVL152
 10583 1c44 33070000 		.4byte	.LVL285-1
 10584 1c48 0300     		.2byte	0x3
 10585 1c4a 91       		.byte	0x91
 10586 1c4b BC7F     		.sleb128 -68
 10587 1c4d 00000000 		.4byte	0
 10588 1c51 00000000 		.4byte	0
 10589              	.LLST169:
 10590 1c55 BA030000 		.4byte	.LVL152
 10591 1c59 D8030000 		.4byte	.LVL157
 10592 1c5d 0100     		.2byte	0x1
 10593 1c5f 51       		.byte	0x51
 10594 1c60 00000000 		.4byte	0
 10595 1c64 00000000 		.4byte	0
 10596              	.LLST170:
 10597 1c68 BA030000 		.4byte	.LVL152
 10598 1c6c EE030000 		.4byte	.LVL161
 10599 1c70 0100     		.2byte	0x1
 10600 1c72 52       		.byte	0x52
 10601 1c73 00000000 		.4byte	0
 10602 1c77 00000000 		.4byte	0
 10603              	.LLST171:
 10604 1c7b BA030000 		.4byte	.LVL152
 10605 1c7f 06040000 		.4byte	.LVL165
 10606 1c83 0100     		.2byte	0x1
 10607 1c85 53       		.byte	0x53
 10608 1c86 00000000 		.4byte	0
 10609 1c8a 00000000 		.4byte	0
 10610              	.LLST172:
 10611 1c8e BA030000 		.4byte	.LVL152
 10612 1c92 C2030000 		.4byte	.LVL153
 10613 1c96 0100     		.2byte	0x1
 10614 1c98 50       		.byte	0x50
 10615 1c99 C8030000 		.4byte	.LVL154
 10616 1c9d CE030000 		.4byte	.LVL155
 10617 1ca1 0D00     		.2byte	0xd
 10618 1ca3 75       		.byte	0x75
 10619 1ca4 00       		.sleb128 0
 10620 1ca5 4C       		.byte	0x4c
 10621 1ca6 14       		.byte	0x14
 10622 1ca7 14       		.byte	0x14
 10623 1ca8 1F       		.byte	0x1f
 10624 1ca9 23       		.byte	0x23
 10625 1caa 20       		.uleb128 0x20
 10626 1cab 24       		.byte	0x24
 10627 1cac 17       		.byte	0x17
 10628 1cad 25       		.byte	0x25
 10629 1cae 21       		.byte	0x21
 10630 1caf 9F       		.byte	0x9f
 10631 1cb0 CE030000 		.4byte	.LVL155
 10632 1cb4 D2030000 		.4byte	.LVL156
 10633 1cb8 0100     		.2byte	0x1
 10634 1cba 55       		.byte	0x55
 10635 1cbb D2030000 		.4byte	.LVL156
 10636 1cbf 1A040000 		.4byte	.LVL168
ARM GAS  C:\Users\atsu\AppData\Local\Temp\ccFWVBKl.s 			page 200


 10637 1cc3 0100     		.2byte	0x1
 10638 1cc5 50       		.byte	0x50
 10639 1cc6 00000000 		.4byte	0
 10640 1cca 00000000 		.4byte	0
 10641              	.LLST173:
 10642 1cce D2030000 		.4byte	.LVL156
 10643 1cd2 33070000 		.4byte	.LVL285-1
 10644 1cd6 0200     		.2byte	0x2
 10645 1cd8 91       		.byte	0x91
 10646 1cd9 48       		.sleb128 -56
 10647 1cda 00000000 		.4byte	0
 10648 1cde 00000000 		.4byte	0
 10649              	.LLST174:
 10650 1ce2 D2030000 		.4byte	.LVL156
 10651 1ce6 EE030000 		.4byte	.LVL161
 10652 1cea 0100     		.2byte	0x1
 10653 1cec 52       		.byte	0x52
 10654 1ced 00000000 		.4byte	0
 10655 1cf1 00000000 		.4byte	0
 10656              	.LLST175:
 10657 1cf5 D2030000 		.4byte	.LVL156
 10658 1cf9 06040000 		.4byte	.LVL165
 10659 1cfd 0100     		.2byte	0x1
 10660 1cff 53       		.byte	0x53
 10661 1d00 00000000 		.4byte	0
 10662 1d04 00000000 		.4byte	0
 10663              	.LLST176:
 10664 1d08 D2030000 		.4byte	.LVL156
 10665 1d0c 1A040000 		.4byte	.LVL168
 10666 1d10 0100     		.2byte	0x1
 10667 1d12 50       		.byte	0x50
 10668 1d13 00000000 		.4byte	0
 10669 1d17 00000000 		.4byte	0
 10670              	.LLST177:
 10671 1d1b D2030000 		.4byte	.LVL156
 10672 1d1f D8030000 		.4byte	.LVL157
 10673 1d23 0100     		.2byte	0x1
 10674 1d25 51       		.byte	0x51
 10675 1d26 E0030000 		.4byte	.LVL158
 10676 1d2a E4030000 		.4byte	.LVL159
 10677 1d2e 0D00     		.2byte	0xd
 10678 1d30 76       		.byte	0x76
 10679 1d31 00       		.sleb128 0
 10680 1d32 45       		.byte	0x45
 10681 1d33 14       		.byte	0x14
 10682 1d34 14       		.byte	0x14
 10683 1d35 1F       		.byte	0x1f
 10684 1d36 23       		.byte	0x23
 10685 1d37 20       		.uleb128 0x20
 10686 1d38 24       		.byte	0x24
 10687 1d39 17       		.byte	0x17
 10688 1d3a 25       		.byte	0x25
 10689 1d3b 21       		.byte	0x21
 10690 1d3c 9F       		.byte	0x9f
 10691 1d3d E4030000 		.4byte	.LVL159
 10692 1d41 E6030000 		.4byte	.LVL160
 10693 1d45 0100     		.2byte	0x1
ARM GAS  C:\Users\atsu\AppData\Local\Temp\ccFWVBKl.s 			page 201


 10694 1d47 56       		.byte	0x56
 10695 1d48 E6030000 		.4byte	.LVL160
 10696 1d4c 34040000 		.4byte	.LVL173
 10697 1d50 0100     		.2byte	0x1
 10698 1d52 51       		.byte	0x51
 10699 1d53 00000000 		.4byte	0
 10700 1d57 00000000 		.4byte	0
 10701              	.LLST178:
 10702 1d5b E6030000 		.4byte	.LVL160
 10703 1d5f 33070000 		.4byte	.LVL285-1
 10704 1d63 0200     		.2byte	0x2
 10705 1d65 91       		.byte	0x91
 10706 1d66 54       		.sleb128 -44
 10707 1d67 00000000 		.4byte	0
 10708 1d6b 00000000 		.4byte	0
 10709              	.LLST179:
 10710 1d6f E6030000 		.4byte	.LVL160
 10711 1d73 06040000 		.4byte	.LVL165
 10712 1d77 0100     		.2byte	0x1
 10713 1d79 53       		.byte	0x53
 10714 1d7a 00000000 		.4byte	0
 10715 1d7e 00000000 		.4byte	0
 10716              	.LLST180:
 10717 1d82 E6030000 		.4byte	.LVL160
 10718 1d86 1A040000 		.4byte	.LVL168
 10719 1d8a 0100     		.2byte	0x1
 10720 1d8c 50       		.byte	0x50
 10721 1d8d 00000000 		.4byte	0
 10722 1d91 00000000 		.4byte	0
 10723              	.LLST181:
 10724 1d95 E6030000 		.4byte	.LVL160
 10725 1d99 34040000 		.4byte	.LVL173
 10726 1d9d 0100     		.2byte	0x1
 10727 1d9f 51       		.byte	0x51
 10728 1da0 00000000 		.4byte	0
 10729 1da4 00000000 		.4byte	0
 10730              	.LLST182:
 10731 1da8 E6030000 		.4byte	.LVL160
 10732 1dac EE030000 		.4byte	.LVL161
 10733 1db0 0100     		.2byte	0x1
 10734 1db2 52       		.byte	0x52
 10735 1db3 F4030000 		.4byte	.LVL162
 10736 1db7 F6030000 		.4byte	.LVL163
 10737 1dbb 0D00     		.2byte	0xd
 10738 1dbd 74       		.byte	0x74
 10739 1dbe 00       		.sleb128 0
 10740 1dbf 40       		.byte	0x40
 10741 1dc0 14       		.byte	0x14
 10742 1dc1 14       		.byte	0x14
 10743 1dc2 1F       		.byte	0x1f
 10744 1dc3 23       		.byte	0x23
 10745 1dc4 20       		.uleb128 0x20
 10746 1dc5 24       		.byte	0x24
 10747 1dc6 17       		.byte	0x17
 10748 1dc7 25       		.byte	0x25
 10749 1dc8 21       		.byte	0x21
 10750 1dc9 9F       		.byte	0x9f
ARM GAS  C:\Users\atsu\AppData\Local\Temp\ccFWVBKl.s 			page 202


 10751 1dca F6030000 		.4byte	.LVL163
 10752 1dce FA030000 		.4byte	.LVL164
 10753 1dd2 0100     		.2byte	0x1
 10754 1dd4 54       		.byte	0x54
 10755 1dd5 FA030000 		.4byte	.LVL164
 10756 1dd9 E2040000 		.4byte	.LVL176
 10757 1ddd 0100     		.2byte	0x1
 10758 1ddf 52       		.byte	0x52
 10759 1de0 00000000 		.4byte	0
 10760 1de4 00000000 		.4byte	0
 10761              	.LLST183:
 10762 1de8 FA030000 		.4byte	.LVL164
 10763 1dec 33070000 		.4byte	.LVL285-1
 10764 1df0 0200     		.2byte	0x2
 10765 1df2 91       		.byte	0x91
 10766 1df3 60       		.sleb128 -32
 10767 1df4 00000000 		.4byte	0
 10768 1df8 00000000 		.4byte	0
 10769              	.LLST184:
 10770 1dfc FA030000 		.4byte	.LVL164
 10771 1e00 1A040000 		.4byte	.LVL168
 10772 1e04 0100     		.2byte	0x1
 10773 1e06 50       		.byte	0x50
 10774 1e07 00000000 		.4byte	0
 10775 1e0b 00000000 		.4byte	0
 10776              	.LLST185:
 10777 1e0f FA030000 		.4byte	.LVL164
 10778 1e13 34040000 		.4byte	.LVL173
 10779 1e17 0100     		.2byte	0x1
 10780 1e19 51       		.byte	0x51
 10781 1e1a 00000000 		.4byte	0
 10782 1e1e 00000000 		.4byte	0
 10783              	.LLST186:
 10784 1e22 FA030000 		.4byte	.LVL164
 10785 1e26 E2040000 		.4byte	.LVL176
 10786 1e2a 0100     		.2byte	0x1
 10787 1e2c 52       		.byte	0x52
 10788 1e2d 00000000 		.4byte	0
 10789 1e31 00000000 		.4byte	0
 10790              	.LLST187:
 10791 1e35 FA030000 		.4byte	.LVL164
 10792 1e39 06040000 		.4byte	.LVL165
 10793 1e3d 0100     		.2byte	0x1
 10794 1e3f 53       		.byte	0x53
 10795 1e40 10040000 		.4byte	.LVL166
 10796 1e44 18040000 		.4byte	.LVL167
 10797 1e48 0D00     		.2byte	0xd
 10798 1e4a 73       		.byte	0x73
 10799 1e4b 00       		.sleb128 0
 10800 1e4c 39       		.byte	0x39
 10801 1e4d 14       		.byte	0x14
 10802 1e4e 14       		.byte	0x14
 10803 1e4f 1F       		.byte	0x1f
 10804 1e50 23       		.byte	0x23
 10805 1e51 20       		.uleb128 0x20
 10806 1e52 24       		.byte	0x24
 10807 1e53 17       		.byte	0x17
ARM GAS  C:\Users\atsu\AppData\Local\Temp\ccFWVBKl.s 			page 203


 10808 1e54 25       		.byte	0x25
 10809 1e55 21       		.byte	0x21
 10810 1e56 9F       		.byte	0x9f
 10811 1e57 18040000 		.4byte	.LVL167
 10812 1e5b F8040000 		.4byte	.LVL180
 10813 1e5f 0100     		.2byte	0x1
 10814 1e61 53       		.byte	0x53
 10815 1e62 00000000 		.4byte	0
 10816 1e66 00000000 		.4byte	0
 10817              	.LLST188:
 10818 1e6a 1C040000 		.4byte	.LVL169
 10819 1e6e 33070000 		.4byte	.LVL285-1
 10820 1e72 0300     		.2byte	0x3
 10821 1e74 91       		.byte	0x91
 10822 1e75 AC7F     		.sleb128 -84
 10823 1e77 00000000 		.4byte	0
 10824 1e7b 00000000 		.4byte	0
 10825              	.LLST189:
 10826 1e7f 1C040000 		.4byte	.LVL169
 10827 1e83 34040000 		.4byte	.LVL173
 10828 1e87 0100     		.2byte	0x1
 10829 1e89 51       		.byte	0x51
 10830 1e8a 00000000 		.4byte	0
 10831 1e8e 00000000 		.4byte	0
 10832              	.LLST190:
 10833 1e92 1C040000 		.4byte	.LVL169
 10834 1e96 E2040000 		.4byte	.LVL176
 10835 1e9a 0100     		.2byte	0x1
 10836 1e9c 52       		.byte	0x52
 10837 1e9d 00000000 		.4byte	0
 10838 1ea1 00000000 		.4byte	0
 10839              	.LLST191:
 10840 1ea5 1C040000 		.4byte	.LVL169
 10841 1ea9 F8040000 		.4byte	.LVL180
 10842 1ead 0100     		.2byte	0x1
 10843 1eaf 53       		.byte	0x53
 10844 1eb0 00000000 		.4byte	0
 10845 1eb4 00000000 		.4byte	0
 10846              	.LLST192:
 10847 1eb8 22040000 		.4byte	.LVL170
 10848 1ebc 26040000 		.4byte	.LVL171
 10849 1ec0 0D00     		.2byte	0xd
 10850 1ec2 70       		.byte	0x70
 10851 1ec3 00       		.sleb128 0
 10852 1ec4 4C       		.byte	0x4c
 10853 1ec5 14       		.byte	0x14
 10854 1ec6 14       		.byte	0x14
 10855 1ec7 1F       		.byte	0x1f
 10856 1ec8 23       		.byte	0x23
 10857 1ec9 20       		.uleb128 0x20
 10858 1eca 24       		.byte	0x24
 10859 1ecb 17       		.byte	0x17
 10860 1ecc 25       		.byte	0x25
 10861 1ecd 21       		.byte	0x21
 10862 1ece 9F       		.byte	0x9f
 10863 1ecf 26040000 		.4byte	.LVL171
 10864 1ed3 0E050000 		.4byte	.LVL184
ARM GAS  C:\Users\atsu\AppData\Local\Temp\ccFWVBKl.s 			page 204


 10865 1ed7 0100     		.2byte	0x1
 10866 1ed9 50       		.byte	0x50
 10867 1eda 00000000 		.4byte	0
 10868 1ede 00000000 		.4byte	0
 10869              	.LLST193:
 10870 1ee2 2A040000 		.4byte	.LVL172
 10871 1ee6 33070000 		.4byte	.LVL285-1
 10872 1eea 0300     		.2byte	0x3
 10873 1eec 91       		.byte	0x91
 10874 1eed B87F     		.sleb128 -72
 10875 1eef 00000000 		.4byte	0
 10876 1ef3 00000000 		.4byte	0
 10877              	.LLST194:
 10878 1ef7 2A040000 		.4byte	.LVL172
 10879 1efb E2040000 		.4byte	.LVL176
 10880 1eff 0100     		.2byte	0x1
 10881 1f01 52       		.byte	0x52
 10882 1f02 00000000 		.4byte	0
 10883 1f06 00000000 		.4byte	0
 10884              	.LLST195:
 10885 1f0a 2A040000 		.4byte	.LVL172
 10886 1f0e F8040000 		.4byte	.LVL180
 10887 1f12 0100     		.2byte	0x1
 10888 1f14 53       		.byte	0x53
 10889 1f15 00000000 		.4byte	0
 10890 1f19 00000000 		.4byte	0
 10891              	.LLST196:
 10892 1f1d 2A040000 		.4byte	.LVL172
 10893 1f21 0E050000 		.4byte	.LVL184
 10894 1f25 0100     		.2byte	0x1
 10895 1f27 50       		.byte	0x50
 10896 1f28 00000000 		.4byte	0
 10897 1f2c 00000000 		.4byte	0
 10898              	.LLST197:
 10899 1f30 2A040000 		.4byte	.LVL172
 10900 1f34 34040000 		.4byte	.LVL173
 10901 1f38 0100     		.2byte	0x1
 10902 1f3a 51       		.byte	0x51
 10903 1f3b 3C040000 		.4byte	.LVL174
 10904 1f3f DC040000 		.4byte	.LVL175
 10905 1f43 0D00     		.2byte	0xd
 10906 1f45 71       		.byte	0x71
 10907 1f46 00       		.sleb128 0
 10908 1f47 45       		.byte	0x45
 10909 1f48 14       		.byte	0x14
 10910 1f49 14       		.byte	0x14
 10911 1f4a 1F       		.byte	0x1f
 10912 1f4b 23       		.byte	0x23
 10913 1f4c 20       		.uleb128 0x20
 10914 1f4d 24       		.byte	0x24
 10915 1f4e 17       		.byte	0x17
 10916 1f4f 25       		.byte	0x25
 10917 1f50 21       		.byte	0x21
 10918 1f51 9F       		.byte	0x9f
 10919 1f52 DC040000 		.4byte	.LVL175
 10920 1f56 28050000 		.4byte	.LVL189
 10921 1f5a 0100     		.2byte	0x1
ARM GAS  C:\Users\atsu\AppData\Local\Temp\ccFWVBKl.s 			page 205


 10922 1f5c 51       		.byte	0x51
 10923 1f5d 00000000 		.4byte	0
 10924 1f61 00000000 		.4byte	0
 10925              	.LLST198:
 10926 1f65 E4040000 		.4byte	.LVL177
 10927 1f69 33070000 		.4byte	.LVL285-1
 10928 1f6d 0200     		.2byte	0x2
 10929 1f6f 91       		.byte	0x91
 10930 1f70 44       		.sleb128 -60
 10931 1f71 00000000 		.4byte	0
 10932 1f75 00000000 		.4byte	0
 10933              	.LLST199:
 10934 1f79 E4040000 		.4byte	.LVL177
 10935 1f7d F8040000 		.4byte	.LVL180
 10936 1f81 0100     		.2byte	0x1
 10937 1f83 53       		.byte	0x53
 10938 1f84 00000000 		.4byte	0
 10939 1f88 00000000 		.4byte	0
 10940              	.LLST200:
 10941 1f8c E4040000 		.4byte	.LVL177
 10942 1f90 0E050000 		.4byte	.LVL184
 10943 1f94 0100     		.2byte	0x1
 10944 1f96 50       		.byte	0x50
 10945 1f97 00000000 		.4byte	0
 10946 1f9b 00000000 		.4byte	0
 10947              	.LLST201:
 10948 1f9f E4040000 		.4byte	.LVL177
 10949 1fa3 28050000 		.4byte	.LVL189
 10950 1fa7 0100     		.2byte	0x1
 10951 1fa9 51       		.byte	0x51
 10952 1faa 00000000 		.4byte	0
 10953 1fae 00000000 		.4byte	0
 10954              	.LLST202:
 10955 1fb2 EC040000 		.4byte	.LVL178
 10956 1fb6 F2040000 		.4byte	.LVL179
 10957 1fba 0D00     		.2byte	0xd
 10958 1fbc 72       		.byte	0x72
 10959 1fbd 00       		.sleb128 0
 10960 1fbe 40       		.byte	0x40
 10961 1fbf 14       		.byte	0x14
 10962 1fc0 14       		.byte	0x14
 10963 1fc1 1F       		.byte	0x1f
 10964 1fc2 23       		.byte	0x23
 10965 1fc3 20       		.uleb128 0x20
 10966 1fc4 24       		.byte	0x24
 10967 1fc5 17       		.byte	0x17
 10968 1fc6 25       		.byte	0x25
 10969 1fc7 21       		.byte	0x21
 10970 1fc8 9F       		.byte	0x9f
 10971 1fc9 F2040000 		.4byte	.LVL179
 10972 1fcd 3C050000 		.4byte	.LVL192
 10973 1fd1 0100     		.2byte	0x1
 10974 1fd3 52       		.byte	0x52
 10975 1fd4 00000000 		.4byte	0
 10976 1fd8 00000000 		.4byte	0
 10977              	.LLST203:
 10978 1fdc FA040000 		.4byte	.LVL181
ARM GAS  C:\Users\atsu\AppData\Local\Temp\ccFWVBKl.s 			page 206


 10979 1fe0 33070000 		.4byte	.LVL285-1
 10980 1fe4 0200     		.2byte	0x2
 10981 1fe6 91       		.byte	0x91
 10982 1fe7 50       		.sleb128 -48
 10983 1fe8 00000000 		.4byte	0
 10984 1fec 00000000 		.4byte	0
 10985              	.LLST204:
 10986 1ff0 FA040000 		.4byte	.LVL181
 10987 1ff4 0E050000 		.4byte	.LVL184
 10988 1ff8 0100     		.2byte	0x1
 10989 1ffa 50       		.byte	0x50
 10990 1ffb 00000000 		.4byte	0
 10991 1fff 00000000 		.4byte	0
 10992              	.LLST205:
 10993 2003 FA040000 		.4byte	.LVL181
 10994 2007 28050000 		.4byte	.LVL189
 10995 200b 0100     		.2byte	0x1
 10996 200d 51       		.byte	0x51
 10997 200e 00000000 		.4byte	0
 10998 2012 00000000 		.4byte	0
 10999              	.LLST206:
 11000 2016 FA040000 		.4byte	.LVL181
 11001 201a 3C050000 		.4byte	.LVL192
 11002 201e 0100     		.2byte	0x1
 11003 2020 52       		.byte	0x52
 11004 2021 00000000 		.4byte	0
 11005 2025 00000000 		.4byte	0
 11006              	.LLST207:
 11007 2029 02050000 		.4byte	.LVL182
 11008 202d 08050000 		.4byte	.LVL183
 11009 2031 0D00     		.2byte	0xd
 11010 2033 73       		.byte	0x73
 11011 2034 00       		.sleb128 0
 11012 2035 39       		.byte	0x39
 11013 2036 14       		.byte	0x14
 11014 2037 14       		.byte	0x14
 11015 2038 1F       		.byte	0x1f
 11016 2039 23       		.byte	0x23
 11017 203a 20       		.uleb128 0x20
 11018 203b 24       		.byte	0x24
 11019 203c 17       		.byte	0x17
 11020 203d 25       		.byte	0x25
 11021 203e 21       		.byte	0x21
 11022 203f 9F       		.byte	0x9f
 11023 2040 08050000 		.4byte	.LVL183
 11024 2044 52050000 		.4byte	.LVL196
 11025 2048 0100     		.2byte	0x1
 11026 204a 53       		.byte	0x53
 11027 204b 00000000 		.4byte	0
 11028 204f 00000000 		.4byte	0
 11029              	.LLST208:
 11030 2053 10050000 		.4byte	.LVL185
 11031 2057 33070000 		.4byte	.LVL285-1
 11032 205b 0200     		.2byte	0x2
 11033 205d 91       		.byte	0x91
 11034 205e 5C       		.sleb128 -36
 11035 205f 00000000 		.4byte	0
ARM GAS  C:\Users\atsu\AppData\Local\Temp\ccFWVBKl.s 			page 207


 11036 2063 00000000 		.4byte	0
 11037              	.LLST209:
 11038 2067 10050000 		.4byte	.LVL185
 11039 206b 28050000 		.4byte	.LVL189
 11040 206f 0100     		.2byte	0x1
 11041 2071 51       		.byte	0x51
 11042 2072 00000000 		.4byte	0
 11043 2076 00000000 		.4byte	0
 11044              	.LLST210:
 11045 207a 10050000 		.4byte	.LVL185
 11046 207e 3C050000 		.4byte	.LVL192
 11047 2082 0100     		.2byte	0x1
 11048 2084 52       		.byte	0x52
 11049 2085 00000000 		.4byte	0
 11050 2089 00000000 		.4byte	0
 11051              	.LLST211:
 11052 208d 10050000 		.4byte	.LVL185
 11053 2091 52050000 		.4byte	.LVL196
 11054 2095 0100     		.2byte	0x1
 11055 2097 53       		.byte	0x53
 11056 2098 00000000 		.4byte	0
 11057 209c 00000000 		.4byte	0
 11058              	.LLST212:
 11059 20a0 16050000 		.4byte	.LVL186
 11060 20a4 1A050000 		.4byte	.LVL187
 11061 20a8 0D00     		.2byte	0xd
 11062 20aa 70       		.byte	0x70
 11063 20ab 00       		.sleb128 0
 11064 20ac 4C       		.byte	0x4c
 11065 20ad 14       		.byte	0x14
 11066 20ae 14       		.byte	0x14
 11067 20af 1F       		.byte	0x1f
 11068 20b0 23       		.byte	0x23
 11069 20b1 20       		.uleb128 0x20
 11070 20b2 24       		.byte	0x24
 11071 20b3 17       		.byte	0x17
 11072 20b4 25       		.byte	0x25
 11073 20b5 21       		.byte	0x21
 11074 20b6 9F       		.byte	0x9f
 11075 20b7 1A050000 		.4byte	.LVL187
 11076 20bb 68050000 		.4byte	.LVL200
 11077 20bf 0100     		.2byte	0x1
 11078 20c1 50       		.byte	0x50
 11079 20c2 00000000 		.4byte	0
 11080 20c6 00000000 		.4byte	0
 11081              	.LLST213:
 11082 20ca 1E050000 		.4byte	.LVL188
 11083 20ce 2E070000 		.4byte	.LVL284
 11084 20d2 0300     		.2byte	0x3
 11085 20d4 91       		.byte	0x91
 11086 20d5 A87F     		.sleb128 -88
 11087 20d7 2E070000 		.4byte	.LVL284
 11088 20db 33070000 		.4byte	.LVL285-1
 11089 20df 0200     		.2byte	0x2
 11090 20e1 70       		.byte	0x70
 11091 20e2 00       		.sleb128 0
 11092 20e3 00000000 		.4byte	0
ARM GAS  C:\Users\atsu\AppData\Local\Temp\ccFWVBKl.s 			page 208


 11093 20e7 00000000 		.4byte	0
 11094              	.LLST214:
 11095 20eb 1E050000 		.4byte	.LVL188
 11096 20ef 3C050000 		.4byte	.LVL192
 11097 20f3 0100     		.2byte	0x1
 11098 20f5 52       		.byte	0x52
 11099 20f6 00000000 		.4byte	0
 11100 20fa 00000000 		.4byte	0
 11101              	.LLST215:
 11102 20fe 1E050000 		.4byte	.LVL188
 11103 2102 52050000 		.4byte	.LVL196
 11104 2106 0100     		.2byte	0x1
 11105 2108 53       		.byte	0x53
 11106 2109 00000000 		.4byte	0
 11107 210d 00000000 		.4byte	0
 11108              	.LLST216:
 11109 2111 1E050000 		.4byte	.LVL188
 11110 2115 68050000 		.4byte	.LVL200
 11111 2119 0100     		.2byte	0x1
 11112 211b 50       		.byte	0x50
 11113 211c 00000000 		.4byte	0
 11114 2120 00000000 		.4byte	0
 11115              	.LLST217:
 11116 2124 1E050000 		.4byte	.LVL188
 11117 2128 28050000 		.4byte	.LVL189
 11118 212c 0100     		.2byte	0x1
 11119 212e 51       		.byte	0x51
 11120 212f 30050000 		.4byte	.LVL190
 11121 2133 36050000 		.4byte	.LVL191
 11122 2137 0D00     		.2byte	0xd
 11123 2139 71       		.byte	0x71
 11124 213a 00       		.sleb128 0
 11125 213b 45       		.byte	0x45
 11126 213c 14       		.byte	0x14
 11127 213d 14       		.byte	0x14
 11128 213e 1F       		.byte	0x1f
 11129 213f 23       		.byte	0x23
 11130 2140 20       		.uleb128 0x20
 11131 2141 24       		.byte	0x24
 11132 2142 17       		.byte	0x17
 11133 2143 25       		.byte	0x25
 11134 2144 21       		.byte	0x21
 11135 2145 9F       		.byte	0x9f
 11136 2146 36050000 		.4byte	.LVL191
 11137 214a 82050000 		.4byte	.LVL205
 11138 214e 0100     		.2byte	0x1
 11139 2150 51       		.byte	0x51
 11140 2151 00000000 		.4byte	0
 11141 2155 00000000 		.4byte	0
 11142              	.LLST218:
 11143 2159 3E050000 		.4byte	.LVL193
 11144 215d 33070000 		.4byte	.LVL285-1
 11145 2161 0300     		.2byte	0x3
 11146 2163 91       		.byte	0x91
 11147 2164 B47F     		.sleb128 -76
 11148 2166 00000000 		.4byte	0
 11149 216a 00000000 		.4byte	0
ARM GAS  C:\Users\atsu\AppData\Local\Temp\ccFWVBKl.s 			page 209


 11150              	.LLST219:
 11151 216e 3E050000 		.4byte	.LVL193
 11152 2172 52050000 		.4byte	.LVL196
 11153 2176 0100     		.2byte	0x1
 11154 2178 53       		.byte	0x53
 11155 2179 00000000 		.4byte	0
 11156 217d 00000000 		.4byte	0
 11157              	.LLST220:
 11158 2181 3E050000 		.4byte	.LVL193
 11159 2185 68050000 		.4byte	.LVL200
 11160 2189 0100     		.2byte	0x1
 11161 218b 50       		.byte	0x50
 11162 218c 00000000 		.4byte	0
 11163 2190 00000000 		.4byte	0
 11164              	.LLST221:
 11165 2194 3E050000 		.4byte	.LVL193
 11166 2198 82050000 		.4byte	.LVL205
 11167 219c 0100     		.2byte	0x1
 11168 219e 51       		.byte	0x51
 11169 219f 00000000 		.4byte	0
 11170 21a3 00000000 		.4byte	0
 11171              	.LLST222:
 11172 21a7 46050000 		.4byte	.LVL194
 11173 21ab 4C050000 		.4byte	.LVL195
 11174 21af 0D00     		.2byte	0xd
 11175 21b1 72       		.byte	0x72
 11176 21b2 00       		.sleb128 0
 11177 21b3 40       		.byte	0x40
 11178 21b4 14       		.byte	0x14
 11179 21b5 14       		.byte	0x14
 11180 21b6 1F       		.byte	0x1f
 11181 21b7 23       		.byte	0x23
 11182 21b8 20       		.uleb128 0x20
 11183 21b9 24       		.byte	0x24
 11184 21ba 17       		.byte	0x17
 11185 21bb 25       		.byte	0x25
 11186 21bc 21       		.byte	0x21
 11187 21bd 9F       		.byte	0x9f
 11188 21be 4C050000 		.4byte	.LVL195
 11189 21c2 9C050000 		.4byte	.LVL209
 11190 21c6 0100     		.2byte	0x1
 11191 21c8 52       		.byte	0x52
 11192 21c9 00000000 		.4byte	0
 11193 21cd 00000000 		.4byte	0
 11194              	.LLST223:
 11195 21d1 54050000 		.4byte	.LVL197
 11196 21d5 33070000 		.4byte	.LVL285-1
 11197 21d9 0200     		.2byte	0x2
 11198 21db 91       		.byte	0x91
 11199 21dc 40       		.sleb128 -64
 11200 21dd 00000000 		.4byte	0
 11201 21e1 00000000 		.4byte	0
 11202              	.LLST224:
 11203 21e5 54050000 		.4byte	.LVL197
 11204 21e9 68050000 		.4byte	.LVL200
 11205 21ed 0100     		.2byte	0x1
 11206 21ef 50       		.byte	0x50
ARM GAS  C:\Users\atsu\AppData\Local\Temp\ccFWVBKl.s 			page 210


 11207 21f0 00000000 		.4byte	0
 11208 21f4 00000000 		.4byte	0
 11209              	.LLST225:
 11210 21f8 54050000 		.4byte	.LVL197
 11211 21fc 82050000 		.4byte	.LVL205
 11212 2200 0100     		.2byte	0x1
 11213 2202 51       		.byte	0x51
 11214 2203 00000000 		.4byte	0
 11215 2207 00000000 		.4byte	0
 11216              	.LLST226:
 11217 220b 54050000 		.4byte	.LVL197
 11218 220f 9C050000 		.4byte	.LVL209
 11219 2213 0100     		.2byte	0x1
 11220 2215 52       		.byte	0x52
 11221 2216 00000000 		.4byte	0
 11222 221a 00000000 		.4byte	0
 11223              	.LLST227:
 11224 221e 5C050000 		.4byte	.LVL198
 11225 2222 62050000 		.4byte	.LVL199
 11226 2226 0D00     		.2byte	0xd
 11227 2228 73       		.byte	0x73
 11228 2229 00       		.sleb128 0
 11229 222a 39       		.byte	0x39
 11230 222b 14       		.byte	0x14
 11231 222c 14       		.byte	0x14
 11232 222d 1F       		.byte	0x1f
 11233 222e 23       		.byte	0x23
 11234 222f 20       		.uleb128 0x20
 11235 2230 24       		.byte	0x24
 11236 2231 17       		.byte	0x17
 11237 2232 25       		.byte	0x25
 11238 2233 21       		.byte	0x21
 11239 2234 9F       		.byte	0x9f
 11240 2235 62050000 		.4byte	.LVL199
 11241 2239 AE050000 		.4byte	.LVL213
 11242 223d 0100     		.2byte	0x1
 11243 223f 53       		.byte	0x53
 11244 2240 00000000 		.4byte	0
 11245 2244 00000000 		.4byte	0
 11246              	.LLST228:
 11247 2248 6A050000 		.4byte	.LVL201
 11248 224c 33070000 		.4byte	.LVL285-1
 11249 2250 0200     		.2byte	0x2
 11250 2252 91       		.byte	0x91
 11251 2253 4C       		.sleb128 -52
 11252 2254 00000000 		.4byte	0
 11253 2258 00000000 		.4byte	0
 11254              	.LLST229:
 11255 225c 6A050000 		.4byte	.LVL201
 11256 2260 82050000 		.4byte	.LVL205
 11257 2264 0100     		.2byte	0x1
 11258 2266 51       		.byte	0x51
 11259 2267 00000000 		.4byte	0
 11260 226b 00000000 		.4byte	0
 11261              	.LLST230:
 11262 226f 6A050000 		.4byte	.LVL201
 11263 2273 9C050000 		.4byte	.LVL209
ARM GAS  C:\Users\atsu\AppData\Local\Temp\ccFWVBKl.s 			page 211


 11264 2277 0100     		.2byte	0x1
 11265 2279 52       		.byte	0x52
 11266 227a 00000000 		.4byte	0
 11267 227e 00000000 		.4byte	0
 11268              	.LLST231:
 11269 2282 6A050000 		.4byte	.LVL201
 11270 2286 AE050000 		.4byte	.LVL213
 11271 228a 0100     		.2byte	0x1
 11272 228c 53       		.byte	0x53
 11273 228d 00000000 		.4byte	0
 11274 2291 00000000 		.4byte	0
 11275              	.LLST232:
 11276 2295 70050000 		.4byte	.LVL202
 11277 2299 74050000 		.4byte	.LVL203
 11278 229d 0D00     		.2byte	0xd
 11279 229f 70       		.byte	0x70
 11280 22a0 00       		.sleb128 0
 11281 22a1 4C       		.byte	0x4c
 11282 22a2 14       		.byte	0x14
 11283 22a3 14       		.byte	0x14
 11284 22a4 1F       		.byte	0x1f
 11285 22a5 23       		.byte	0x23
 11286 22a6 20       		.uleb128 0x20
 11287 22a7 24       		.byte	0x24
 11288 22a8 17       		.byte	0x17
 11289 22a9 25       		.byte	0x25
 11290 22aa 21       		.byte	0x21
 11291 22ab 9F       		.byte	0x9f
 11292 22ac 74050000 		.4byte	.LVL203
 11293 22b0 C2050000 		.4byte	.LVL217
 11294 22b4 0100     		.2byte	0x1
 11295 22b6 50       		.byte	0x50
 11296 22b7 00000000 		.4byte	0
 11297 22bb 00000000 		.4byte	0
 11298              	.LLST233:
 11299 22bf 78050000 		.4byte	.LVL204
 11300 22c3 33070000 		.4byte	.LVL285-1
 11301 22c7 0200     		.2byte	0x2
 11302 22c9 91       		.byte	0x91
 11303 22ca 58       		.sleb128 -40
 11304 22cb 00000000 		.4byte	0
 11305 22cf 00000000 		.4byte	0
 11306              	.LLST234:
 11307 22d3 78050000 		.4byte	.LVL204
 11308 22d7 9C050000 		.4byte	.LVL209
 11309 22db 0100     		.2byte	0x1
 11310 22dd 52       		.byte	0x52
 11311 22de 00000000 		.4byte	0
 11312 22e2 00000000 		.4byte	0
 11313              	.LLST235:
 11314 22e6 78050000 		.4byte	.LVL204
 11315 22ea AE050000 		.4byte	.LVL213
 11316 22ee 0100     		.2byte	0x1
 11317 22f0 53       		.byte	0x53
 11318 22f1 00000000 		.4byte	0
 11319 22f5 00000000 		.4byte	0
 11320              	.LLST236:
ARM GAS  C:\Users\atsu\AppData\Local\Temp\ccFWVBKl.s 			page 212


 11321 22f9 78050000 		.4byte	.LVL204
 11322 22fd C2050000 		.4byte	.LVL217
 11323 2301 0100     		.2byte	0x1
 11324 2303 50       		.byte	0x50
 11325 2304 00000000 		.4byte	0
 11326 2308 00000000 		.4byte	0
 11327              	.LLST237:
 11328 230c 78050000 		.4byte	.LVL204
 11329 2310 82050000 		.4byte	.LVL205
 11330 2314 0100     		.2byte	0x1
 11331 2316 51       		.byte	0x51
 11332 2317 88050000 		.4byte	.LVL206
 11333 231b 8A050000 		.4byte	.LVL207
 11334 231f 0D00     		.2byte	0xd
 11335 2321 71       		.byte	0x71
 11336 2322 00       		.sleb128 0
 11337 2323 45       		.byte	0x45
 11338 2324 14       		.byte	0x14
 11339 2325 14       		.byte	0x14
 11340 2326 1F       		.byte	0x1f
 11341 2327 23       		.byte	0x23
 11342 2328 20       		.uleb128 0x20
 11343 2329 24       		.byte	0x24
 11344 232a 17       		.byte	0x17
 11345 232b 25       		.byte	0x25
 11346 232c 21       		.byte	0x21
 11347 232d 9F       		.byte	0x9f
 11348 232e 8A050000 		.4byte	.LVL207
 11349 2332 D8050000 		.4byte	.LVL221
 11350 2336 0100     		.2byte	0x1
 11351 2338 51       		.byte	0x51
 11352 2339 00000000 		.4byte	0
 11353 233d 00000000 		.4byte	0
 11354              	.LLST238:
 11355 2341 94050000 		.4byte	.LVL208
 11356 2345 33070000 		.4byte	.LVL285-1
 11357 2349 0200     		.2byte	0x2
 11358 234b 91       		.byte	0x91
 11359 234c 64       		.sleb128 -28
 11360 234d 00000000 		.4byte	0
 11361 2351 00000000 		.4byte	0
 11362              	.LLST239:
 11363 2355 94050000 		.4byte	.LVL208
 11364 2359 AE050000 		.4byte	.LVL213
 11365 235d 0100     		.2byte	0x1
 11366 235f 53       		.byte	0x53
 11367 2360 00000000 		.4byte	0
 11368 2364 00000000 		.4byte	0
 11369              	.LLST240:
 11370 2368 94050000 		.4byte	.LVL208
 11371 236c C2050000 		.4byte	.LVL217
 11372 2370 0100     		.2byte	0x1
 11373 2372 50       		.byte	0x50
 11374 2373 00000000 		.4byte	0
 11375 2377 00000000 		.4byte	0
 11376              	.LLST241:
 11377 237b 94050000 		.4byte	.LVL208
ARM GAS  C:\Users\atsu\AppData\Local\Temp\ccFWVBKl.s 			page 213


 11378 237f D8050000 		.4byte	.LVL221
 11379 2383 0100     		.2byte	0x1
 11380 2385 51       		.byte	0x51
 11381 2386 00000000 		.4byte	0
 11382 238a 00000000 		.4byte	0
 11383              	.LLST242:
 11384 238e 94050000 		.4byte	.LVL208
 11385 2392 9C050000 		.4byte	.LVL209
 11386 2396 0100     		.2byte	0x1
 11387 2398 52       		.byte	0x52
 11388 2399 9E050000 		.4byte	.LVL210
 11389 239d A0050000 		.4byte	.LVL211
 11390 23a1 0D00     		.2byte	0xd
 11391 23a3 72       		.byte	0x72
 11392 23a4 00       		.sleb128 0
 11393 23a5 40       		.byte	0x40
 11394 23a6 14       		.byte	0x14
 11395 23a7 14       		.byte	0x14
 11396 23a8 1F       		.byte	0x1f
 11397 23a9 23       		.byte	0x23
 11398 23aa 20       		.uleb128 0x20
 11399 23ab 24       		.byte	0x24
 11400 23ac 17       		.byte	0x17
 11401 23ad 25       		.byte	0x25
 11402 23ae 21       		.byte	0x21
 11403 23af 9F       		.byte	0x9f
 11404 23b0 A0050000 		.4byte	.LVL211
 11405 23b4 EE050000 		.4byte	.LVL225
 11406 23b8 0100     		.2byte	0x1
 11407 23ba 52       		.byte	0x52
 11408 23bb 00000000 		.4byte	0
 11409 23bf 00000000 		.4byte	0
 11410              	.LLST243:
 11411 23c3 A6050000 		.4byte	.LVL212
 11412 23c7 33070000 		.4byte	.LVL285-1
 11413 23cb 0300     		.2byte	0x3
 11414 23cd 91       		.byte	0x91
 11415 23ce B07F     		.sleb128 -80
 11416 23d0 00000000 		.4byte	0
 11417 23d4 00000000 		.4byte	0
 11418              	.LLST244:
 11419 23d8 A6050000 		.4byte	.LVL212
 11420 23dc C2050000 		.4byte	.LVL217
 11421 23e0 0100     		.2byte	0x1
 11422 23e2 50       		.byte	0x50
 11423 23e3 00000000 		.4byte	0
 11424 23e7 00000000 		.4byte	0
 11425              	.LLST245:
 11426 23eb A6050000 		.4byte	.LVL212
 11427 23ef D8050000 		.4byte	.LVL221
 11428 23f3 0100     		.2byte	0x1
 11429 23f5 51       		.byte	0x51
 11430 23f6 00000000 		.4byte	0
 11431 23fa 00000000 		.4byte	0
 11432              	.LLST246:
 11433 23fe A6050000 		.4byte	.LVL212
 11434 2402 EE050000 		.4byte	.LVL225
ARM GAS  C:\Users\atsu\AppData\Local\Temp\ccFWVBKl.s 			page 214


 11435 2406 0100     		.2byte	0x1
 11436 2408 52       		.byte	0x52
 11437 2409 00000000 		.4byte	0
 11438 240d 00000000 		.4byte	0
 11439              	.LLST247:
 11440 2411 A6050000 		.4byte	.LVL212
 11441 2415 AE050000 		.4byte	.LVL213
 11442 2419 0100     		.2byte	0x1
 11443 241b 53       		.byte	0x53
 11444 241c B2050000 		.4byte	.LVL214
 11445 2420 B4050000 		.4byte	.LVL215
 11446 2424 0D00     		.2byte	0xd
 11447 2426 74       		.byte	0x74
 11448 2427 00       		.sleb128 0
 11449 2428 39       		.byte	0x39
 11450 2429 14       		.byte	0x14
 11451 242a 14       		.byte	0x14
 11452 242b 1F       		.byte	0x1f
 11453 242c 23       		.byte	0x23
 11454 242d 20       		.uleb128 0x20
 11455 242e 24       		.byte	0x24
 11456 242f 17       		.byte	0x17
 11457 2430 25       		.byte	0x25
 11458 2431 21       		.byte	0x21
 11459 2432 9F       		.byte	0x9f
 11460 2433 B4050000 		.4byte	.LVL215
 11461 2437 BA050000 		.4byte	.LVL216
 11462 243b 0100     		.2byte	0x1
 11463 243d 54       		.byte	0x54
 11464 243e BA050000 		.4byte	.LVL216
 11465 2442 08060000 		.4byte	.LVL229
 11466 2446 0100     		.2byte	0x1
 11467 2448 53       		.byte	0x53
 11468 2449 00000000 		.4byte	0
 11469 244d 00000000 		.4byte	0
 11470              	.LLST248:
 11471 2451 BA050000 		.4byte	.LVL216
 11472 2455 2E070000 		.4byte	.LVL284
 11473 2459 0300     		.2byte	0x3
 11474 245b 91       		.byte	0x91
 11475 245c A87F     		.sleb128 -88
 11476 245e 2E070000 		.4byte	.LVL284
 11477 2462 33070000 		.4byte	.LVL285-1
 11478 2466 0200     		.2byte	0x2
 11479 2468 70       		.byte	0x70
 11480 2469 00       		.sleb128 0
 11481 246a 00000000 		.4byte	0
 11482 246e 00000000 		.4byte	0
 11483              	.LLST249:
 11484 2472 BA050000 		.4byte	.LVL216
 11485 2476 D8050000 		.4byte	.LVL221
 11486 247a 0100     		.2byte	0x1
 11487 247c 51       		.byte	0x51
 11488 247d 00000000 		.4byte	0
 11489 2481 00000000 		.4byte	0
 11490              	.LLST250:
 11491 2485 BA050000 		.4byte	.LVL216
ARM GAS  C:\Users\atsu\AppData\Local\Temp\ccFWVBKl.s 			page 215


 11492 2489 EE050000 		.4byte	.LVL225
 11493 248d 0100     		.2byte	0x1
 11494 248f 52       		.byte	0x52
 11495 2490 00000000 		.4byte	0
 11496 2494 00000000 		.4byte	0
 11497              	.LLST251:
 11498 2498 BA050000 		.4byte	.LVL216
 11499 249c 08060000 		.4byte	.LVL229
 11500 24a0 0100     		.2byte	0x1
 11501 24a2 53       		.byte	0x53
 11502 24a3 00000000 		.4byte	0
 11503 24a7 00000000 		.4byte	0
 11504              	.LLST252:
 11505 24ab BA050000 		.4byte	.LVL216
 11506 24af C2050000 		.4byte	.LVL217
 11507 24b3 0100     		.2byte	0x1
 11508 24b5 50       		.byte	0x50
 11509 24b6 C6050000 		.4byte	.LVL218
 11510 24ba CC050000 		.4byte	.LVL219
 11511 24be 0D00     		.2byte	0xd
 11512 24c0 75       		.byte	0x75
 11513 24c1 00       		.sleb128 0
 11514 24c2 4A       		.byte	0x4a
 11515 24c3 14       		.byte	0x14
 11516 24c4 14       		.byte	0x14
 11517 24c5 1F       		.byte	0x1f
 11518 24c6 23       		.byte	0x23
 11519 24c7 20       		.uleb128 0x20
 11520 24c8 24       		.byte	0x24
 11521 24c9 17       		.byte	0x17
 11522 24ca 25       		.byte	0x25
 11523 24cb 21       		.byte	0x21
 11524 24cc 9F       		.byte	0x9f
 11525 24cd CC050000 		.4byte	.LVL219
 11526 24d1 20060000 		.4byte	.LVL233
 11527 24d5 0100     		.2byte	0x1
 11528 24d7 55       		.byte	0x55
 11529 24d8 00000000 		.4byte	0
 11530 24dc 00000000 		.4byte	0
 11531              	.LLST253:
 11532 24e0 D0050000 		.4byte	.LVL220
 11533 24e4 33070000 		.4byte	.LVL285-1
 11534 24e8 0200     		.2byte	0x2
 11535 24ea 91       		.byte	0x91
 11536 24eb 44       		.sleb128 -60
 11537 24ec 00000000 		.4byte	0
 11538 24f0 00000000 		.4byte	0
 11539              	.LLST254:
 11540 24f4 D0050000 		.4byte	.LVL220
 11541 24f8 EE050000 		.4byte	.LVL225
 11542 24fc 0100     		.2byte	0x1
 11543 24fe 52       		.byte	0x52
 11544 24ff 00000000 		.4byte	0
 11545 2503 00000000 		.4byte	0
 11546              	.LLST255:
 11547 2507 D0050000 		.4byte	.LVL220
 11548 250b 08060000 		.4byte	.LVL229
ARM GAS  C:\Users\atsu\AppData\Local\Temp\ccFWVBKl.s 			page 216


 11549 250f 0100     		.2byte	0x1
 11550 2511 53       		.byte	0x53
 11551 2512 00000000 		.4byte	0
 11552 2516 00000000 		.4byte	0
 11553              	.LLST256:
 11554 251a D0050000 		.4byte	.LVL220
 11555 251e 20060000 		.4byte	.LVL233
 11556 2522 0100     		.2byte	0x1
 11557 2524 55       		.byte	0x55
 11558 2525 00000000 		.4byte	0
 11559 2529 00000000 		.4byte	0
 11560              	.LLST257:
 11561 252d D0050000 		.4byte	.LVL220
 11562 2531 D8050000 		.4byte	.LVL221
 11563 2535 0100     		.2byte	0x1
 11564 2537 51       		.byte	0x51
 11565 2538 DE050000 		.4byte	.LVL222
 11566 253c E4050000 		.4byte	.LVL223
 11567 2540 0D00     		.2byte	0xd
 11568 2542 70       		.byte	0x70
 11569 2543 00       		.sleb128 0
 11570 2544 46       		.byte	0x46
 11571 2545 14       		.byte	0x14
 11572 2546 14       		.byte	0x14
 11573 2547 1F       		.byte	0x1f
 11574 2548 23       		.byte	0x23
 11575 2549 20       		.uleb128 0x20
 11576 254a 24       		.byte	0x24
 11577 254b 17       		.byte	0x17
 11578 254c 25       		.byte	0x25
 11579 254d 21       		.byte	0x21
 11580 254e 9F       		.byte	0x9f
 11581 254f E4050000 		.4byte	.LVL223
 11582 2553 36060000 		.4byte	.LVL237
 11583 2557 0100     		.2byte	0x1
 11584 2559 50       		.byte	0x50
 11585 255a 00000000 		.4byte	0
 11586 255e 00000000 		.4byte	0
 11587              	.LLST258:
 11588 2562 E6050000 		.4byte	.LVL224
 11589 2566 33070000 		.4byte	.LVL285-1
 11590 256a 0200     		.2byte	0x2
 11591 256c 91       		.byte	0x91
 11592 256d 60       		.sleb128 -32
 11593 256e 00000000 		.4byte	0
 11594 2572 00000000 		.4byte	0
 11595              	.LLST259:
 11596 2576 E6050000 		.4byte	.LVL224
 11597 257a 08060000 		.4byte	.LVL229
 11598 257e 0100     		.2byte	0x1
 11599 2580 53       		.byte	0x53
 11600 2581 00000000 		.4byte	0
 11601 2585 00000000 		.4byte	0
 11602              	.LLST260:
 11603 2589 E6050000 		.4byte	.LVL224
 11604 258d 20060000 		.4byte	.LVL233
 11605 2591 0100     		.2byte	0x1
ARM GAS  C:\Users\atsu\AppData\Local\Temp\ccFWVBKl.s 			page 217


 11606 2593 55       		.byte	0x55
 11607 2594 00000000 		.4byte	0
 11608 2598 00000000 		.4byte	0
 11609              	.LLST261:
 11610 259c E6050000 		.4byte	.LVL224
 11611 25a0 36060000 		.4byte	.LVL237
 11612 25a4 0100     		.2byte	0x1
 11613 25a6 50       		.byte	0x50
 11614 25a7 00000000 		.4byte	0
 11615 25ab 00000000 		.4byte	0
 11616              	.LLST262:
 11617 25af E6050000 		.4byte	.LVL224
 11618 25b3 EE050000 		.4byte	.LVL225
 11619 25b7 0100     		.2byte	0x1
 11620 25b9 52       		.byte	0x52
 11621 25ba F4050000 		.4byte	.LVL226
 11622 25be F6050000 		.4byte	.LVL227
 11623 25c2 0D00     		.2byte	0xd
 11624 25c4 74       		.byte	0x74
 11625 25c5 00       		.sleb128 0
 11626 25c6 41       		.byte	0x41
 11627 25c7 14       		.byte	0x14
 11628 25c8 14       		.byte	0x14
 11629 25c9 1F       		.byte	0x1f
 11630 25ca 23       		.byte	0x23
 11631 25cb 20       		.uleb128 0x20
 11632 25cc 24       		.byte	0x24
 11633 25cd 17       		.byte	0x17
 11634 25ce 25       		.byte	0x25
 11635 25cf 21       		.byte	0x21
 11636 25d0 9F       		.byte	0x9f
 11637 25d1 F6050000 		.4byte	.LVL227
 11638 25d5 FA050000 		.4byte	.LVL228
 11639 25d9 0100     		.2byte	0x1
 11640 25db 54       		.byte	0x54
 11641 25dc FA050000 		.4byte	.LVL228
 11642 25e0 4A060000 		.4byte	.LVL241
 11643 25e4 0100     		.2byte	0x1
 11644 25e6 51       		.byte	0x51
 11645 25e7 00000000 		.4byte	0
 11646 25eb 00000000 		.4byte	0
 11647              	.LLST263:
 11648 25ef FA050000 		.4byte	.LVL228
 11649 25f3 33070000 		.4byte	.LVL285-1
 11650 25f7 0300     		.2byte	0x3
 11651 25f9 91       		.byte	0x91
 11652 25fa BC7F     		.sleb128 -68
 11653 25fc 00000000 		.4byte	0
 11654 2600 00000000 		.4byte	0
 11655              	.LLST264:
 11656 2604 FA050000 		.4byte	.LVL228
 11657 2608 20060000 		.4byte	.LVL233
 11658 260c 0100     		.2byte	0x1
 11659 260e 55       		.byte	0x55
 11660 260f 00000000 		.4byte	0
 11661 2613 00000000 		.4byte	0
 11662              	.LLST265:
ARM GAS  C:\Users\atsu\AppData\Local\Temp\ccFWVBKl.s 			page 218


 11663 2617 FA050000 		.4byte	.LVL228
 11664 261b 36060000 		.4byte	.LVL237
 11665 261f 0100     		.2byte	0x1
 11666 2621 50       		.byte	0x50
 11667 2622 00000000 		.4byte	0
 11668 2626 00000000 		.4byte	0
 11669              	.LLST266:
 11670 262a FA050000 		.4byte	.LVL228
 11671 262e 4A060000 		.4byte	.LVL241
 11672 2632 0100     		.2byte	0x1
 11673 2634 51       		.byte	0x51
 11674 2635 00000000 		.4byte	0
 11675 2639 00000000 		.4byte	0
 11676              	.LLST267:
 11677 263d FA050000 		.4byte	.LVL228
 11678 2641 08060000 		.4byte	.LVL229
 11679 2645 0100     		.2byte	0x1
 11680 2647 53       		.byte	0x53
 11681 2648 0C060000 		.4byte	.LVL230
 11682 264c 10060000 		.4byte	.LVL231
 11683 2650 0D00     		.2byte	0xd
 11684 2652 73       		.byte	0x73
 11685 2653 00       		.sleb128 0
 11686 2654 3B       		.byte	0x3b
 11687 2655 14       		.byte	0x14
 11688 2656 14       		.byte	0x14
 11689 2657 1F       		.byte	0x1f
 11690 2658 23       		.byte	0x23
 11691 2659 20       		.uleb128 0x20
 11692 265a 24       		.byte	0x24
 11693 265b 17       		.byte	0x17
 11694 265c 25       		.byte	0x25
 11695 265d 21       		.byte	0x21
 11696 265e 9F       		.byte	0x9f
 11697 265f 10060000 		.4byte	.LVL231
 11698 2663 5E060000 		.4byte	.LVL245
 11699 2667 0100     		.2byte	0x1
 11700 2669 53       		.byte	0x53
 11701 266a 00000000 		.4byte	0
 11702 266e 00000000 		.4byte	0
 11703              	.LLST268:
 11704 2672 16060000 		.4byte	.LVL232
 11705 2676 33070000 		.4byte	.LVL285-1
 11706 267a 0200     		.2byte	0x2
 11707 267c 91       		.byte	0x91
 11708 267d 58       		.sleb128 -40
 11709 267e 00000000 		.4byte	0
 11710 2682 00000000 		.4byte	0
 11711              	.LLST269:
 11712 2686 16060000 		.4byte	.LVL232
 11713 268a 36060000 		.4byte	.LVL237
 11714 268e 0100     		.2byte	0x1
 11715 2690 50       		.byte	0x50
 11716 2691 00000000 		.4byte	0
 11717 2695 00000000 		.4byte	0
 11718              	.LLST270:
 11719 2699 16060000 		.4byte	.LVL232
ARM GAS  C:\Users\atsu\AppData\Local\Temp\ccFWVBKl.s 			page 219


 11720 269d 4A060000 		.4byte	.LVL241
 11721 26a1 0100     		.2byte	0x1
 11722 26a3 51       		.byte	0x51
 11723 26a4 00000000 		.4byte	0
 11724 26a8 00000000 		.4byte	0
 11725              	.LLST271:
 11726 26ac 16060000 		.4byte	.LVL232
 11727 26b0 5E060000 		.4byte	.LVL245
 11728 26b4 0100     		.2byte	0x1
 11729 26b6 53       		.byte	0x53
 11730 26b7 00000000 		.4byte	0
 11731 26bb 00000000 		.4byte	0
 11732              	.LLST272:
 11733 26bf 16060000 		.4byte	.LVL232
 11734 26c3 20060000 		.4byte	.LVL233
 11735 26c7 0100     		.2byte	0x1
 11736 26c9 55       		.byte	0x55
 11737 26ca 22060000 		.4byte	.LVL234
 11738 26ce 26060000 		.4byte	.LVL235
 11739 26d2 0D00     		.2byte	0xd
 11740 26d4 72       		.byte	0x72
 11741 26d5 00       		.sleb128 0
 11742 26d6 4A       		.byte	0x4a
 11743 26d7 14       		.byte	0x14
 11744 26d8 14       		.byte	0x14
 11745 26d9 1F       		.byte	0x1f
 11746 26da 23       		.byte	0x23
 11747 26db 20       		.uleb128 0x20
 11748 26dc 24       		.byte	0x24
 11749 26dd 17       		.byte	0x17
 11750 26de 25       		.byte	0x25
 11751 26df 21       		.byte	0x21
 11752 26e0 9F       		.byte	0x9f
 11753 26e1 26060000 		.4byte	.LVL235
 11754 26e5 74060000 		.4byte	.LVL249
 11755 26e9 0100     		.2byte	0x1
 11756 26eb 52       		.byte	0x52
 11757 26ec 00000000 		.4byte	0
 11758 26f0 00000000 		.4byte	0
 11759              	.LLST273:
 11760 26f4 2C060000 		.4byte	.LVL236
 11761 26f8 33070000 		.4byte	.LVL285-1
 11762 26fc 0300     		.2byte	0x3
 11763 26fe 91       		.byte	0x91
 11764 26ff B47F     		.sleb128 -76
 11765 2701 00000000 		.4byte	0
 11766 2705 00000000 		.4byte	0
 11767              	.LLST274:
 11768 2709 2C060000 		.4byte	.LVL236
 11769 270d 4A060000 		.4byte	.LVL241
 11770 2711 0100     		.2byte	0x1
 11771 2713 51       		.byte	0x51
 11772 2714 00000000 		.4byte	0
 11773 2718 00000000 		.4byte	0
 11774              	.LLST275:
 11775 271c 2C060000 		.4byte	.LVL236
 11776 2720 5E060000 		.4byte	.LVL245
ARM GAS  C:\Users\atsu\AppData\Local\Temp\ccFWVBKl.s 			page 220


 11777 2724 0100     		.2byte	0x1
 11778 2726 53       		.byte	0x53
 11779 2727 00000000 		.4byte	0
 11780 272b 00000000 		.4byte	0
 11781              	.LLST276:
 11782 272f 2C060000 		.4byte	.LVL236
 11783 2733 74060000 		.4byte	.LVL249
 11784 2737 0100     		.2byte	0x1
 11785 2739 52       		.byte	0x52
 11786 273a 00000000 		.4byte	0
 11787 273e 00000000 		.4byte	0
 11788              	.LLST277:
 11789 2742 2C060000 		.4byte	.LVL236
 11790 2746 36060000 		.4byte	.LVL237
 11791 274a 0100     		.2byte	0x1
 11792 274c 50       		.byte	0x50
 11793 274d 38060000 		.4byte	.LVL238
 11794 2751 3A060000 		.4byte	.LVL239
 11795 2755 0D00     		.2byte	0xd
 11796 2757 74       		.byte	0x74
 11797 2758 00       		.sleb128 0
 11798 2759 46       		.byte	0x46
 11799 275a 14       		.byte	0x14
 11800 275b 14       		.byte	0x14
 11801 275c 1F       		.byte	0x1f
 11802 275d 23       		.byte	0x23
 11803 275e 20       		.uleb128 0x20
 11804 275f 24       		.byte	0x24
 11805 2760 17       		.byte	0x17
 11806 2761 25       		.byte	0x25
 11807 2762 21       		.byte	0x21
 11808 2763 9F       		.byte	0x9f
 11809 2764 3A060000 		.4byte	.LVL239
 11810 2768 3C060000 		.4byte	.LVL240
 11811 276c 0100     		.2byte	0x1
 11812 276e 54       		.byte	0x54
 11813 276f 3C060000 		.4byte	.LVL240
 11814 2773 8A060000 		.4byte	.LVL253
 11815 2777 0100     		.2byte	0x1
 11816 2779 50       		.byte	0x50
 11817 277a 00000000 		.4byte	0
 11818 277e 00000000 		.4byte	0
 11819              	.LLST278:
 11820 2782 3C060000 		.4byte	.LVL240
 11821 2786 33070000 		.4byte	.LVL285-1
 11822 278a 0200     		.2byte	0x2
 11823 278c 91       		.byte	0x91
 11824 278d 50       		.sleb128 -48
 11825 278e 00000000 		.4byte	0
 11826 2792 00000000 		.4byte	0
 11827              	.LLST279:
 11828 2796 3C060000 		.4byte	.LVL240
 11829 279a 5E060000 		.4byte	.LVL245
 11830 279e 0100     		.2byte	0x1
 11831 27a0 53       		.byte	0x53
 11832 27a1 00000000 		.4byte	0
 11833 27a5 00000000 		.4byte	0
ARM GAS  C:\Users\atsu\AppData\Local\Temp\ccFWVBKl.s 			page 221


 11834              	.LLST280:
 11835 27a9 3C060000 		.4byte	.LVL240
 11836 27ad 74060000 		.4byte	.LVL249
 11837 27b1 0100     		.2byte	0x1
 11838 27b3 52       		.byte	0x52
 11839 27b4 00000000 		.4byte	0
 11840 27b8 00000000 		.4byte	0
 11841              	.LLST281:
 11842 27bc 3C060000 		.4byte	.LVL240
 11843 27c0 8A060000 		.4byte	.LVL253
 11844 27c4 0100     		.2byte	0x1
 11845 27c6 50       		.byte	0x50
 11846 27c7 00000000 		.4byte	0
 11847 27cb 00000000 		.4byte	0
 11848              	.LLST282:
 11849 27cf 3C060000 		.4byte	.LVL240
 11850 27d3 4A060000 		.4byte	.LVL241
 11851 27d7 0100     		.2byte	0x1
 11852 27d9 51       		.byte	0x51
 11853 27da 4C060000 		.4byte	.LVL242
 11854 27de 4E060000 		.4byte	.LVL243
 11855 27e2 0D00     		.2byte	0xd
 11856 27e4 74       		.byte	0x74
 11857 27e5 00       		.sleb128 0
 11858 27e6 41       		.byte	0x41
 11859 27e7 14       		.byte	0x14
 11860 27e8 14       		.byte	0x14
 11861 27e9 1F       		.byte	0x1f
 11862 27ea 23       		.byte	0x23
 11863 27eb 20       		.uleb128 0x20
 11864 27ec 24       		.byte	0x24
 11865 27ed 17       		.byte	0x17
 11866 27ee 25       		.byte	0x25
 11867 27ef 21       		.byte	0x21
 11868 27f0 9F       		.byte	0x9f
 11869 27f1 4E060000 		.4byte	.LVL243
 11870 27f5 50060000 		.4byte	.LVL244
 11871 27f9 0100     		.2byte	0x1
 11872 27fb 54       		.byte	0x54
 11873 27fc 50060000 		.4byte	.LVL244
 11874 2800 9E060000 		.4byte	.LVL257
 11875 2804 0100     		.2byte	0x1
 11876 2806 51       		.byte	0x51
 11877 2807 00000000 		.4byte	0
 11878 280b 00000000 		.4byte	0
 11879              	.LLST283:
 11880 280f 50060000 		.4byte	.LVL244
 11881 2813 33070000 		.4byte	.LVL285-1
 11882 2817 0300     		.2byte	0x3
 11883 2819 91       		.byte	0x91
 11884 281a AC7F     		.sleb128 -84
 11885 281c 00000000 		.4byte	0
 11886 2820 00000000 		.4byte	0
 11887              	.LLST284:
 11888 2824 50060000 		.4byte	.LVL244
 11889 2828 74060000 		.4byte	.LVL249
 11890 282c 0100     		.2byte	0x1
ARM GAS  C:\Users\atsu\AppData\Local\Temp\ccFWVBKl.s 			page 222


 11891 282e 52       		.byte	0x52
 11892 282f 00000000 		.4byte	0
 11893 2833 00000000 		.4byte	0
 11894              	.LLST285:
 11895 2837 50060000 		.4byte	.LVL244
 11896 283b 8A060000 		.4byte	.LVL253
 11897 283f 0100     		.2byte	0x1
 11898 2841 50       		.byte	0x50
 11899 2842 00000000 		.4byte	0
 11900 2846 00000000 		.4byte	0
 11901              	.LLST286:
 11902 284a 50060000 		.4byte	.LVL244
 11903 284e 9E060000 		.4byte	.LVL257
 11904 2852 0100     		.2byte	0x1
 11905 2854 51       		.byte	0x51
 11906 2855 00000000 		.4byte	0
 11907 2859 00000000 		.4byte	0
 11908              	.LLST287:
 11909 285d 50060000 		.4byte	.LVL244
 11910 2861 5E060000 		.4byte	.LVL245
 11911 2865 0100     		.2byte	0x1
 11912 2867 53       		.byte	0x53
 11913 2868 60060000 		.4byte	.LVL246
 11914 286c 64060000 		.4byte	.LVL247
 11915 2870 0D00     		.2byte	0xd
 11916 2872 74       		.byte	0x74
 11917 2873 00       		.sleb128 0
 11918 2874 3B       		.byte	0x3b
 11919 2875 14       		.byte	0x14
 11920 2876 14       		.byte	0x14
 11921 2877 1F       		.byte	0x1f
 11922 2878 23       		.byte	0x23
 11923 2879 20       		.uleb128 0x20
 11924 287a 24       		.byte	0x24
 11925 287b 17       		.byte	0x17
 11926 287c 25       		.byte	0x25
 11927 287d 21       		.byte	0x21
 11928 287e 9F       		.byte	0x9f
 11929 287f 64060000 		.4byte	.LVL247
 11930 2883 66060000 		.4byte	.LVL248
 11931 2887 0100     		.2byte	0x1
 11932 2889 54       		.byte	0x54
 11933 288a 66060000 		.4byte	.LVL248
 11934 288e B2060000 		.4byte	.LVL261
 11935 2892 0100     		.2byte	0x1
 11936 2894 53       		.byte	0x53
 11937 2895 00000000 		.4byte	0
 11938 2899 00000000 		.4byte	0
 11939              	.LLST288:
 11940 289d 66060000 		.4byte	.LVL248
 11941 28a1 33070000 		.4byte	.LVL285-1
 11942 28a5 0200     		.2byte	0x2
 11943 28a7 91       		.byte	0x91
 11944 28a8 48       		.sleb128 -56
 11945 28a9 00000000 		.4byte	0
 11946 28ad 00000000 		.4byte	0
 11947              	.LLST289:
ARM GAS  C:\Users\atsu\AppData\Local\Temp\ccFWVBKl.s 			page 223


 11948 28b1 66060000 		.4byte	.LVL248
 11949 28b5 8A060000 		.4byte	.LVL253
 11950 28b9 0100     		.2byte	0x1
 11951 28bb 50       		.byte	0x50
 11952 28bc 00000000 		.4byte	0
 11953 28c0 00000000 		.4byte	0
 11954              	.LLST290:
 11955 28c4 66060000 		.4byte	.LVL248
 11956 28c8 9E060000 		.4byte	.LVL257
 11957 28cc 0100     		.2byte	0x1
 11958 28ce 51       		.byte	0x51
 11959 28cf 00000000 		.4byte	0
 11960 28d3 00000000 		.4byte	0
 11961              	.LLST291:
 11962 28d7 66060000 		.4byte	.LVL248
 11963 28db B2060000 		.4byte	.LVL261
 11964 28df 0100     		.2byte	0x1
 11965 28e1 53       		.byte	0x53
 11966 28e2 00000000 		.4byte	0
 11967 28e6 00000000 		.4byte	0
 11968              	.LLST292:
 11969 28ea 66060000 		.4byte	.LVL248
 11970 28ee 74060000 		.4byte	.LVL249
 11971 28f2 0100     		.2byte	0x1
 11972 28f4 52       		.byte	0x52
 11973 28f5 76060000 		.4byte	.LVL250
 11974 28f9 7A060000 		.4byte	.LVL251
 11975 28fd 0D00     		.2byte	0xd
 11976 28ff 75       		.byte	0x75
 11977 2900 00       		.sleb128 0
 11978 2901 4A       		.byte	0x4a
 11979 2902 14       		.byte	0x14
 11980 2903 14       		.byte	0x14
 11981 2904 1F       		.byte	0x1f
 11982 2905 23       		.byte	0x23
 11983 2906 20       		.uleb128 0x20
 11984 2907 24       		.byte	0x24
 11985 2908 17       		.byte	0x17
 11986 2909 25       		.byte	0x25
 11987 290a 21       		.byte	0x21
 11988 290b 9F       		.byte	0x9f
 11989 290c 7A060000 		.4byte	.LVL251
 11990 2910 7C060000 		.4byte	.LVL252
 11991 2914 0100     		.2byte	0x1
 11992 2916 55       		.byte	0x55
 11993 2917 7C060000 		.4byte	.LVL252
 11994 291b C8060000 		.4byte	.LVL265
 11995 291f 0100     		.2byte	0x1
 11996 2921 52       		.byte	0x52
 11997 2922 00000000 		.4byte	0
 11998 2926 00000000 		.4byte	0
 11999              	.LLST293:
 12000 292a 7C060000 		.4byte	.LVL252
 12001 292e 33070000 		.4byte	.LVL285-1
 12002 2932 0200     		.2byte	0x2
 12003 2934 91       		.byte	0x91
 12004 2935 64       		.sleb128 -28
ARM GAS  C:\Users\atsu\AppData\Local\Temp\ccFWVBKl.s 			page 224


 12005 2936 00000000 		.4byte	0
 12006 293a 00000000 		.4byte	0
 12007              	.LLST294:
 12008 293e 7C060000 		.4byte	.LVL252
 12009 2942 9E060000 		.4byte	.LVL257
 12010 2946 0100     		.2byte	0x1
 12011 2948 51       		.byte	0x51
 12012 2949 00000000 		.4byte	0
 12013 294d 00000000 		.4byte	0
 12014              	.LLST295:
 12015 2951 7C060000 		.4byte	.LVL252
 12016 2955 B2060000 		.4byte	.LVL261
 12017 2959 0100     		.2byte	0x1
 12018 295b 53       		.byte	0x53
 12019 295c 00000000 		.4byte	0
 12020 2960 00000000 		.4byte	0
 12021              	.LLST296:
 12022 2964 7C060000 		.4byte	.LVL252
 12023 2968 C8060000 		.4byte	.LVL265
 12024 296c 0100     		.2byte	0x1
 12025 296e 52       		.byte	0x52
 12026 296f 00000000 		.4byte	0
 12027 2973 00000000 		.4byte	0
 12028              	.LLST297:
 12029 2977 7C060000 		.4byte	.LVL252
 12030 297b 8A060000 		.4byte	.LVL253
 12031 297f 0100     		.2byte	0x1
 12032 2981 50       		.byte	0x50
 12033 2982 8C060000 		.4byte	.LVL254
 12034 2986 8E060000 		.4byte	.LVL255
 12035 298a 0D00     		.2byte	0xd
 12036 298c 74       		.byte	0x74
 12037 298d 00       		.sleb128 0
 12038 298e 46       		.byte	0x46
 12039 298f 14       		.byte	0x14
 12040 2990 14       		.byte	0x14
 12041 2991 1F       		.byte	0x1f
 12042 2992 23       		.byte	0x23
 12043 2993 20       		.uleb128 0x20
 12044 2994 24       		.byte	0x24
 12045 2995 17       		.byte	0x17
 12046 2996 25       		.byte	0x25
 12047 2997 21       		.byte	0x21
 12048 2998 9F       		.byte	0x9f
 12049 2999 8E060000 		.4byte	.LVL255
 12050 299d 90060000 		.4byte	.LVL256
 12051 29a1 0100     		.2byte	0x1
 12052 29a3 54       		.byte	0x54
 12053 29a4 90060000 		.4byte	.LVL256
 12054 29a8 DE060000 		.4byte	.LVL269
 12055 29ac 0100     		.2byte	0x1
 12056 29ae 50       		.byte	0x50
 12057 29af 00000000 		.4byte	0
 12058 29b3 00000000 		.4byte	0
 12059              	.LLST298:
 12060 29b7 90060000 		.4byte	.LVL256
 12061 29bb 33070000 		.4byte	.LVL285-1
ARM GAS  C:\Users\atsu\AppData\Local\Temp\ccFWVBKl.s 			page 225


 12062 29bf 0200     		.2byte	0x2
 12063 29c1 91       		.byte	0x91
 12064 29c2 40       		.sleb128 -64
 12065 29c3 00000000 		.4byte	0
 12066 29c7 00000000 		.4byte	0
 12067              	.LLST299:
 12068 29cb 90060000 		.4byte	.LVL256
 12069 29cf B2060000 		.4byte	.LVL261
 12070 29d3 0100     		.2byte	0x1
 12071 29d5 53       		.byte	0x53
 12072 29d6 00000000 		.4byte	0
 12073 29da 00000000 		.4byte	0
 12074              	.LLST300:
 12075 29de 90060000 		.4byte	.LVL256
 12076 29e2 C8060000 		.4byte	.LVL265
 12077 29e6 0100     		.2byte	0x1
 12078 29e8 52       		.byte	0x52
 12079 29e9 00000000 		.4byte	0
 12080 29ed 00000000 		.4byte	0
 12081              	.LLST301:
 12082 29f1 90060000 		.4byte	.LVL256
 12083 29f5 DE060000 		.4byte	.LVL269
 12084 29f9 0100     		.2byte	0x1
 12085 29fb 50       		.byte	0x50
 12086 29fc 00000000 		.4byte	0
 12087 2a00 00000000 		.4byte	0
 12088              	.LLST302:
 12089 2a04 90060000 		.4byte	.LVL256
 12090 2a08 9E060000 		.4byte	.LVL257
 12091 2a0c 0100     		.2byte	0x1
 12092 2a0e 51       		.byte	0x51
 12093 2a0f A0060000 		.4byte	.LVL258
 12094 2a13 A2060000 		.4byte	.LVL259
 12095 2a17 0D00     		.2byte	0xd
 12096 2a19 74       		.byte	0x74
 12097 2a1a 00       		.sleb128 0
 12098 2a1b 41       		.byte	0x41
 12099 2a1c 14       		.byte	0x14
 12100 2a1d 14       		.byte	0x14
 12101 2a1e 1F       		.byte	0x1f
 12102 2a1f 23       		.byte	0x23
 12103 2a20 20       		.uleb128 0x20
 12104 2a21 24       		.byte	0x24
 12105 2a22 17       		.byte	0x17
 12106 2a23 25       		.byte	0x25
 12107 2a24 21       		.byte	0x21
 12108 2a25 9F       		.byte	0x9f
 12109 2a26 A2060000 		.4byte	.LVL259
 12110 2a2a A4060000 		.4byte	.LVL260
 12111 2a2e 0100     		.2byte	0x1
 12112 2a30 54       		.byte	0x54
 12113 2a31 A4060000 		.4byte	.LVL260
 12114 2a35 F0060000 		.4byte	.LVL273
 12115 2a39 0100     		.2byte	0x1
 12116 2a3b 51       		.byte	0x51
 12117 2a3c 00000000 		.4byte	0
 12118 2a40 00000000 		.4byte	0
ARM GAS  C:\Users\atsu\AppData\Local\Temp\ccFWVBKl.s 			page 226


 12119              	.LLST303:
 12120 2a44 A4060000 		.4byte	.LVL260
 12121 2a48 33070000 		.4byte	.LVL285-1
 12122 2a4c 0200     		.2byte	0x2
 12123 2a4e 91       		.byte	0x91
 12124 2a4f 5C       		.sleb128 -36
 12125 2a50 00000000 		.4byte	0
 12126 2a54 00000000 		.4byte	0
 12127              	.LLST304:
 12128 2a58 A4060000 		.4byte	.LVL260
 12129 2a5c C8060000 		.4byte	.LVL265
 12130 2a60 0100     		.2byte	0x1
 12131 2a62 52       		.byte	0x52
 12132 2a63 00000000 		.4byte	0
 12133 2a67 00000000 		.4byte	0
 12134              	.LLST305:
 12135 2a6b A4060000 		.4byte	.LVL260
 12136 2a6f DE060000 		.4byte	.LVL269
 12137 2a73 0100     		.2byte	0x1
 12138 2a75 50       		.byte	0x50
 12139 2a76 00000000 		.4byte	0
 12140 2a7a 00000000 		.4byte	0
 12141              	.LLST306:
 12142 2a7e A4060000 		.4byte	.LVL260
 12143 2a82 F0060000 		.4byte	.LVL273
 12144 2a86 0100     		.2byte	0x1
 12145 2a88 51       		.byte	0x51
 12146 2a89 00000000 		.4byte	0
 12147 2a8d 00000000 		.4byte	0
 12148              	.LLST307:
 12149 2a91 A4060000 		.4byte	.LVL260
 12150 2a95 B2060000 		.4byte	.LVL261
 12151 2a99 0100     		.2byte	0x1
 12152 2a9b 53       		.byte	0x53
 12153 2a9c B4060000 		.4byte	.LVL262
 12154 2aa0 B8060000 		.4byte	.LVL263
 12155 2aa4 0D00     		.2byte	0xd
 12156 2aa6 74       		.byte	0x74
 12157 2aa7 00       		.sleb128 0
 12158 2aa8 3B       		.byte	0x3b
 12159 2aa9 14       		.byte	0x14
 12160 2aaa 14       		.byte	0x14
 12161 2aab 1F       		.byte	0x1f
 12162 2aac 23       		.byte	0x23
 12163 2aad 20       		.uleb128 0x20
 12164 2aae 24       		.byte	0x24
 12165 2aaf 17       		.byte	0x17
 12166 2ab0 25       		.byte	0x25
 12167 2ab1 21       		.byte	0x21
 12168 2ab2 9F       		.byte	0x9f
 12169 2ab3 B8060000 		.4byte	.LVL263
 12170 2ab7 BA060000 		.4byte	.LVL264
 12171 2abb 0100     		.2byte	0x1
 12172 2abd 54       		.byte	0x54
 12173 2abe BA060000 		.4byte	.LVL264
 12174 2ac2 10070000 		.4byte	.LVL279
 12175 2ac6 0100     		.2byte	0x1
ARM GAS  C:\Users\atsu\AppData\Local\Temp\ccFWVBKl.s 			page 227


 12176 2ac8 53       		.byte	0x53
 12177 2ac9 00000000 		.4byte	0
 12178 2acd 00000000 		.4byte	0
 12179              	.LLST308:
 12180 2ad1 BA060000 		.4byte	.LVL264
 12181 2ad5 33070000 		.4byte	.LVL285-1
 12182 2ad9 0300     		.2byte	0x3
 12183 2adb 91       		.byte	0x91
 12184 2adc B87F     		.sleb128 -72
 12185 2ade 00000000 		.4byte	0
 12186 2ae2 00000000 		.4byte	0
 12187              	.LLST309:
 12188 2ae6 BA060000 		.4byte	.LVL264
 12189 2aea DE060000 		.4byte	.LVL269
 12190 2aee 0100     		.2byte	0x1
 12191 2af0 50       		.byte	0x50
 12192 2af1 00000000 		.4byte	0
 12193 2af5 00000000 		.4byte	0
 12194              	.LLST310:
 12195 2af9 BA060000 		.4byte	.LVL264
 12196 2afd F0060000 		.4byte	.LVL273
 12197 2b01 0100     		.2byte	0x1
 12198 2b03 51       		.byte	0x51
 12199 2b04 00000000 		.4byte	0
 12200 2b08 00000000 		.4byte	0
 12201              	.LLST311:
 12202 2b0c BA060000 		.4byte	.LVL264
 12203 2b10 10070000 		.4byte	.LVL279
 12204 2b14 0100     		.2byte	0x1
 12205 2b16 53       		.byte	0x53
 12206 2b17 00000000 		.4byte	0
 12207 2b1b 00000000 		.4byte	0
 12208              	.LLST312:
 12209 2b1f BA060000 		.4byte	.LVL264
 12210 2b23 C8060000 		.4byte	.LVL265
 12211 2b27 0100     		.2byte	0x1
 12212 2b29 52       		.byte	0x52
 12213 2b2a CA060000 		.4byte	.LVL266
 12214 2b2e CE060000 		.4byte	.LVL267
 12215 2b32 0D00     		.2byte	0xd
 12216 2b34 75       		.byte	0x75
 12217 2b35 00       		.sleb128 0
 12218 2b36 4A       		.byte	0x4a
 12219 2b37 14       		.byte	0x14
 12220 2b38 14       		.byte	0x14
 12221 2b39 1F       		.byte	0x1f
 12222 2b3a 23       		.byte	0x23
 12223 2b3b 20       		.uleb128 0x20
 12224 2b3c 24       		.byte	0x24
 12225 2b3d 17       		.byte	0x17
 12226 2b3e 25       		.byte	0x25
 12227 2b3f 21       		.byte	0x21
 12228 2b40 9F       		.byte	0x9f
 12229 2b41 CE060000 		.4byte	.LVL267
 12230 2b45 D0060000 		.4byte	.LVL268
 12231 2b49 0100     		.2byte	0x1
 12232 2b4b 55       		.byte	0x55
ARM GAS  C:\Users\atsu\AppData\Local\Temp\ccFWVBKl.s 			page 228


 12233 2b4c D0060000 		.4byte	.LVL268
 12234 2b50 04070000 		.4byte	.LVL277
 12235 2b54 0100     		.2byte	0x1
 12236 2b56 52       		.byte	0x52
 12237 2b57 04070000 		.4byte	.LVL277
 12238 2b5b 08070000 		.4byte	.LVL278
 12239 2b5f 0400     		.2byte	0x4
 12240 2b61 76       		.byte	0x76
 12241 2b62 00       		.sleb128 0
 12242 2b63 20       		.byte	0x20
 12243 2b64 9F       		.byte	0x9f
 12244 2b65 00000000 		.4byte	0
 12245 2b69 00000000 		.4byte	0
 12246              	.LLST313:
 12247 2b6d D0060000 		.4byte	.LVL268
 12248 2b71 33070000 		.4byte	.LVL285-1
 12249 2b75 0200     		.2byte	0x2
 12250 2b77 91       		.byte	0x91
 12251 2b78 54       		.sleb128 -44
 12252 2b79 00000000 		.4byte	0
 12253 2b7d 00000000 		.4byte	0
 12254              	.LLST314:
 12255 2b81 D0060000 		.4byte	.LVL268
 12256 2b85 F0060000 		.4byte	.LVL273
 12257 2b89 0100     		.2byte	0x1
 12258 2b8b 51       		.byte	0x51
 12259 2b8c 00000000 		.4byte	0
 12260 2b90 00000000 		.4byte	0
 12261              	.LLST315:
 12262 2b94 D0060000 		.4byte	.LVL268
 12263 2b98 10070000 		.4byte	.LVL279
 12264 2b9c 0100     		.2byte	0x1
 12265 2b9e 53       		.byte	0x53
 12266 2b9f 00000000 		.4byte	0
 12267 2ba3 00000000 		.4byte	0
 12268              	.LLST316:
 12269 2ba7 D0060000 		.4byte	.LVL268
 12270 2bab 04070000 		.4byte	.LVL277
 12271 2baf 0100     		.2byte	0x1
 12272 2bb1 52       		.byte	0x52
 12273 2bb2 04070000 		.4byte	.LVL277
 12274 2bb6 08070000 		.4byte	.LVL278
 12275 2bba 0400     		.2byte	0x4
 12276 2bbc 76       		.byte	0x76
 12277 2bbd 00       		.sleb128 0
 12278 2bbe 20       		.byte	0x20
 12279 2bbf 9F       		.byte	0x9f
 12280 2bc0 00000000 		.4byte	0
 12281 2bc4 00000000 		.4byte	0
 12282              	.LLST317:
 12283 2bc8 D0060000 		.4byte	.LVL268
 12284 2bcc DE060000 		.4byte	.LVL269
 12285 2bd0 0100     		.2byte	0x1
 12286 2bd2 50       		.byte	0x50
 12287 2bd3 E0060000 		.4byte	.LVL270
 12288 2bd7 E2060000 		.4byte	.LVL271
 12289 2bdb 0D00     		.2byte	0xd
ARM GAS  C:\Users\atsu\AppData\Local\Temp\ccFWVBKl.s 			page 229


 12290 2bdd 74       		.byte	0x74
 12291 2bde 00       		.sleb128 0
 12292 2bdf 46       		.byte	0x46
 12293 2be0 14       		.byte	0x14
 12294 2be1 14       		.byte	0x14
 12295 2be2 1F       		.byte	0x1f
 12296 2be3 23       		.byte	0x23
 12297 2be4 20       		.uleb128 0x20
 12298 2be5 24       		.byte	0x24
 12299 2be6 17       		.byte	0x17
 12300 2be7 25       		.byte	0x25
 12301 2be8 21       		.byte	0x21
 12302 2be9 9F       		.byte	0x9f
 12303 2bea E2060000 		.4byte	.LVL271
 12304 2bee E8060000 		.4byte	.LVL272
 12305 2bf2 0100     		.2byte	0x1
 12306 2bf4 54       		.byte	0x54
 12307 2bf5 E8060000 		.4byte	.LVL272
 12308 2bf9 28070000 		.4byte	.LVL283
 12309 2bfd 0100     		.2byte	0x1
 12310 2bff 50       		.byte	0x50
 12311 2c00 00000000 		.4byte	0
 12312 2c04 00000000 		.4byte	0
 12313              	.LLST318:
 12314 2c08 E8060000 		.4byte	.LVL272
 12315 2c0c 33070000 		.4byte	.LVL285-1
 12316 2c10 0300     		.2byte	0x3
 12317 2c12 91       		.byte	0x91
 12318 2c13 B07F     		.sleb128 -80
 12319 2c15 00000000 		.4byte	0
 12320 2c19 00000000 		.4byte	0
 12321              	.LLST319:
 12322 2c1d E8060000 		.4byte	.LVL272
 12323 2c21 10070000 		.4byte	.LVL279
 12324 2c25 0100     		.2byte	0x1
 12325 2c27 53       		.byte	0x53
 12326 2c28 00000000 		.4byte	0
 12327 2c2c 00000000 		.4byte	0
 12328              	.LLST320:
 12329 2c30 E8060000 		.4byte	.LVL272
 12330 2c34 04070000 		.4byte	.LVL277
 12331 2c38 0100     		.2byte	0x1
 12332 2c3a 52       		.byte	0x52
 12333 2c3b 04070000 		.4byte	.LVL277
 12334 2c3f 08070000 		.4byte	.LVL278
 12335 2c43 0400     		.2byte	0x4
 12336 2c45 76       		.byte	0x76
 12337 2c46 00       		.sleb128 0
 12338 2c47 20       		.byte	0x20
 12339 2c48 9F       		.byte	0x9f
 12340 2c49 00000000 		.4byte	0
 12341 2c4d 00000000 		.4byte	0
 12342              	.LLST321:
 12343 2c51 E8060000 		.4byte	.LVL272
 12344 2c55 28070000 		.4byte	.LVL283
 12345 2c59 0100     		.2byte	0x1
 12346 2c5b 50       		.byte	0x50
ARM GAS  C:\Users\atsu\AppData\Local\Temp\ccFWVBKl.s 			page 230


 12347 2c5c 00000000 		.4byte	0
 12348 2c60 00000000 		.4byte	0
 12349              	.LLST322:
 12350 2c64 E8060000 		.4byte	.LVL272
 12351 2c68 F0060000 		.4byte	.LVL273
 12352 2c6c 0100     		.2byte	0x1
 12353 2c6e 51       		.byte	0x51
 12354 2c6f F4060000 		.4byte	.LVL274
 12355 2c73 F6060000 		.4byte	.LVL275
 12356 2c77 0D00     		.2byte	0xd
 12357 2c79 76       		.byte	0x76
 12358 2c7a 00       		.sleb128 0
 12359 2c7b 41       		.byte	0x41
 12360 2c7c 14       		.byte	0x14
 12361 2c7d 14       		.byte	0x14
 12362 2c7e 1F       		.byte	0x1f
 12363 2c7f 23       		.byte	0x23
 12364 2c80 20       		.uleb128 0x20
 12365 2c81 24       		.byte	0x24
 12366 2c82 17       		.byte	0x17
 12367 2c83 25       		.byte	0x25
 12368 2c84 21       		.byte	0x21
 12369 2c85 9F       		.byte	0x9f
 12370 2c86 F6060000 		.4byte	.LVL275
 12371 2c8a FC060000 		.4byte	.LVL276
 12372 2c8e 0100     		.2byte	0x1
 12373 2c90 56       		.byte	0x56
 12374 2c91 FC060000 		.4byte	.LVL276
 12375 2c95 1E070000 		.4byte	.LVL282
 12376 2c99 0100     		.2byte	0x1
 12377 2c9b 51       		.byte	0x51
 12378 2c9c 00000000 		.4byte	0
 12379 2ca0 00000000 		.4byte	0
 12380              	.LLST323:
 12381 2ca4 FC060000 		.4byte	.LVL276
 12382 2ca8 33070000 		.4byte	.LVL285-1
 12383 2cac 0200     		.2byte	0x2
 12384 2cae 91       		.byte	0x91
 12385 2caf 4C       		.sleb128 -52
 12386 2cb0 00000000 		.4byte	0
 12387 2cb4 00000000 		.4byte	0
 12388              	.LLST324:
 12389 2cb8 FC060000 		.4byte	.LVL276
 12390 2cbc 04070000 		.4byte	.LVL277
 12391 2cc0 0100     		.2byte	0x1
 12392 2cc2 52       		.byte	0x52
 12393 2cc3 04070000 		.4byte	.LVL277
 12394 2cc7 08070000 		.4byte	.LVL278
 12395 2ccb 0400     		.2byte	0x4
 12396 2ccd 76       		.byte	0x76
 12397 2cce 00       		.sleb128 0
 12398 2ccf 20       		.byte	0x20
 12399 2cd0 9F       		.byte	0x9f
 12400 2cd1 00000000 		.4byte	0
 12401 2cd5 00000000 		.4byte	0
 12402              	.LLST325:
 12403 2cd9 FC060000 		.4byte	.LVL276
ARM GAS  C:\Users\atsu\AppData\Local\Temp\ccFWVBKl.s 			page 231


 12404 2cdd 28070000 		.4byte	.LVL283
 12405 2ce1 0100     		.2byte	0x1
 12406 2ce3 50       		.byte	0x50
 12407 2ce4 00000000 		.4byte	0
 12408 2ce8 00000000 		.4byte	0
 12409              	.LLST326:
 12410 2cec FC060000 		.4byte	.LVL276
 12411 2cf0 1E070000 		.4byte	.LVL282
 12412 2cf4 0100     		.2byte	0x1
 12413 2cf6 51       		.byte	0x51
 12414 2cf7 00000000 		.4byte	0
 12415 2cfb 00000000 		.4byte	0
 12416              	.LLST327:
 12417 2cff FC060000 		.4byte	.LVL276
 12418 2d03 10070000 		.4byte	.LVL279
 12419 2d07 0100     		.2byte	0x1
 12420 2d09 53       		.byte	0x53
 12421 2d0a 16070000 		.4byte	.LVL280
 12422 2d0e 18070000 		.4byte	.LVL281
 12423 2d12 1000     		.2byte	0x10
 12424 2d14 73       		.byte	0x73
 12425 2d15 00       		.sleb128 0
 12426 2d16 3B       		.byte	0x3b
 12427 2d17 14       		.byte	0x14
 12428 2d18 14       		.byte	0x14
 12429 2d19 1F       		.byte	0x1f
 12430 2d1a 23       		.byte	0x23
 12431 2d1b 20       		.uleb128 0x20
 12432 2d1c 24       		.byte	0x24
 12433 2d1d 17       		.byte	0x17
 12434 2d1e 25       		.byte	0x25
 12435 2d1f 21       		.byte	0x21
 12436 2d20 71       		.byte	0x71
 12437 2d21 00       		.sleb128 0
 12438 2d22 22       		.byte	0x22
 12439 2d23 9F       		.byte	0x9f
 12440 2d24 00000000 		.4byte	0
 12441 2d28 00000000 		.4byte	0
 12442              	.LLST328:
 12443 2d2c 00000000 		.4byte	.LFB0
 12444 2d30 02000000 		.4byte	.LCFI3
 12445 2d34 0200     		.2byte	0x2
 12446 2d36 7D       		.byte	0x7d
 12447 2d37 00       		.sleb128 0
 12448 2d38 02000000 		.4byte	.LCFI3
 12449 2d3c 20000000 		.4byte	.LFE0
 12450 2d40 0200     		.2byte	0x2
 12451 2d42 7D       		.byte	0x7d
 12452 2d43 0C       		.sleb128 12
 12453 2d44 00000000 		.4byte	0
 12454 2d48 00000000 		.4byte	0
 12455              	.LLST329:
 12456 2d4c 00000000 		.4byte	.LVL286
 12457 2d50 0A000000 		.4byte	.LVL288
 12458 2d54 0100     		.2byte	0x1
 12459 2d56 50       		.byte	0x50
 12460 2d57 0A000000 		.4byte	.LVL288
ARM GAS  C:\Users\atsu\AppData\Local\Temp\ccFWVBKl.s 			page 232


 12461 2d5b 18000000 		.4byte	.LVL290
 12462 2d5f 0400     		.2byte	0x4
 12463 2d61 F3       		.byte	0xf3
 12464 2d62 01       		.uleb128 0x1
 12465 2d63 50       		.byte	0x50
 12466 2d64 9F       		.byte	0x9f
 12467 2d65 18000000 		.4byte	.LVL290
 12468 2d69 1C000000 		.4byte	.LVL291
 12469 2d6d 0100     		.2byte	0x1
 12470 2d6f 50       		.byte	0x50
 12471 2d70 1C000000 		.4byte	.LVL291
 12472 2d74 1E000000 		.4byte	.LVL292
 12473 2d78 0600     		.2byte	0x6
 12474 2d7a 70       		.byte	0x70
 12475 2d7b 00       		.sleb128 0
 12476 2d7c 71       		.byte	0x71
 12477 2d7d 00       		.sleb128 0
 12478 2d7e 22       		.byte	0x22
 12479 2d7f 9F       		.byte	0x9f
 12480 2d80 1E000000 		.4byte	.LVL292
 12481 2d84 20000000 		.4byte	.LFE0
 12482 2d88 0100     		.2byte	0x1
 12483 2d8a 50       		.byte	0x50
 12484 2d8b 00000000 		.4byte	0
 12485 2d8f 00000000 		.4byte	0
 12486              	.LLST330:
 12487 2d93 00000000 		.4byte	.LVL286
 12488 2d97 06000000 		.4byte	.LVL287
 12489 2d9b 0100     		.2byte	0x1
 12490 2d9d 52       		.byte	0x52
 12491 2d9e 06000000 		.4byte	.LVL287
 12492 2da2 20000000 		.4byte	.LFE0
 12493 2da6 0400     		.2byte	0x4
 12494 2da8 F3       		.byte	0xf3
 12495 2da9 01       		.uleb128 0x1
 12496 2daa 52       		.byte	0x52
 12497 2dab 9F       		.byte	0x9f
 12498 2dac 00000000 		.4byte	0
 12499 2db0 00000000 		.4byte	0
 12500              	.LLST331:
 12501 2db4 00000000 		.4byte	.LVL286
 12502 2db8 12000000 		.4byte	.LVL289
 12503 2dbc 0100     		.2byte	0x1
 12504 2dbe 53       		.byte	0x53
 12505 2dbf 12000000 		.4byte	.LVL289
 12506 2dc3 20000000 		.4byte	.LFE0
 12507 2dc7 0400     		.2byte	0x4
 12508 2dc9 F3       		.byte	0xf3
 12509 2dca 01       		.uleb128 0x1
 12510 2dcb 53       		.byte	0x53
 12511 2dcc 9F       		.byte	0x9f
 12512 2dcd 00000000 		.4byte	0
 12513 2dd1 00000000 		.4byte	0
 12514              	.LLST332:
 12515 2dd5 00000000 		.4byte	.LFB1
 12516 2dd9 02000000 		.4byte	.LCFI4
 12517 2ddd 0200     		.2byte	0x2
ARM GAS  C:\Users\atsu\AppData\Local\Temp\ccFWVBKl.s 			page 233


 12518 2ddf 7D       		.byte	0x7d
 12519 2de0 00       		.sleb128 0
 12520 2de1 02000000 		.4byte	.LCFI4
 12521 2de5 1E000000 		.4byte	.LFE1
 12522 2de9 0200     		.2byte	0x2
 12523 2deb 7D       		.byte	0x7d
 12524 2dec 0C       		.sleb128 12
 12525 2ded 00000000 		.4byte	0
 12526 2df1 00000000 		.4byte	0
 12527              	.LLST333:
 12528 2df5 00000000 		.4byte	.LVL293
 12529 2df9 0E000000 		.4byte	.LVL296
 12530 2dfd 0100     		.2byte	0x1
 12531 2dff 50       		.byte	0x50
 12532 2e00 0E000000 		.4byte	.LVL296
 12533 2e04 16000000 		.4byte	.LVL297
 12534 2e08 0400     		.2byte	0x4
 12535 2e0a F3       		.byte	0xf3
 12536 2e0b 01       		.uleb128 0x1
 12537 2e0c 50       		.byte	0x50
 12538 2e0d 9F       		.byte	0x9f
 12539 2e0e 16000000 		.4byte	.LVL297
 12540 2e12 1A000000 		.4byte	.LVL298
 12541 2e16 0100     		.2byte	0x1
 12542 2e18 52       		.byte	0x52
 12543 2e19 1A000000 		.4byte	.LVL298
 12544 2e1d 1C000000 		.4byte	.LVL299
 12545 2e21 0600     		.2byte	0x6
 12546 2e23 72       		.byte	0x72
 12547 2e24 00       		.sleb128 0
 12548 2e25 71       		.byte	0x71
 12549 2e26 00       		.sleb128 0
 12550 2e27 22       		.byte	0x22
 12551 2e28 9F       		.byte	0x9f
 12552 2e29 1C000000 		.4byte	.LVL299
 12553 2e2d 1E000000 		.4byte	.LFE1
 12554 2e31 0100     		.2byte	0x1
 12555 2e33 50       		.byte	0x50
 12556 2e34 00000000 		.4byte	0
 12557 2e38 00000000 		.4byte	0
 12558              	.LLST334:
 12559 2e3c 00000000 		.4byte	.LVL293
 12560 2e40 06000000 		.4byte	.LVL294
 12561 2e44 0100     		.2byte	0x1
 12562 2e46 52       		.byte	0x52
 12563 2e47 06000000 		.4byte	.LVL294
 12564 2e4b 1E000000 		.4byte	.LFE1
 12565 2e4f 0400     		.2byte	0x4
 12566 2e51 F3       		.byte	0xf3
 12567 2e52 01       		.uleb128 0x1
 12568 2e53 52       		.byte	0x52
 12569 2e54 9F       		.byte	0x9f
 12570 2e55 00000000 		.4byte	0
 12571 2e59 00000000 		.4byte	0
 12572              	.LLST335:
 12573 2e5d 00000000 		.4byte	.LVL293
 12574 2e61 08000000 		.4byte	.LVL295
ARM GAS  C:\Users\atsu\AppData\Local\Temp\ccFWVBKl.s 			page 234


 12575 2e65 0100     		.2byte	0x1
 12576 2e67 53       		.byte	0x53
 12577 2e68 08000000 		.4byte	.LVL295
 12578 2e6c 1E000000 		.4byte	.LFE1
 12579 2e70 0400     		.2byte	0x4
 12580 2e72 F3       		.byte	0xf3
 12581 2e73 01       		.uleb128 0x1
 12582 2e74 53       		.byte	0x53
 12583 2e75 9F       		.byte	0x9f
 12584 2e76 00000000 		.4byte	0
 12585 2e7a 00000000 		.4byte	0
 12586              	.LLST336:
 12587 2e7e 00000000 		.4byte	.LVL300
 12588 2e82 0C000000 		.4byte	.LVL303
 12589 2e86 0100     		.2byte	0x1
 12590 2e88 50       		.byte	0x50
 12591 2e89 0C000000 		.4byte	.LVL303
 12592 2e8d 0E000000 		.4byte	.LVL304
 12593 2e91 0400     		.2byte	0x4
 12594 2e93 F3       		.byte	0xf3
 12595 2e94 01       		.uleb128 0x1
 12596 2e95 50       		.byte	0x50
 12597 2e96 9F       		.byte	0x9f
 12598 2e97 0E000000 		.4byte	.LVL304
 12599 2e9b 16000000 		.4byte	.LVL305
 12600 2e9f 0100     		.2byte	0x1
 12601 2ea1 50       		.byte	0x50
 12602 2ea2 16000000 		.4byte	.LVL305
 12603 2ea6 18000000 		.4byte	.LVL306
 12604 2eaa 0600     		.2byte	0x6
 12605 2eac 70       		.byte	0x70
 12606 2ead 00       		.sleb128 0
 12607 2eae 71       		.byte	0x71
 12608 2eaf 00       		.sleb128 0
 12609 2eb0 22       		.byte	0x22
 12610 2eb1 9F       		.byte	0x9f
 12611 2eb2 18000000 		.4byte	.LVL306
 12612 2eb6 1A000000 		.4byte	.LFE2
 12613 2eba 0100     		.2byte	0x1
 12614 2ebc 50       		.byte	0x50
 12615 2ebd 00000000 		.4byte	0
 12616 2ec1 00000000 		.4byte	0
 12617              	.LLST337:
 12618 2ec5 00000000 		.4byte	.LVL300
 12619 2ec9 02000000 		.4byte	.LVL301
 12620 2ecd 0100     		.2byte	0x1
 12621 2ecf 52       		.byte	0x52
 12622 2ed0 02000000 		.4byte	.LVL301
 12623 2ed4 1A000000 		.4byte	.LFE2
 12624 2ed8 0400     		.2byte	0x4
 12625 2eda F3       		.byte	0xf3
 12626 2edb 01       		.uleb128 0x1
 12627 2edc 52       		.byte	0x52
 12628 2edd 9F       		.byte	0x9f
 12629 2ede 00000000 		.4byte	0
 12630 2ee2 00000000 		.4byte	0
 12631              	.LLST338:
ARM GAS  C:\Users\atsu\AppData\Local\Temp\ccFWVBKl.s 			page 235


 12632 2ee6 00000000 		.4byte	.LVL300
 12633 2eea 04000000 		.4byte	.LVL302
 12634 2eee 0100     		.2byte	0x1
 12635 2ef0 53       		.byte	0x53
 12636 2ef1 04000000 		.4byte	.LVL302
 12637 2ef5 1A000000 		.4byte	.LFE2
 12638 2ef9 0400     		.2byte	0x4
 12639 2efb F3       		.byte	0xf3
 12640 2efc 01       		.uleb128 0x1
 12641 2efd 53       		.byte	0x53
 12642 2efe 9F       		.byte	0x9f
 12643 2eff 00000000 		.4byte	0
 12644 2f03 00000000 		.4byte	0
 12645              	.LLST339:
 12646 2f07 00000000 		.4byte	.LFB3
 12647 2f0b 02000000 		.4byte	.LCFI5
 12648 2f0f 0200     		.2byte	0x2
 12649 2f11 7D       		.byte	0x7d
 12650 2f12 00       		.sleb128 0
 12651 2f13 02000000 		.4byte	.LCFI5
 12652 2f17 1E000000 		.4byte	.LFE3
 12653 2f1b 0200     		.2byte	0x2
 12654 2f1d 7D       		.byte	0x7d
 12655 2f1e 0C       		.sleb128 12
 12656 2f1f 00000000 		.4byte	0
 12657 2f23 00000000 		.4byte	0
 12658              	.LLST340:
 12659 2f27 00000000 		.4byte	.LVL307
 12660 2f2b 08000000 		.4byte	.LVL308
 12661 2f2f 0100     		.2byte	0x1
 12662 2f31 50       		.byte	0x50
 12663 2f32 08000000 		.4byte	.LVL308
 12664 2f36 16000000 		.4byte	.LVL311
 12665 2f3a 0400     		.2byte	0x4
 12666 2f3c F3       		.byte	0xf3
 12667 2f3d 01       		.uleb128 0x1
 12668 2f3e 50       		.byte	0x50
 12669 2f3f 9F       		.byte	0x9f
 12670 2f40 16000000 		.4byte	.LVL311
 12671 2f44 1A000000 		.4byte	.LVL312
 12672 2f48 0100     		.2byte	0x1
 12673 2f4a 55       		.byte	0x55
 12674 2f4b 1A000000 		.4byte	.LVL312
 12675 2f4f 1C000000 		.4byte	.LVL313
 12676 2f53 0600     		.2byte	0x6
 12677 2f55 75       		.byte	0x75
 12678 2f56 00       		.sleb128 0
 12679 2f57 71       		.byte	0x71
 12680 2f58 00       		.sleb128 0
 12681 2f59 22       		.byte	0x22
 12682 2f5a 9F       		.byte	0x9f
 12683 2f5b 1C000000 		.4byte	.LVL313
 12684 2f5f 1E000000 		.4byte	.LFE3
 12685 2f63 0100     		.2byte	0x1
 12686 2f65 50       		.byte	0x50
 12687 2f66 00000000 		.4byte	0
 12688 2f6a 00000000 		.4byte	0
ARM GAS  C:\Users\atsu\AppData\Local\Temp\ccFWVBKl.s 			page 236


 12689              	.LLST341:
 12690 2f6e 00000000 		.4byte	.LVL307
 12691 2f72 0C000000 		.4byte	.LVL309
 12692 2f76 0100     		.2byte	0x1
 12693 2f78 52       		.byte	0x52
 12694 2f79 0C000000 		.4byte	.LVL309
 12695 2f7d 1E000000 		.4byte	.LFE3
 12696 2f81 0400     		.2byte	0x4
 12697 2f83 F3       		.byte	0xf3
 12698 2f84 01       		.uleb128 0x1
 12699 2f85 52       		.byte	0x52
 12700 2f86 9F       		.byte	0x9f
 12701 2f87 00000000 		.4byte	0
 12702 2f8b 00000000 		.4byte	0
 12703              	.LLST342:
 12704 2f8f 00000000 		.4byte	.LVL307
 12705 2f93 0E000000 		.4byte	.LVL310
 12706 2f97 0100     		.2byte	0x1
 12707 2f99 53       		.byte	0x53
 12708 2f9a 0E000000 		.4byte	.LVL310
 12709 2f9e 1E000000 		.4byte	.LFE3
 12710 2fa2 0400     		.2byte	0x4
 12711 2fa4 F3       		.byte	0xf3
 12712 2fa5 01       		.uleb128 0x1
 12713 2fa6 53       		.byte	0x53
 12714 2fa7 9F       		.byte	0x9f
 12715 2fa8 00000000 		.4byte	0
 12716 2fac 00000000 		.4byte	0
 12717              	.LLST343:
 12718 2fb0 00000000 		.4byte	.LFB5
 12719 2fb4 04000000 		.4byte	.LCFI6
 12720 2fb8 0200     		.2byte	0x2
 12721 2fba 7D       		.byte	0x7d
 12722 2fbb 00       		.sleb128 0
 12723 2fbc 04000000 		.4byte	.LCFI6
 12724 2fc0 6E000000 		.4byte	.LFE5
 12725 2fc4 0200     		.2byte	0x2
 12726 2fc6 7D       		.byte	0x7d
 12727 2fc7 20       		.sleb128 32
 12728 2fc8 00000000 		.4byte	0
 12729 2fcc 00000000 		.4byte	0
 12730              	.LLST344:
 12731 2fd0 00000000 		.4byte	.LVL315
 12732 2fd4 0E000000 		.4byte	.LVL317
 12733 2fd8 0100     		.2byte	0x1
 12734 2fda 50       		.byte	0x50
 12735 2fdb 0E000000 		.4byte	.LVL317
 12736 2fdf 6C000000 		.4byte	.LVL332
 12737 2fe3 0100     		.2byte	0x1
 12738 2fe5 54       		.byte	0x54
 12739 2fe6 6C000000 		.4byte	.LVL332
 12740 2fea 6E000000 		.4byte	.LFE5
 12741 2fee 0400     		.2byte	0x4
 12742 2ff0 F3       		.byte	0xf3
 12743 2ff1 01       		.uleb128 0x1
 12744 2ff2 50       		.byte	0x50
 12745 2ff3 9F       		.byte	0x9f
ARM GAS  C:\Users\atsu\AppData\Local\Temp\ccFWVBKl.s 			page 237


 12746 2ff4 00000000 		.4byte	0
 12747 2ff8 00000000 		.4byte	0
 12748              	.LLST345:
 12749 2ffc 00000000 		.4byte	.LVL315
 12750 3000 10000000 		.4byte	.LVL318
 12751 3004 0100     		.2byte	0x1
 12752 3006 51       		.byte	0x51
 12753 3007 10000000 		.4byte	.LVL318
 12754 300b 6C000000 		.4byte	.LVL335
 12755 300f 0100     		.2byte	0x1
 12756 3011 57       		.byte	0x57
 12757 3012 6C000000 		.4byte	.LVL335
 12758 3016 6E000000 		.4byte	.LFE5
 12759 301a 0400     		.2byte	0x4
 12760 301c F3       		.byte	0xf3
 12761 301d 01       		.uleb128 0x1
 12762 301e 51       		.byte	0x51
 12763 301f 9F       		.byte	0x9f
 12764 3020 00000000 		.4byte	0
 12765 3024 00000000 		.4byte	0
 12766              	.LLST346:
 12767 3028 00000000 		.4byte	.LVL315
 12768 302c 08000000 		.4byte	.LVL316
 12769 3030 0100     		.2byte	0x1
 12770 3032 52       		.byte	0x52
 12771 3033 08000000 		.4byte	.LVL316
 12772 3037 6C000000 		.4byte	.LVL334
 12773 303b 0100     		.2byte	0x1
 12774 303d 56       		.byte	0x56
 12775 303e 6C000000 		.4byte	.LVL334
 12776 3042 6E000000 		.4byte	.LFE5
 12777 3046 0400     		.2byte	0x4
 12778 3048 F3       		.byte	0xf3
 12779 3049 01       		.uleb128 0x1
 12780 304a 52       		.byte	0x52
 12781 304b 9F       		.byte	0x9f
 12782 304c 00000000 		.4byte	0
 12783 3050 00000000 		.4byte	0
 12784              	.LLST347:
 12785 3054 48000000 		.4byte	.LVL324
 12786 3058 4A000000 		.4byte	.LVL325
 12787 305c 0200     		.2byte	0x2
 12788 305e 91       		.byte	0x91
 12789 305f 64       		.sleb128 -28
 12790 3060 4A000000 		.4byte	.LVL325
 12791 3064 6C000000 		.4byte	.LVL333
 12792 3068 0100     		.2byte	0x1
 12793 306a 55       		.byte	0x55
 12794 306b 00000000 		.4byte	0
 12795 306f 00000000 		.4byte	0
 12796              	.LLST348:
 12797 3073 12000000 		.4byte	.LVL319
 12798 3077 34000000 		.4byte	.LVL321
 12799 307b 0100     		.2byte	0x1
 12800 307d 50       		.byte	0x50
 12801 307e 34000000 		.4byte	.LVL321
 12802 3082 3A000000 		.4byte	.LVL322
ARM GAS  C:\Users\atsu\AppData\Local\Temp\ccFWVBKl.s 			page 238


 12803 3086 0300     		.2byte	0x3
 12804 3088 70       		.byte	0x70
 12805 3089 68       		.sleb128 -24
 12806 308a 9F       		.byte	0x9f
 12807 308b 3A000000 		.4byte	.LVL322
 12808 308f 3D000000 		.4byte	.LVL323-1
 12809 3093 0800     		.2byte	0x8
 12810 3095 74       		.byte	0x74
 12811 3096 10       		.sleb128 16
 12812 3097 06       		.byte	0x6
 12813 3098 47       		.byte	0x47
 12814 3099 24       		.byte	0x24
 12815 309a 4A       		.byte	0x4a
 12816 309b 25       		.byte	0x25
 12817 309c 9F       		.byte	0x9f
 12818 309d 60000000 		.4byte	.LVL328
 12819 30a1 62000000 		.4byte	.LVL329
 12820 30a5 0100     		.2byte	0x1
 12821 30a7 50       		.byte	0x50
 12822 30a8 62000000 		.4byte	.LVL329
 12823 30ac 68000000 		.4byte	.LVL330
 12824 30b0 0300     		.2byte	0x3
 12825 30b2 70       		.byte	0x70
 12826 30b3 68       		.sleb128 -24
 12827 30b4 9F       		.byte	0x9f
 12828 30b5 00000000 		.4byte	0
 12829 30b9 00000000 		.4byte	0
 12830              	.LLST349:
 12831 30bd 2C000000 		.4byte	.LVL320
 12832 30c1 3D000000 		.4byte	.LVL323-1
 12833 30c5 0100     		.2byte	0x1
 12834 30c7 53       		.byte	0x53
 12835 30c8 3D000000 		.4byte	.LVL323-1
 12836 30cc 6E000000 		.4byte	.LFE5
 12837 30d0 0200     		.2byte	0x2
 12838 30d2 91       		.byte	0x91
 12839 30d3 64       		.sleb128 -28
 12840 30d4 00000000 		.4byte	0
 12841 30d8 00000000 		.4byte	0
 12842              	.LLST350:
 12843 30dc 00000000 		.4byte	.LFB6
 12844 30e0 02000000 		.4byte	.LCFI7
 12845 30e4 0200     		.2byte	0x2
 12846 30e6 7D       		.byte	0x7d
 12847 30e7 00       		.sleb128 0
 12848 30e8 02000000 		.4byte	.LCFI7
 12849 30ec 4C000000 		.4byte	.LFE6
 12850 30f0 0200     		.2byte	0x2
 12851 30f2 7D       		.byte	0x7d
 12852 30f3 18       		.sleb128 24
 12853 30f4 00000000 		.4byte	0
 12854 30f8 00000000 		.4byte	0
 12855              	.LLST351:
 12856 30fc 00000000 		.4byte	.LVL336
 12857 3100 0C000000 		.4byte	.LVL338
 12858 3104 0100     		.2byte	0x1
 12859 3106 50       		.byte	0x50
ARM GAS  C:\Users\atsu\AppData\Local\Temp\ccFWVBKl.s 			page 239


 12860 3107 0C000000 		.4byte	.LVL338
 12861 310b 46000000 		.4byte	.LVL348
 12862 310f 0100     		.2byte	0x1
 12863 3111 55       		.byte	0x55
 12864 3112 46000000 		.4byte	.LVL348
 12865 3116 4C000000 		.4byte	.LFE6
 12866 311a 0400     		.2byte	0x4
 12867 311c F3       		.byte	0xf3
 12868 311d 01       		.uleb128 0x1
 12869 311e 50       		.byte	0x50
 12870 311f 9F       		.byte	0x9f
 12871 3120 00000000 		.4byte	0
 12872 3124 00000000 		.4byte	0
 12873              	.LLST352:
 12874 3128 00000000 		.4byte	.LVL336
 12875 312c 08000000 		.4byte	.LVL337
 12876 3130 0100     		.2byte	0x1
 12877 3132 51       		.byte	0x51
 12878 3133 08000000 		.4byte	.LVL337
 12879 3137 46000000 		.4byte	.LVL347
 12880 313b 0100     		.2byte	0x1
 12881 313d 54       		.byte	0x54
 12882 313e 46000000 		.4byte	.LVL347
 12883 3142 4C000000 		.4byte	.LFE6
 12884 3146 0400     		.2byte	0x4
 12885 3148 F3       		.byte	0xf3
 12886 3149 01       		.uleb128 0x1
 12887 314a 51       		.byte	0x51
 12888 314b 9F       		.byte	0x9f
 12889 314c 00000000 		.4byte	0
 12890 3150 00000000 		.4byte	0
 12891              	.LLST353:
 12892 3154 18000000 		.4byte	.LVL340
 12893 3158 22000000 		.4byte	.LVL342
 12894 315c 0100     		.2byte	0x1
 12895 315e 50       		.byte	0x50
 12896 315f 22000000 		.4byte	.LVL342
 12897 3163 27000000 		.4byte	.LVL343-1
 12898 3167 0500     		.2byte	0x5
 12899 3169 73       		.byte	0x73
 12900 316a 00       		.sleb128 0
 12901 316b 4A       		.byte	0x4a
 12902 316c 25       		.byte	0x25
 12903 316d 9F       		.byte	0x9f
 12904 316e 00000000 		.4byte	0
 12905 3172 00000000 		.4byte	0
 12906              	.LLST354:
 12907 3176 20000000 		.4byte	.LVL341
 12908 317a 27000000 		.4byte	.LVL343-1
 12909 317e 0100     		.2byte	0x1
 12910 3180 52       		.byte	0x52
 12911 3181 00000000 		.4byte	0
 12912 3185 00000000 		.4byte	0
 12913              		.section	.debug_aranges,"",%progbits
 12914 0000 5C000000 		.4byte	0x5c
 12915 0004 0200     		.2byte	0x2
 12916 0006 00000000 		.4byte	.Ldebug_info0
ARM GAS  C:\Users\atsu\AppData\Local\Temp\ccFWVBKl.s 			page 240


 12917 000a 04       		.byte	0x4
 12918 000b 00       		.byte	0
 12919 000c 0000     		.2byte	0
 12920 000e 0000     		.2byte	0
 12921 0010 00000000 		.4byte	.LFB8
 12922 0014 26000000 		.4byte	.LFE8-.LFB8
 12923 0018 00000000 		.4byte	.LFB7
 12924 001c A0070000 		.4byte	.LFE7-.LFB7
 12925 0020 00000000 		.4byte	.LFB0
 12926 0024 20000000 		.4byte	.LFE0-.LFB0
 12927 0028 00000000 		.4byte	.LFB1
 12928 002c 1E000000 		.4byte	.LFE1-.LFB1
 12929 0030 00000000 		.4byte	.LFB2
 12930 0034 1A000000 		.4byte	.LFE2-.LFB2
 12931 0038 00000000 		.4byte	.LFB3
 12932 003c 1E000000 		.4byte	.LFE3-.LFB3
 12933 0040 00000000 		.4byte	.LFB4
 12934 0044 28000000 		.4byte	.LFE4-.LFB4
 12935 0048 00000000 		.4byte	.LFB5
 12936 004c 6E000000 		.4byte	.LFE5-.LFB5
 12937 0050 00000000 		.4byte	.LFB6
 12938 0054 4C000000 		.4byte	.LFE6-.LFB6
 12939 0058 00000000 		.4byte	0
 12940 005c 00000000 		.4byte	0
 12941              		.section	.debug_ranges,"",%progbits
 12942              	.Ldebug_ranges0:
 12943 0000 64000000 		.4byte	.LBB264
 12944 0004 7A000000 		.4byte	.LBE264
 12945 0008 7C000000 		.4byte	.LBB272
 12946 000c 7E000000 		.4byte	.LBE272
 12947 0010 80000000 		.4byte	.LBB274
 12948 0014 82000000 		.4byte	.LBE274
 12949 0018 00000000 		.4byte	0
 12950 001c 00000000 		.4byte	0
 12951 0020 7A000000 		.4byte	.LBB268
 12952 0024 7C000000 		.4byte	.LBE268
 12953 0028 7E000000 		.4byte	.LBB273
 12954 002c 80000000 		.4byte	.LBE273
 12955 0030 82000000 		.4byte	.LBB275
 12956 0034 9A000000 		.4byte	.LBE275
 12957 0038 00000000 		.4byte	0
 12958 003c 00000000 		.4byte	0
 12959 0040 9A000000 		.4byte	.LBB276
 12960 0044 B4000000 		.4byte	.LBE276
 12961 0048 B6000000 		.4byte	.LBB285
 12962 004c BA000000 		.4byte	.LBE285
 12963 0050 BE000000 		.4byte	.LBB287
 12964 0054 C0000000 		.4byte	.LBE287
 12965 0058 00000000 		.4byte	0
 12966 005c 00000000 		.4byte	0
 12967 0060 B4000000 		.4byte	.LBB280
 12968 0064 B6000000 		.4byte	.LBE280
 12969 0068 BA000000 		.4byte	.LBB286
 12970 006c BE000000 		.4byte	.LBE286
 12971 0070 C0000000 		.4byte	.LBB288
 12972 0074 D0000000 		.4byte	.LBE288
 12973 0078 D2000000 		.4byte	.LBB295
ARM GAS  C:\Users\atsu\AppData\Local\Temp\ccFWVBKl.s 			page 241


 12974 007c D6000000 		.4byte	.LBE295
 12975 0080 00000000 		.4byte	0
 12976 0084 00000000 		.4byte	0
 12977 0088 D0000000 		.4byte	.LBB289
 12978 008c D2000000 		.4byte	.LBE289
 12979 0090 D6000000 		.4byte	.LBB296
 12980 0094 E8000000 		.4byte	.LBE296
 12981 0098 EA000000 		.4byte	.LBB304
 12982 009c EC000000 		.4byte	.LBE304
 12983 00a0 EE000000 		.4byte	.LBB306
 12984 00a4 F0000000 		.4byte	.LBE306
 12985 00a8 F2000000 		.4byte	.LBB308
 12986 00ac F4000000 		.4byte	.LBE308
 12987 00b0 00000000 		.4byte	0
 12988 00b4 00000000 		.4byte	0
 12989 00b8 E8000000 		.4byte	.LBB297
 12990 00bc EA000000 		.4byte	.LBE297
 12991 00c0 EC000000 		.4byte	.LBB305
 12992 00c4 EE000000 		.4byte	.LBE305
 12993 00c8 F0000000 		.4byte	.LBB307
 12994 00cc F2000000 		.4byte	.LBE307
 12995 00d0 F4000000 		.4byte	.LBB309
 12996 00d4 06010000 		.4byte	.LBE309
 12997 00d8 08010000 		.4byte	.LBB316
 12998 00dc 0A010000 		.4byte	.LBE316
 12999 00e0 0C010000 		.4byte	.LBB318
 13000 00e4 0E010000 		.4byte	.LBE318
 13001 00e8 00000000 		.4byte	0
 13002 00ec 00000000 		.4byte	0
 13003 00f0 06010000 		.4byte	.LBB310
 13004 00f4 08010000 		.4byte	.LBE310
 13005 00f8 0A010000 		.4byte	.LBB317
 13006 00fc 0C010000 		.4byte	.LBE317
 13007 0100 0E010000 		.4byte	.LBB319
 13008 0104 24010000 		.4byte	.LBE319
 13009 0108 26010000 		.4byte	.LBB326
 13010 010c 2A010000 		.4byte	.LBE326
 13011 0110 2E010000 		.4byte	.LBB328
 13012 0114 30010000 		.4byte	.LBE328
 13013 0118 00000000 		.4byte	0
 13014 011c 00000000 		.4byte	0
 13015 0120 24010000 		.4byte	.LBB320
 13016 0124 26010000 		.4byte	.LBE320
 13017 0128 2A010000 		.4byte	.LBB327
 13018 012c 2E010000 		.4byte	.LBE327
 13019 0130 30010000 		.4byte	.LBB329
 13020 0134 40010000 		.4byte	.LBE329
 13021 0138 44010000 		.4byte	.LBB337
 13022 013c 46010000 		.4byte	.LBE337
 13023 0140 48010000 		.4byte	.LBB339
 13024 0144 4A010000 		.4byte	.LBE339
 13025 0148 00000000 		.4byte	0
 13026 014c 00000000 		.4byte	0
 13027 0150 40010000 		.4byte	.LBB330
 13028 0154 44010000 		.4byte	.LBE330
 13029 0158 46010000 		.4byte	.LBB338
 13030 015c 48010000 		.4byte	.LBE338
ARM GAS  C:\Users\atsu\AppData\Local\Temp\ccFWVBKl.s 			page 242


 13031 0160 4A010000 		.4byte	.LBB340
 13032 0164 58010000 		.4byte	.LBE340
 13033 0168 5A010000 		.4byte	.LBB348
 13034 016c 5C010000 		.4byte	.LBE348
 13035 0170 5E010000 		.4byte	.LBB350
 13036 0174 60010000 		.4byte	.LBE350
 13037 0178 62010000 		.4byte	.LBB352
 13038 017c 64010000 		.4byte	.LBE352
 13039 0180 00000000 		.4byte	0
 13040 0184 00000000 		.4byte	0
 13041 0188 58010000 		.4byte	.LBB341
 13042 018c 5A010000 		.4byte	.LBE341
 13043 0190 5C010000 		.4byte	.LBB349
 13044 0194 5E010000 		.4byte	.LBE349
 13045 0198 60010000 		.4byte	.LBB351
 13046 019c 62010000 		.4byte	.LBE351
 13047 01a0 64010000 		.4byte	.LBB353
 13048 01a4 76010000 		.4byte	.LBE353
 13049 01a8 78010000 		.4byte	.LBB360
 13050 01ac 7A010000 		.4byte	.LBE360
 13051 01b0 7C010000 		.4byte	.LBB362
 13052 01b4 7E010000 		.4byte	.LBE362
 13053 01b8 00000000 		.4byte	0
 13054 01bc 00000000 		.4byte	0
 13055 01c0 76010000 		.4byte	.LBB354
 13056 01c4 78010000 		.4byte	.LBE354
 13057 01c8 7A010000 		.4byte	.LBB361
 13058 01cc 7C010000 		.4byte	.LBE361
 13059 01d0 7E010000 		.4byte	.LBB363
 13060 01d4 94010000 		.4byte	.LBE363
 13061 01d8 96010000 		.4byte	.LBB369
 13062 01dc 9A010000 		.4byte	.LBE369
 13063 01e0 9E010000 		.4byte	.LBB371
 13064 01e4 A0010000 		.4byte	.LBE371
 13065 01e8 00000000 		.4byte	0
 13066 01ec 00000000 		.4byte	0
 13067 01f0 94010000 		.4byte	.LBB364
 13068 01f4 96010000 		.4byte	.LBE364
 13069 01f8 9A010000 		.4byte	.LBB370
 13070 01fc 9E010000 		.4byte	.LBE370
 13071 0200 A0010000 		.4byte	.LBB372
 13072 0204 B2010000 		.4byte	.LBE372
 13073 0208 B6010000 		.4byte	.LBB377
 13074 020c B8010000 		.4byte	.LBE377
 13075 0210 00000000 		.4byte	0
 13076 0214 00000000 		.4byte	0
 13077 0218 B2010000 		.4byte	.LBB373
 13078 021c B6010000 		.4byte	.LBE373
 13079 0220 B8010000 		.4byte	.LBB378
 13080 0224 CA010000 		.4byte	.LBE378
 13081 0228 CE010000 		.4byte	.LBB383
 13082 022c D0010000 		.4byte	.LBE383
 13083 0230 00000000 		.4byte	0
 13084 0234 00000000 		.4byte	0
 13085 0238 CA010000 		.4byte	.LBB379
 13086 023c CE010000 		.4byte	.LBE379
 13087 0240 D0010000 		.4byte	.LBB384
ARM GAS  C:\Users\atsu\AppData\Local\Temp\ccFWVBKl.s 			page 243


 13088 0244 E4010000 		.4byte	.LBE384
 13089 0248 E6010000 		.4byte	.LBB388
 13090 024c EA010000 		.4byte	.LBE388
 13091 0250 00000000 		.4byte	0
 13092 0254 00000000 		.4byte	0
 13093 0258 E4010000 		.4byte	.LBB385
 13094 025c E6010000 		.4byte	.LBE385
 13095 0260 EA010000 		.4byte	.LBB389
 13096 0264 06020000 		.4byte	.LBE389
 13097 0268 00000000 		.4byte	0
 13098 026c 00000000 		.4byte	0
 13099 0270 06020000 		.4byte	.LBB390
 13100 0274 18020000 		.4byte	.LBE390
 13101 0278 1A020000 		.4byte	.LBB400
 13102 027c 1C020000 		.4byte	.LBE400
 13103 0280 1E020000 		.4byte	.LBB402
 13104 0284 24020000 		.4byte	.LBE402
 13105 0288 00000000 		.4byte	0
 13106 028c 00000000 		.4byte	0
 13107 0290 18020000 		.4byte	.LBB394
 13108 0294 1A020000 		.4byte	.LBE394
 13109 0298 1C020000 		.4byte	.LBB401
 13110 029c 1E020000 		.4byte	.LBE401
 13111 02a0 24020000 		.4byte	.LBB403
 13112 02a4 30020000 		.4byte	.LBE403
 13113 02a8 32020000 		.4byte	.LBB410
 13114 02ac 36020000 		.4byte	.LBE410
 13115 02b0 38020000 		.4byte	.LBB412
 13116 02b4 3C020000 		.4byte	.LBE412
 13117 02b8 00000000 		.4byte	0
 13118 02bc 00000000 		.4byte	0
 13119 02c0 30020000 		.4byte	.LBB404
 13120 02c4 32020000 		.4byte	.LBE404
 13121 02c8 36020000 		.4byte	.LBB411
 13122 02cc 38020000 		.4byte	.LBE411
 13123 02d0 3C020000 		.4byte	.LBB413
 13124 02d4 4A020000 		.4byte	.LBE413
 13125 02d8 4C020000 		.4byte	.LBB419
 13126 02dc 4E020000 		.4byte	.LBE419
 13127 02e0 50020000 		.4byte	.LBB421
 13128 02e4 56020000 		.4byte	.LBE421
 13129 02e8 00000000 		.4byte	0
 13130 02ec 00000000 		.4byte	0
 13131 02f0 4A020000 		.4byte	.LBB414
 13132 02f4 4C020000 		.4byte	.LBE414
 13133 02f8 4E020000 		.4byte	.LBB420
 13134 02fc 50020000 		.4byte	.LBE420
 13135 0300 56020000 		.4byte	.LBB422
 13136 0304 68020000 		.4byte	.LBE422
 13137 0308 6A020000 		.4byte	.LBB426
 13138 030c 6E020000 		.4byte	.LBE426
 13139 0310 00000000 		.4byte	0
 13140 0314 00000000 		.4byte	0
 13141 0318 68020000 		.4byte	.LBB423
 13142 031c 6A020000 		.4byte	.LBE423
 13143 0320 6E020000 		.4byte	.LBB427
 13144 0324 88020000 		.4byte	.LBE427
ARM GAS  C:\Users\atsu\AppData\Local\Temp\ccFWVBKl.s 			page 244


 13145 0328 00000000 		.4byte	0
 13146 032c 00000000 		.4byte	0
 13147 0330 88020000 		.4byte	.LBB428
 13148 0334 9C020000 		.4byte	.LBE428
 13149 0338 9E020000 		.4byte	.LBB438
 13150 033c A4020000 		.4byte	.LBE438
 13151 0340 A8020000 		.4byte	.LBB440
 13152 0344 AA020000 		.4byte	.LBE440
 13153 0348 00000000 		.4byte	0
 13154 034c 00000000 		.4byte	0
 13155 0350 9C020000 		.4byte	.LBB432
 13156 0354 9E020000 		.4byte	.LBE432
 13157 0358 A4020000 		.4byte	.LBB439
 13158 035c A8020000 		.4byte	.LBE439
 13159 0360 AA020000 		.4byte	.LBB441
 13160 0364 BA020000 		.4byte	.LBE441
 13161 0368 BE020000 		.4byte	.LBB449
 13162 036c C0020000 		.4byte	.LBE449
 13163 0370 C2020000 		.4byte	.LBB451
 13164 0374 C4020000 		.4byte	.LBE451
 13165 0378 00000000 		.4byte	0
 13166 037c 00000000 		.4byte	0
 13167 0380 BA020000 		.4byte	.LBB442
 13168 0384 BE020000 		.4byte	.LBE442
 13169 0388 C0020000 		.4byte	.LBB450
 13170 038c C2020000 		.4byte	.LBE450
 13171 0390 C4020000 		.4byte	.LBB452
 13172 0394 D2020000 		.4byte	.LBE452
 13173 0398 D4020000 		.4byte	.LBB460
 13174 039c D6020000 		.4byte	.LBE460
 13175 03a0 D8020000 		.4byte	.LBB462
 13176 03a4 DA020000 		.4byte	.LBE462
 13177 03a8 DC020000 		.4byte	.LBB464
 13178 03ac DE020000 		.4byte	.LBE464
 13179 03b0 00000000 		.4byte	0
 13180 03b4 00000000 		.4byte	0
 13181 03b8 D2020000 		.4byte	.LBB453
 13182 03bc D4020000 		.4byte	.LBE453
 13183 03c0 D6020000 		.4byte	.LBB461
 13184 03c4 D8020000 		.4byte	.LBE461
 13185 03c8 DA020000 		.4byte	.LBB463
 13186 03cc DC020000 		.4byte	.LBE463
 13187 03d0 DE020000 		.4byte	.LBB465
 13188 03d4 F0020000 		.4byte	.LBE465
 13189 03d8 F2020000 		.4byte	.LBB472
 13190 03dc F4020000 		.4byte	.LBE472
 13191 03e0 F6020000 		.4byte	.LBB474
 13192 03e4 F8020000 		.4byte	.LBE474
 13193 03e8 00000000 		.4byte	0
 13194 03ec 00000000 		.4byte	0
 13195 03f0 F0020000 		.4byte	.LBB466
 13196 03f4 F2020000 		.4byte	.LBE466
 13197 03f8 F4020000 		.4byte	.LBB473
 13198 03fc F6020000 		.4byte	.LBE473
 13199 0400 F8020000 		.4byte	.LBB475
 13200 0404 0E030000 		.4byte	.LBE475
 13201 0408 10030000 		.4byte	.LBB482
ARM GAS  C:\Users\atsu\AppData\Local\Temp\ccFWVBKl.s 			page 245


 13202 040c 14030000 		.4byte	.LBE482
 13203 0410 18030000 		.4byte	.LBB484
 13204 0414 1A030000 		.4byte	.LBE484
 13205 0418 00000000 		.4byte	0
 13206 041c 00000000 		.4byte	0
 13207 0420 0E030000 		.4byte	.LBB476
 13208 0424 10030000 		.4byte	.LBE476
 13209 0428 14030000 		.4byte	.LBB483
 13210 042c 18030000 		.4byte	.LBE483
 13211 0430 1A030000 		.4byte	.LBB485
 13212 0434 2A030000 		.4byte	.LBE485
 13213 0438 2E030000 		.4byte	.LBB493
 13214 043c 30030000 		.4byte	.LBE493
 13215 0440 32030000 		.4byte	.LBB495
 13216 0444 34030000 		.4byte	.LBE495
 13217 0448 00000000 		.4byte	0
 13218 044c 00000000 		.4byte	0
 13219 0450 2A030000 		.4byte	.LBB486
 13220 0454 2E030000 		.4byte	.LBE486
 13221 0458 30030000 		.4byte	.LBB494
 13222 045c 32030000 		.4byte	.LBE494
 13223 0460 34030000 		.4byte	.LBB496
 13224 0464 42030000 		.4byte	.LBE496
 13225 0468 44030000 		.4byte	.LBB504
 13226 046c 46030000 		.4byte	.LBE504
 13227 0470 48030000 		.4byte	.LBB506
 13228 0474 4A030000 		.4byte	.LBE506
 13229 0478 4C030000 		.4byte	.LBB508
 13230 047c 4E030000 		.4byte	.LBE508
 13231 0480 00000000 		.4byte	0
 13232 0484 00000000 		.4byte	0
 13233 0488 42030000 		.4byte	.LBB497
 13234 048c 44030000 		.4byte	.LBE497
 13235 0490 46030000 		.4byte	.LBB505
 13236 0494 48030000 		.4byte	.LBE505
 13237 0498 4A030000 		.4byte	.LBB507
 13238 049c 4C030000 		.4byte	.LBE507
 13239 04a0 4E030000 		.4byte	.LBB509
 13240 04a4 60030000 		.4byte	.LBE509
 13241 04a8 62030000 		.4byte	.LBB516
 13242 04ac 64030000 		.4byte	.LBE516
 13243 04b0 66030000 		.4byte	.LBB518
 13244 04b4 68030000 		.4byte	.LBE518
 13245 04b8 00000000 		.4byte	0
 13246 04bc 00000000 		.4byte	0
 13247 04c0 60030000 		.4byte	.LBB510
 13248 04c4 62030000 		.4byte	.LBE510
 13249 04c8 64030000 		.4byte	.LBB517
 13250 04cc 66030000 		.4byte	.LBE517
 13251 04d0 68030000 		.4byte	.LBB519
 13252 04d4 7E030000 		.4byte	.LBE519
 13253 04d8 80030000 		.4byte	.LBB525
 13254 04dc 84030000 		.4byte	.LBE525
 13255 04e0 88030000 		.4byte	.LBB527
 13256 04e4 8A030000 		.4byte	.LBE527
 13257 04e8 00000000 		.4byte	0
 13258 04ec 00000000 		.4byte	0
ARM GAS  C:\Users\atsu\AppData\Local\Temp\ccFWVBKl.s 			page 246


 13259 04f0 7E030000 		.4byte	.LBB520
 13260 04f4 80030000 		.4byte	.LBE520
 13261 04f8 84030000 		.4byte	.LBB526
 13262 04fc 88030000 		.4byte	.LBE526
 13263 0500 8A030000 		.4byte	.LBB528
 13264 0504 9C030000 		.4byte	.LBE528
 13265 0508 A0030000 		.4byte	.LBB533
 13266 050c A2030000 		.4byte	.LBE533
 13267 0510 00000000 		.4byte	0
 13268 0514 00000000 		.4byte	0
 13269 0518 9C030000 		.4byte	.LBB529
 13270 051c A0030000 		.4byte	.LBE529
 13271 0520 A2030000 		.4byte	.LBB534
 13272 0524 B4030000 		.4byte	.LBE534
 13273 0528 B8030000 		.4byte	.LBB541
 13274 052c BA030000 		.4byte	.LBE541
 13275 0530 00000000 		.4byte	0
 13276 0534 00000000 		.4byte	0
 13277 0538 B4030000 		.4byte	.LBB535
 13278 053c B8030000 		.4byte	.LBE535
 13279 0540 BA030000 		.4byte	.LBB542
 13280 0544 C4030000 		.4byte	.LBE542
 13281 0548 C6030000 		.4byte	.LBB550
 13282 054c CA030000 		.4byte	.LBE550
 13283 0550 CC030000 		.4byte	.LBB552
 13284 0554 CE030000 		.4byte	.LBE552
 13285 0558 D0030000 		.4byte	.LBB554
 13286 055c D2030000 		.4byte	.LBE554
 13287 0560 00000000 		.4byte	0
 13288 0564 00000000 		.4byte	0
 13289 0568 C4030000 		.4byte	.LBB543
 13290 056c C6030000 		.4byte	.LBE543
 13291 0570 CA030000 		.4byte	.LBB551
 13292 0574 CC030000 		.4byte	.LBE551
 13293 0578 CE030000 		.4byte	.LBB553
 13294 057c D0030000 		.4byte	.LBE553
 13295 0580 D2030000 		.4byte	.LBB555
 13296 0584 DC030000 		.4byte	.LBE555
 13297 0588 DE030000 		.4byte	.LBB561
 13298 058c E0030000 		.4byte	.LBE561
 13299 0590 E2030000 		.4byte	.LBB563
 13300 0594 E6030000 		.4byte	.LBE563
 13301 0598 00000000 		.4byte	0
 13302 059c 00000000 		.4byte	0
 13303 05a0 DC030000 		.4byte	.LBB556
 13304 05a4 DE030000 		.4byte	.LBE556
 13305 05a8 E0030000 		.4byte	.LBB562
 13306 05ac E2030000 		.4byte	.LBE562
 13307 05b0 E6030000 		.4byte	.LBB564
 13308 05b4 F6030000 		.4byte	.LBE564
 13309 05b8 F8030000 		.4byte	.LBB573
 13310 05bc FA030000 		.4byte	.LBE573
 13311 05c0 00000000 		.4byte	0
 13312 05c4 00000000 		.4byte	0
 13313 05c8 F6030000 		.4byte	.LBB565
 13314 05cc F8030000 		.4byte	.LBE565
 13315 05d0 FA030000 		.4byte	.LBB574
ARM GAS  C:\Users\atsu\AppData\Local\Temp\ccFWVBKl.s 			page 247


 13316 05d4 00040000 		.4byte	.LBE574
 13317 05d8 02040000 		.4byte	.LBB583
 13318 05dc 08040000 		.4byte	.LBE583
 13319 05e0 0C040000 		.4byte	.LBB585
 13320 05e4 10040000 		.4byte	.LBE585
 13321 05e8 12040000 		.4byte	.LBB587
 13322 05ec 14040000 		.4byte	.LBE587
 13323 05f0 16040000 		.4byte	.LBB589
 13324 05f4 18040000 		.4byte	.LBE589
 13325 05f8 1A040000 		.4byte	.LBB591
 13326 05fc 1C040000 		.4byte	.LBE591
 13327 0600 00000000 		.4byte	0
 13328 0604 00000000 		.4byte	0
 13329 0608 00040000 		.4byte	.LBB575
 13330 060c 02040000 		.4byte	.LBE575
 13331 0610 08040000 		.4byte	.LBB584
 13332 0614 0C040000 		.4byte	.LBE584
 13333 0618 10040000 		.4byte	.LBB586
 13334 061c 12040000 		.4byte	.LBE586
 13335 0620 14040000 		.4byte	.LBB588
 13336 0624 16040000 		.4byte	.LBE588
 13337 0628 18040000 		.4byte	.LBB590
 13338 062c 1A040000 		.4byte	.LBE590
 13339 0630 1C040000 		.4byte	.LBB592
 13340 0634 26040000 		.4byte	.LBE592
 13341 0638 28040000 		.4byte	.LBB599
 13342 063c 2A040000 		.4byte	.LBE599
 13343 0640 00000000 		.4byte	0
 13344 0644 00000000 		.4byte	0
 13345 0648 26040000 		.4byte	.LBB593
 13346 064c 28040000 		.4byte	.LBE593
 13347 0650 2A040000 		.4byte	.LBB600
 13348 0654 34040000 		.4byte	.LBE600
 13349 0658 36040000 		.4byte	.LBB608
 13350 065c 3C040000 		.4byte	.LBE608
 13351 0660 DA040000 		.4byte	.LBB610
 13352 0664 DC040000 		.4byte	.LBE610
 13353 0668 E2040000 		.4byte	.LBB612
 13354 066c E4040000 		.4byte	.LBE612
 13355 0670 00000000 		.4byte	0
 13356 0674 00000000 		.4byte	0
 13357 0678 34040000 		.4byte	.LBB601
 13358 067c 36040000 		.4byte	.LBE601
 13359 0680 3C040000 		.4byte	.LBB609
 13360 0684 DA040000 		.4byte	.LBE609
 13361 0688 DC040000 		.4byte	.LBB611
 13362 068c E2040000 		.4byte	.LBE611
 13363 0690 E6040000 		.4byte	.LBB620
 13364 0694 EC040000 		.4byte	.LBE620
 13365 0698 F0040000 		.4byte	.LBB622
 13366 069c F2040000 		.4byte	.LBE622
 13367 06a0 F8040000 		.4byte	.LBB624
 13368 06a4 FA040000 		.4byte	.LBE624
 13369 06a8 00000000 		.4byte	0
 13370 06ac 00000000 		.4byte	0
 13371 06b0 E4040000 		.4byte	.LBB613
 13372 06b4 E6040000 		.4byte	.LBE613
ARM GAS  C:\Users\atsu\AppData\Local\Temp\ccFWVBKl.s 			page 248


 13373 06b8 EC040000 		.4byte	.LBB621
 13374 06bc F0040000 		.4byte	.LBE621
 13375 06c0 F2040000 		.4byte	.LBB623
 13376 06c4 F8040000 		.4byte	.LBE623
 13377 06c8 FC040000 		.4byte	.LBB631
 13378 06cc 02050000 		.4byte	.LBE631
 13379 06d0 06050000 		.4byte	.LBB633
 13380 06d4 08050000 		.4byte	.LBE633
 13381 06d8 0E050000 		.4byte	.LBB635
 13382 06dc 10050000 		.4byte	.LBE635
 13383 06e0 00000000 		.4byte	0
 13384 06e4 00000000 		.4byte	0
 13385 06e8 FA040000 		.4byte	.LBB625
 13386 06ec FC040000 		.4byte	.LBE625
 13387 06f0 02050000 		.4byte	.LBB632
 13388 06f4 06050000 		.4byte	.LBE632
 13389 06f8 08050000 		.4byte	.LBB634
 13390 06fc 0E050000 		.4byte	.LBE634
 13391 0700 10050000 		.4byte	.LBB636
 13392 0704 1A050000 		.4byte	.LBE636
 13393 0708 1C050000 		.4byte	.LBB643
 13394 070c 1E050000 		.4byte	.LBE643
 13395 0710 00000000 		.4byte	0
 13396 0714 00000000 		.4byte	0
 13397 0718 1A050000 		.4byte	.LBB637
 13398 071c 1C050000 		.4byte	.LBE637
 13399 0720 1E050000 		.4byte	.LBB644
 13400 0724 28050000 		.4byte	.LBE644
 13401 0728 2A050000 		.4byte	.LBB652
 13402 072c 30050000 		.4byte	.LBE652
 13403 0730 34050000 		.4byte	.LBB654
 13404 0734 36050000 		.4byte	.LBE654
 13405 0738 3C050000 		.4byte	.LBB656
 13406 073c 3E050000 		.4byte	.LBE656
 13407 0740 00000000 		.4byte	0
 13408 0744 00000000 		.4byte	0
 13409 0748 28050000 		.4byte	.LBB645
 13410 074c 2A050000 		.4byte	.LBE645
 13411 0750 30050000 		.4byte	.LBB653
 13412 0754 34050000 		.4byte	.LBE653
 13413 0758 36050000 		.4byte	.LBB655
 13414 075c 3C050000 		.4byte	.LBE655
 13415 0760 40050000 		.4byte	.LBB664
 13416 0764 46050000 		.4byte	.LBE664
 13417 0768 4A050000 		.4byte	.LBB666
 13418 076c 4C050000 		.4byte	.LBE666
 13419 0770 52050000 		.4byte	.LBB668
 13420 0774 54050000 		.4byte	.LBE668
 13421 0778 00000000 		.4byte	0
 13422 077c 00000000 		.4byte	0
 13423 0780 3E050000 		.4byte	.LBB657
 13424 0784 40050000 		.4byte	.LBE657
 13425 0788 46050000 		.4byte	.LBB665
 13426 078c 4A050000 		.4byte	.LBE665
 13427 0790 4C050000 		.4byte	.LBB667
 13428 0794 52050000 		.4byte	.LBE667
 13429 0798 56050000 		.4byte	.LBB675
ARM GAS  C:\Users\atsu\AppData\Local\Temp\ccFWVBKl.s 			page 249


 13430 079c 5C050000 		.4byte	.LBE675
 13431 07a0 60050000 		.4byte	.LBB677
 13432 07a4 62050000 		.4byte	.LBE677
 13433 07a8 68050000 		.4byte	.LBB679
 13434 07ac 6A050000 		.4byte	.LBE679
 13435 07b0 00000000 		.4byte	0
 13436 07b4 00000000 		.4byte	0
 13437 07b8 54050000 		.4byte	.LBB669
 13438 07bc 56050000 		.4byte	.LBE669
 13439 07c0 5C050000 		.4byte	.LBB676
 13440 07c4 60050000 		.4byte	.LBE676
 13441 07c8 62050000 		.4byte	.LBB678
 13442 07cc 68050000 		.4byte	.LBE678
 13443 07d0 6A050000 		.4byte	.LBB680
 13444 07d4 74050000 		.4byte	.LBE680
 13445 07d8 76050000 		.4byte	.LBB685
 13446 07dc 78050000 		.4byte	.LBE685
 13447 07e0 00000000 		.4byte	0
 13448 07e4 00000000 		.4byte	0
 13449 07e8 74050000 		.4byte	.LBB681
 13450 07ec 76050000 		.4byte	.LBE681
 13451 07f0 78050000 		.4byte	.LBB686
 13452 07f4 8A050000 		.4byte	.LBE686
 13453 07f8 92050000 		.4byte	.LBB691
 13454 07fc 94050000 		.4byte	.LBE691
 13455 0800 00000000 		.4byte	0
 13456 0804 00000000 		.4byte	0
 13457 0808 8A050000 		.4byte	.LBB687
 13458 080c 92050000 		.4byte	.LBE687
 13459 0810 94050000 		.4byte	.LBB692
 13460 0814 A0050000 		.4byte	.LBE692
 13461 0818 A4050000 		.4byte	.LBB697
 13462 081c A6050000 		.4byte	.LBE697
 13463 0820 00000000 		.4byte	0
 13464 0824 00000000 		.4byte	0
 13465 0828 A0050000 		.4byte	.LBB693
 13466 082c A4050000 		.4byte	.LBE693
 13467 0830 A6050000 		.4byte	.LBB698
 13468 0834 B4050000 		.4byte	.LBE698
 13469 0838 B8050000 		.4byte	.LBB704
 13470 083c BA050000 		.4byte	.LBE704
 13471 0840 00000000 		.4byte	0
 13472 0844 00000000 		.4byte	0
 13473 0848 B4050000 		.4byte	.LBB699
 13474 084c B8050000 		.4byte	.LBE699
 13475 0850 BA050000 		.4byte	.LBB705
 13476 0854 C8050000 		.4byte	.LBE705
 13477 0858 CA050000 		.4byte	.LBB711
 13478 085c CC050000 		.4byte	.LBE711
 13479 0860 CE050000 		.4byte	.LBB713
 13480 0864 D0050000 		.4byte	.LBE713
 13481 0868 00000000 		.4byte	0
 13482 086c 00000000 		.4byte	0
 13483 0870 C8050000 		.4byte	.LBB706
 13484 0874 CA050000 		.4byte	.LBE706
 13485 0878 CC050000 		.4byte	.LBB712
 13486 087c CE050000 		.4byte	.LBE712
ARM GAS  C:\Users\atsu\AppData\Local\Temp\ccFWVBKl.s 			page 250


 13487 0880 D0050000 		.4byte	.LBB714
 13488 0884 DE050000 		.4byte	.LBE714
 13489 0888 E2050000 		.4byte	.LBB719
 13490 088c E6050000 		.4byte	.LBE719
 13491 0890 00000000 		.4byte	0
 13492 0894 00000000 		.4byte	0
 13493 0898 DE050000 		.4byte	.LBB715
 13494 089c E2050000 		.4byte	.LBE715
 13495 08a0 E6050000 		.4byte	.LBB720
 13496 08a4 F6050000 		.4byte	.LBE720
 13497 08a8 F8050000 		.4byte	.LBB725
 13498 08ac FA050000 		.4byte	.LBE725
 13499 08b0 00000000 		.4byte	0
 13500 08b4 00000000 		.4byte	0
 13501 08b8 F6050000 		.4byte	.LBB721
 13502 08bc F8050000 		.4byte	.LBE721
 13503 08c0 FA050000 		.4byte	.LBB726
 13504 08c4 10060000 		.4byte	.LBE726
 13505 08c8 14060000 		.4byte	.LBB731
 13506 08cc 16060000 		.4byte	.LBE731
 13507 08d0 00000000 		.4byte	0
 13508 08d4 00000000 		.4byte	0
 13509 08d8 10060000 		.4byte	.LBB727
 13510 08dc 14060000 		.4byte	.LBE727
 13511 08e0 16060000 		.4byte	.LBB732
 13512 08e4 26060000 		.4byte	.LBE732
 13513 08e8 2A060000 		.4byte	.LBB736
 13514 08ec 2C060000 		.4byte	.LBE736
 13515 08f0 00000000 		.4byte	0
 13516 08f4 00000000 		.4byte	0
 13517 08f8 26060000 		.4byte	.LBB733
 13518 08fc 2A060000 		.4byte	.LBE733
 13519 0900 2C060000 		.4byte	.LBB737
 13520 0904 3C060000 		.4byte	.LBE737
 13521 0908 00000000 		.4byte	0
 13522 090c 00000000 		.4byte	0
 13523 0910 D0060000 		.4byte	.LBB752
 13524 0914 E2060000 		.4byte	.LBE752
 13525 0918 E6060000 		.4byte	.LBB759
 13526 091c E8060000 		.4byte	.LBE759
 13527 0920 00000000 		.4byte	0
 13528 0924 00000000 		.4byte	0
 13529 0928 E2060000 		.4byte	.LBB755
 13530 092c E6060000 		.4byte	.LBE755
 13531 0930 E8060000 		.4byte	.LBB760
 13532 0934 F6060000 		.4byte	.LBE760
 13533 0938 FA060000 		.4byte	.LBB768
 13534 093c FC060000 		.4byte	.LBE768
 13535 0940 00000000 		.4byte	0
 13536 0944 00000000 		.4byte	0
 13537 0948 F6060000 		.4byte	.LBB761
 13538 094c FA060000 		.4byte	.LBE761
 13539 0950 FC060000 		.4byte	.LBB769
 13540 0954 FE060000 		.4byte	.LBE769
 13541 0958 00070000 		.4byte	.LBB770
 13542 095c 02070000 		.4byte	.LBE770
 13543 0960 06070000 		.4byte	.LBB771
ARM GAS  C:\Users\atsu\AppData\Local\Temp\ccFWVBKl.s 			page 251


 13544 0964 08070000 		.4byte	.LBE771
 13545 0968 0A070000 		.4byte	.LBB772
 13546 096c 10070000 		.4byte	.LBE772
 13547 0970 12070000 		.4byte	.LBB773
 13548 0974 1A070000 		.4byte	.LBE773
 13549 0978 00000000 		.4byte	0
 13550 097c 00000000 		.4byte	0
 13551 0980 00000000 		.4byte	.LFB8
 13552 0984 26000000 		.4byte	.LFE8
 13553 0988 00000000 		.4byte	.LFB7
 13554 098c A0070000 		.4byte	.LFE7
 13555 0990 00000000 		.4byte	.LFB0
 13556 0994 20000000 		.4byte	.LFE0
 13557 0998 00000000 		.4byte	.LFB1
 13558 099c 1E000000 		.4byte	.LFE1
 13559 09a0 00000000 		.4byte	.LFB2
 13560 09a4 1A000000 		.4byte	.LFE2
 13561 09a8 00000000 		.4byte	.LFB3
 13562 09ac 1E000000 		.4byte	.LFE3
 13563 09b0 00000000 		.4byte	.LFB4
 13564 09b4 28000000 		.4byte	.LFE4
 13565 09b8 00000000 		.4byte	.LFB5
 13566 09bc 6E000000 		.4byte	.LFE5
 13567 09c0 00000000 		.4byte	.LFB6
 13568 09c4 4C000000 		.4byte	.LFE6
 13569 09c8 00000000 		.4byte	0
 13570 09cc 00000000 		.4byte	0
 13571              		.section	.debug_line,"",%progbits
 13572              	.Ldebug_line0:
 13573 0000 76030000 		.section	.debug_str,"MS",%progbits,1
 13573      0200CF00 
 13573      00000201 
 13573      FB0E0D00 
 13573      01010101 
 13574              	.LASF22:
 13575 0000 6D64355F 		.ascii	"md5_transform\000"
 13575      7472616E 
 13575      73666F72 
 13575      6D00
 13576              	.LASF15:
 13577 000e 73746174 		.ascii	"state\000"
 13577      6500
 13578              	.LASF17:
 13579 0014 62756666 		.ascii	"buffer\000"
 13579      657200
 13580              	.LASF16:
 13581 001b 636F756E 		.ascii	"count\000"
 13581      7400
 13582              	.LASF35:
 13583 0021 6D656D73 		.ascii	"memset\000"
 13583      657400
 13584              	.LASF30:
 13585 0028 6D64355F 		.ascii	"md5_final\000"
 13585      66696E61 
 13585      6C00
 13586              	.LASF21:
 13587 0032 6D64355F 		.ascii	"md5_encode\000"
ARM GAS  C:\Users\atsu\AppData\Local\Temp\ccFWVBKl.s 			page 252


 13587      656E636F 
 13587      646500
 13588              	.LASF13:
 13589 003d 666C6F61 		.ascii	"float\000"
 13589      7400
 13590              	.LASF23:
 13591 0043 626C6F63 		.ascii	"block\000"
 13591      6B00
 13592              	.LASF1:
 13593 0049 756E7369 		.ascii	"unsigned char\000"
 13593      676E6564 
 13593      20636861 
 13593      7200
 13594              	.LASF20:
 13595 0057 696E7075 		.ascii	"input\000"
 13595      7400
 13596              	.LASF9:
 13597 005d 6C6F6E67 		.ascii	"long unsigned int\000"
 13597      20756E73 
 13597      69676E65 
 13597      6420696E 
 13597      7400
 13598              	.LASF3:
 13599 006f 73686F72 		.ascii	"short unsigned int\000"
 13599      7420756E 
 13599      7369676E 
 13599      65642069 
 13599      6E7400
 13600              	.LASF12:
 13601 0082 75696E74 		.ascii	"uint32_t\000"
 13601      33325F74 
 13601      00
 13602              	.LASF27:
 13603 008b 696E7075 		.ascii	"inputLen\000"
 13603      744C656E 
 13603      00
 13604              	.LASF14:
 13605 0094 646F7562 		.ascii	"double\000"
 13605      6C6500
 13606              	.LASF39:
 13607 009b 433A5C55 		.ascii	"C:\\Users\\atsu\\Desktop\\W5200_PSoC4_test\\W5200_P"
 13607      73657273 
 13607      5C617473 
 13607      755C4465 
 13607      736B746F 
 13608 00c9 536F4334 		.ascii	"SoC4_test\\W5200_PSoC4_test.cydsn\000"
 13608      5F746573 
 13608      745C5735 
 13608      3230305F 
 13608      50536F43 
 13609              	.LASF26:
 13610 00ea 6D64355F 		.ascii	"md5_update\000"
 13610      75706461 
 13610      746500
 13611              	.LASF25:
 13612 00f5 6D64355F 		.ascii	"md5_init\000"
 13612      696E6974 
ARM GAS  C:\Users\atsu\AppData\Local\Temp\ccFWVBKl.s 			page 253


 13612      00
 13613              	.LASF4:
 13614 00fe 756E7369 		.ascii	"unsigned int\000"
 13614      676E6564 
 13614      20696E74 
 13614      00
 13615              	.LASF6:
 13616 010b 6C6F6E67 		.ascii	"long long unsigned int\000"
 13616      206C6F6E 
 13616      6720756E 
 13616      7369676E 
 13616      65642069 
 13617              	.LASF11:
 13618 0122 75696E74 		.ascii	"uint8_t\000"
 13618      385F7400 
 13619              	.LASF34:
 13620 012a 70616464 		.ascii	"padding\000"
 13620      696E6700 
 13621              	.LASF38:
 13622 0132 2E5C6D64 		.ascii	".\\md5.c\000"
 13622      352E6300 
 13623              	.LASF24:
 13624 013a 636F6E74 		.ascii	"context\000"
 13624      65787400 
 13625              	.LASF8:
 13626 0142 73697A65 		.ascii	"sizetype\000"
 13626      74797065 
 13626      00
 13627              	.LASF29:
 13628 014b 70617274 		.ascii	"partLen\000"
 13628      4C656E00 
 13629              	.LASF5:
 13630 0153 6C6F6E67 		.ascii	"long long int\000"
 13630      206C6F6E 
 13630      6720696E 
 13630      7400
 13631              	.LASF36:
 13632 0161 6D656D63 		.ascii	"memcpy\000"
 13632      707900
 13633              	.LASF40:
 13634 0168 6D64355F 		.ascii	"md5_decode\000"
 13634      6465636F 
 13634      646500
 13635              	.LASF32:
 13636 0173 62697473 		.ascii	"bits\000"
 13636      00
 13637              	.LASF2:
 13638 0178 73686F72 		.ascii	"short int\000"
 13638      7420696E 
 13638      7400
 13639              	.LASF19:
 13640 0182 6F757470 		.ascii	"output\000"
 13640      757400
 13641              	.LASF37:
 13642 0189 474E5520 		.ascii	"GNU C 4.7.3 20130312 (release) [ARM/embedded-4_7-br"
 13642      4320342E 
 13642      372E3320 
ARM GAS  C:\Users\atsu\AppData\Local\Temp\ccFWVBKl.s 			page 254


 13642      32303133 
 13642      30333132 
 13643 01bc 616E6368 		.ascii	"anch revision 196615]\000"
 13643      20726576 
 13643      6973696F 
 13643      6E203139 
 13643      36363135 
 13644              	.LASF28:
 13645 01d2 696E6465 		.ascii	"index\000"
 13645      7800
 13646              	.LASF31:
 13647 01d8 64696765 		.ascii	"digest\000"
 13647      737400
 13648              	.LASF7:
 13649 01df 6C6F6E67 		.ascii	"long int\000"
 13649      20696E74 
 13649      00
 13650              	.LASF10:
 13651 01e8 63686172 		.ascii	"char\000"
 13651      00
 13652              	.LASF0:
 13653 01ed 7369676E 		.ascii	"signed char\000"
 13653      65642063 
 13653      68617200 
 13654              	.LASF33:
 13655 01f9 7061644C 		.ascii	"padLen\000"
 13655      656E00
 13656              	.LASF18:
 13657 0200 6D64355F 		.ascii	"md5_ctx\000"
 13657      63747800 
 13658              		.ident	"GCC: (GNU Tools for ARM Embedded Processors) 4.7.3 20130312 (release) [ARM/embedded-4_7-br
