ARM GAS  C:\Users\atsu\AppData\Local\Temp\ccMHv1ML.s 			page 1


   1              		.cpu cortex-m0
   2              		.fpu softvfp
   3              		.eabi_attribute 20, 1
   4              		.eabi_attribute 21, 1
   5              		.eabi_attribute 23, 3
   6              		.eabi_attribute 24, 1
   7              		.eabi_attribute 25, 1
   8              		.eabi_attribute 26, 1
   9              		.eabi_attribute 30, 4
  10              		.eabi_attribute 34, 0
  11              		.eabi_attribute 18, 4
  12              		.code	16
  13              		.file	"socket.c"
  14              		.text
  15              	.Ltext0:
  16              		.cfi_sections	.debug_frame
  17              		.section	.text.close,"ax",%progbits
  18              		.align	1
  19              		.global	close
  20              		.code	16
  21              		.thumb_func
  22              		.type	close, %function
  23              	close:
  24              	.LFB1:
  25              		.file 1 ".\\socket.c"
   1:.\socket.c    **** /*
   2:.\socket.c    **** *
   3:.\socket.c    **** @file		socket.c
   4:.\socket.c    **** @brief	setting chip register for socket
   5:.\socket.c    **** *		last update : July 30, 2013
   6:.\socket.c    **** *
   7:.\socket.c    **** *  -----------------------------------------------------------------------------------
   8:.\socket.c    **** *  History
   9:.\socket.c    **** *  -----------------------------------------------------------------------------------
  10:.\socket.c    **** *
  11:.\socket.c    **** *	- first release : Jan. 2008
  12:.\socket.c    **** *  - modified code July 30, 2013 @wiznet : fix the code to add condition "retry" in send().
  13:.\socket.c    **** *
  14:.\socket.c    **** */
  15:.\socket.c    **** 
  16:.\socket.c    **** //#include "stm32f10x_type.h"
  17:.\socket.c    **** //#include "stm32f10x.h"
  18:.\socket.c    **** #include "config.h"
  19:.\socket.c    **** #include "stdio.h"
  20:.\socket.c    **** #include "w5200.h"
  21:.\socket.c    **** #include "socket.h"
  22:.\socket.c    **** #include "util.h"
  23:.\socket.c    **** 
  24:.\socket.c    **** static uint16_t local_port;
  25:.\socket.c    **** extern uint16_t sent_ptr;
  26:.\socket.c    **** 
  27:.\socket.c    **** /**
  28:.\socket.c    **** @brief	This Socket function initialize the channel in perticular mode, and set the port and wait fo
  29:.\socket.c    **** @return 	1 for sucess else 0.
  30:.\socket.c    **** */  
  31:.\socket.c    **** uint8_t socket(SOCKET s, uint8_t protocol, uint16_t port, uint8_t flag)
  32:.\socket.c    **** {
ARM GAS  C:\Users\atsu\AppData\Local\Temp\ccMHv1ML.s 			page 2


  33:.\socket.c    **** 	uint8_t ret;
  34:.\socket.c    **** #ifdef __DEF_IINCHIP_DBG__
  35:.\socket.c    **** 	// printf("socket()\r\n");
  36:.\socket.c    **** #endif
  37:.\socket.c    **** 	if ((protocol == Sn_MR_TCP) || (protocol == Sn_MR_UDP) || (protocol == Sn_MR_IPRAW) || (protocol =
  38:.\socket.c    **** 	{
  39:.\socket.c    **** 		close(s);
  40:.\socket.c    **** 		IINCHIP_WRITE(Sn_MR(s),protocol | flag);
  41:.\socket.c    **** 		if (port != 0) {
  42:.\socket.c    **** 			IINCHIP_WRITE(Sn_PORT0(s),(uint8_t)((port & 0xff00) >> 8));
  43:.\socket.c    **** 			IINCHIP_WRITE((Sn_PORT0(s) + 1),(uint8_t)(port & 0x00ff));
  44:.\socket.c    **** 		} else {
  45:.\socket.c    **** 			local_port++; // if don't set the source port, set local_port number.
  46:.\socket.c    **** 			IINCHIP_WRITE(Sn_PORT0(s),(uint8_t)((local_port & 0xff00) >> 8));
  47:.\socket.c    **** 			IINCHIP_WRITE((Sn_PORT0(s) + 1),(uint8_t)(local_port & 0x00ff));
  48:.\socket.c    **** 		}
  49:.\socket.c    **** 		IINCHIP_WRITE(Sn_CR(s),Sn_CR_OPEN); // run sockinit Sn_CR
  50:.\socket.c    **** 
  51:.\socket.c    **** 		/* wait to process the command... */
  52:.\socket.c    **** 		while( IINCHIP_READ(Sn_CR(s)) ) 
  53:.\socket.c    **** 			;
  54:.\socket.c    **** 		/* ------- */
  55:.\socket.c    **** 		ret = 1;
  56:.\socket.c    **** 	}
  57:.\socket.c    **** 	else
  58:.\socket.c    **** 	{
  59:.\socket.c    **** 		ret = 0;
  60:.\socket.c    **** 	}
  61:.\socket.c    **** #ifdef __DEF_IINCHIP_DBG__
  62:.\socket.c    **** 	// printf("Sn_SR = %.2x , Protocol = %.2x\r\n", IINCHIP_READ(Sn_SR(s)), IINCHIP_READ(Sn_MR(s)));
  63:.\socket.c    **** #endif
  64:.\socket.c    **** 	return ret;
  65:.\socket.c    **** }
  66:.\socket.c    **** 
  67:.\socket.c    **** 
  68:.\socket.c    **** /**
  69:.\socket.c    **** @brief	This function close the socket and parameter is "s" which represent the socket number
  70:.\socket.c    **** */ 
  71:.\socket.c    **** void close(SOCKET s)
  72:.\socket.c    **** {
  26              		.loc 1 72 0
  27              		.cfi_startproc
  28              	.LVL0:
  29 0000 38B5     		push	{r3, r4, r5, lr}
  30              	.LCFI0:
  31              		.cfi_def_cfa_offset 16
  32              		.cfi_offset 3, -16
  33              		.cfi_offset 4, -12
  34              		.cfi_offset 5, -8
  35              		.cfi_offset 14, -4
  73:.\socket.c    **** #ifdef __DEF_IINCHIP_DBG__
  74:.\socket.c    **** 	// printf("close()\r\n");
  75:.\socket.c    **** #endif
  76:.\socket.c    **** 	
  77:.\socket.c    **** 	IINCHIP_WRITE(Sn_CR(s),Sn_CR_CLOSE);
  36              		.loc 1 77 0
  37 0002 041C     		mov	r4, r0
ARM GAS  C:\Users\atsu\AppData\Local\Temp\ccMHv1ML.s 			page 3


  38 0004 4034     		add	r4, r4, #64
  39 0006 2002     		lsl	r0, r4, #8
  40              	.LVL1:
  41 0008 84B2     		uxth	r4, r0
  42 000a 651C     		add	r5, r4, #1
  43 000c ADB2     		uxth	r5, r5
  44 000e 281C     		mov	r0, r5
  45 0010 1021     		mov	r1, #16
  46 0012 FFF7FEFF 		bl	IINCHIP_WRITE
  47              	.LVL2:
  48              	.L2:
  78:.\socket.c    **** 
  79:.\socket.c    **** 	/* wait to process the command... */
  80:.\socket.c    **** 	while( IINCHIP_READ(Sn_CR(s)) ) 
  49              		.loc 1 80 0 discriminator 1
  50 0016 281C     		mov	r0, r5
  51 0018 FFF7FEFF 		bl	IINCHIP_READ
  52              	.LVL3:
  53 001c 0028     		cmp	r0, #0
  54 001e FAD1     		bne	.L2
  81:.\socket.c    **** 		;
  82:.\socket.c    **** 	/* ------- */
  83:.\socket.c    ****                 /* all clear */
  84:.\socket.c    **** 		IINCHIP_WRITE(Sn_IR(s), 0xFF);
  55              		.loc 1 84 0
  56 0020 0234     		add	r4, r4, #2
  57 0022 A0B2     		uxth	r0, r4
  58 0024 FF21     		mov	r1, #255
  59 0026 FFF7FEFF 		bl	IINCHIP_WRITE
  60              	.LVL4:
  85:.\socket.c    **** }
  61              		.loc 1 85 0
  62              		@ sp needed for prologue
  63 002a 38BD     		pop	{r3, r4, r5, pc}
  64              		.cfi_endproc
  65              	.LFE1:
  66              		.size	close, .-close
  67              		.section	.text.socket,"ax",%progbits
  68              		.align	1
  69              		.global	socket
  70              		.code	16
  71              		.thumb_func
  72              		.type	socket, %function
  73              	socket:
  74              	.LFB0:
  32:.\socket.c    **** {
  75              		.loc 1 32 0
  76              		.cfi_startproc
  77              	.LVL5:
  78 0000 F8B5     		push	{r3, r4, r5, r6, r7, lr}
  79              	.LCFI1:
  80              		.cfi_def_cfa_offset 24
  81              		.cfi_offset 3, -24
  82              		.cfi_offset 4, -20
  83              		.cfi_offset 5, -16
  84              		.cfi_offset 6, -12
  85              		.cfi_offset 7, -8
ARM GAS  C:\Users\atsu\AppData\Local\Temp\ccMHv1ML.s 			page 4


  86              		.cfi_offset 14, -4
  32:.\socket.c    **** {
  87              		.loc 1 32 0
  88 0002 1F1C     		mov	r7, r3
  37:.\socket.c    **** 	if ((protocol == Sn_MR_TCP) || (protocol == Sn_MR_UDP) || (protocol == Sn_MR_IPRAW) || (protocol =
  89              		.loc 1 37 0
  90 0004 4B1E     		sub	r3, r1, #1
  91              	.LVL6:
  32:.\socket.c    **** {
  92              		.loc 1 32 0
  93 0006 041C     		mov	r4, r0
  94 0008 0E1C     		mov	r6, r1
  95 000a 151C     		mov	r5, r2
  59:.\socket.c    **** 		ret = 0;
  96              		.loc 1 59 0
  97 000c 0020     		mov	r0, #0
  98              	.LVL7:
  37:.\socket.c    **** 	if ((protocol == Sn_MR_TCP) || (protocol == Sn_MR_UDP) || (protocol == Sn_MR_IPRAW) || (protocol =
  99              		.loc 1 37 0
 100 000e 042B     		cmp	r3, #4
 101 0010 2ED8     		bhi	.L6
  39:.\socket.c    **** 		close(s);
 102              		.loc 1 39 0
 103 0012 201C     		mov	r0, r4
  40:.\socket.c    **** 		IINCHIP_WRITE(Sn_MR(s),protocol | flag);
 104              		.loc 1 40 0
 105 0014 4034     		add	r4, r4, #64
  39:.\socket.c    **** 		close(s);
 106              		.loc 1 39 0
 107 0016 FFF7FEFF 		bl	close
 108              	.LVL8:
  40:.\socket.c    **** 		IINCHIP_WRITE(Sn_MR(s),protocol | flag);
 109              		.loc 1 40 0
 110 001a 2002     		lsl	r0, r4, #8
 111 001c 84B2     		uxth	r4, r0
 112 001e 391C     		mov	r1, r7
 113 0020 3143     		orr	r1, r6
 114 0022 201C     		mov	r0, r4
 115 0024 FFF7FEFF 		bl	IINCHIP_WRITE
 116              	.LVL9:
 117 0028 661D     		add	r6, r4, #5
 118 002a 221D     		add	r2, r4, #4
  41:.\socket.c    **** 		if (port != 0) {
 119              		.loc 1 41 0
 120 002c 002D     		cmp	r5, #0
 121 002e 06D0     		beq	.L7
  42:.\socket.c    **** 			IINCHIP_WRITE(Sn_PORT0(s),(uint8_t)((port & 0xff00) >> 8));
 122              		.loc 1 42 0
 123 0030 290A     		lsr	r1, r5, #8
 124 0032 90B2     		uxth	r0, r2
 125 0034 FFF7FEFF 		bl	IINCHIP_WRITE
 126              	.LVL10:
  43:.\socket.c    **** 			IINCHIP_WRITE((Sn_PORT0(s) + 1),(uint8_t)(port & 0x00ff));
 127              		.loc 1 43 0
 128 0038 B0B2     		uxth	r0, r6
 129 003a E9B2     		uxtb	r1, r5
 130 003c 0AE0     		b	.L12
ARM GAS  C:\Users\atsu\AppData\Local\Temp\ccMHv1ML.s 			page 5


 131              	.L7:
  45:.\socket.c    **** 			local_port++; // if don't set the source port, set local_port number.
 132              		.loc 1 45 0
 133 003e 0D4D     		ldr	r5, .L13
  46:.\socket.c    **** 			IINCHIP_WRITE(Sn_PORT0(s),(uint8_t)((local_port & 0xff00) >> 8));
 134              		.loc 1 46 0
 135 0040 90B2     		uxth	r0, r2
  45:.\socket.c    **** 			local_port++; // if don't set the source port, set local_port number.
 136              		.loc 1 45 0
 137 0042 2988     		ldrh	r1, [r5]
 138 0044 0131     		add	r1, r1, #1
 139 0046 8FB2     		uxth	r7, r1
  46:.\socket.c    **** 			IINCHIP_WRITE(Sn_PORT0(s),(uint8_t)((local_port & 0xff00) >> 8));
 140              		.loc 1 46 0
 141 0048 390A     		lsr	r1, r7, #8
  45:.\socket.c    **** 			local_port++; // if don't set the source port, set local_port number.
 142              		.loc 1 45 0
 143 004a 2F80     		strh	r7, [r5]
  46:.\socket.c    **** 			IINCHIP_WRITE(Sn_PORT0(s),(uint8_t)((local_port & 0xff00) >> 8));
 144              		.loc 1 46 0
 145 004c FFF7FEFF 		bl	IINCHIP_WRITE
 146              	.LVL11:
  47:.\socket.c    **** 			IINCHIP_WRITE((Sn_PORT0(s) + 1),(uint8_t)(local_port & 0x00ff));
 147              		.loc 1 47 0
 148 0050 2978     		ldrb	r1, [r5]
 149 0052 B0B2     		uxth	r0, r6
 150              	.L12:
  49:.\socket.c    **** 		IINCHIP_WRITE(Sn_CR(s),Sn_CR_OPEN); // run sockinit Sn_CR
 151              		.loc 1 49 0
 152 0054 0134     		add	r4, r4, #1
 153 0056 A4B2     		uxth	r4, r4
  47:.\socket.c    **** 			IINCHIP_WRITE((Sn_PORT0(s) + 1),(uint8_t)(local_port & 0x00ff));
 154              		.loc 1 47 0
 155 0058 FFF7FEFF 		bl	IINCHIP_WRITE
 156              	.LVL12:
  49:.\socket.c    **** 		IINCHIP_WRITE(Sn_CR(s),Sn_CR_OPEN); // run sockinit Sn_CR
 157              		.loc 1 49 0
 158 005c 201C     		mov	r0, r4
 159 005e 0121     		mov	r1, #1
 160 0060 FFF7FEFF 		bl	IINCHIP_WRITE
 161              	.LVL13:
 162              	.L9:
  52:.\socket.c    **** 		while( IINCHIP_READ(Sn_CR(s)) ) 
 163              		.loc 1 52 0 discriminator 1
 164 0064 201C     		mov	r0, r4
 165 0066 FFF7FEFF 		bl	IINCHIP_READ
 166              	.LVL14:
 167 006a 0028     		cmp	r0, #0
 168 006c FAD1     		bne	.L9
  55:.\socket.c    **** 		ret = 1;
 169              		.loc 1 55 0
 170 006e 0120     		mov	r0, #1
 171              	.L6:
 172              	.LVL15:
  65:.\socket.c    **** }
 173              		.loc 1 65 0
 174              		@ sp needed for prologue
ARM GAS  C:\Users\atsu\AppData\Local\Temp\ccMHv1ML.s 			page 6


 175 0070 F8BD     		pop	{r3, r4, r5, r6, r7, pc}
 176              	.L14:
 177 0072 C046     		.align	2
 178              	.L13:
 179 0074 00000000 		.word	.LANCHOR0
 180              		.cfi_endproc
 181              	.LFE0:
 182              		.size	socket, .-socket
 183              		.section	.text.listen,"ax",%progbits
 184              		.align	1
 185              		.global	listen
 186              		.code	16
 187              		.thumb_func
 188              		.type	listen, %function
 189              	listen:
 190              	.LFB2:
  86:.\socket.c    **** 
  87:.\socket.c    **** 
  88:.\socket.c    **** /**
  89:.\socket.c    **** @brief	This function established  the connection for the channel in passive (server) mode. This fun
  90:.\socket.c    **** @return	1 for success else 0.
  91:.\socket.c    **** */ 
  92:.\socket.c    **** uint8_t listen(SOCKET s)
  93:.\socket.c    **** {
 191              		.loc 1 93 0
 192              		.cfi_startproc
 193              	.LVL16:
 194 0000 10B5     		push	{r4, lr}
 195              	.LCFI2:
 196              		.cfi_def_cfa_offset 8
 197              		.cfi_offset 4, -8
 198              		.cfi_offset 14, -4
  94:.\socket.c    **** 	uint8_t ret;
  95:.\socket.c    **** #ifdef __DEF_IINCHIP_DBG__
  96:.\socket.c    **** 	// printf("listen()\r\n");
  97:.\socket.c    **** #endif
  98:.\socket.c    **** 	if (IINCHIP_READ(Sn_SR(s)) == SOCK_INIT)
 199              		.loc 1 98 0
 200 0002 041C     		mov	r4, r0
 201 0004 4034     		add	r4, r4, #64
 202 0006 2002     		lsl	r0, r4, #8
 203              	.LVL17:
 204 0008 84B2     		uxth	r4, r0
 205 000a E11C     		add	r1, r4, #3
 206 000c 88B2     		uxth	r0, r1
 207 000e FFF7FEFF 		bl	IINCHIP_READ
 208              	.LVL18:
  99:.\socket.c    **** 	{
 100:.\socket.c    **** 		IINCHIP_WRITE(Sn_CR(s),Sn_CR_LISTEN);
 101:.\socket.c    **** 		/* wait to process the command... */
 102:.\socket.c    **** 		while( IINCHIP_READ(Sn_CR(s)) ) 
 103:.\socket.c    **** 			;
 104:.\socket.c    **** 		/* ------- */
 105:.\socket.c    **** 		ret = 1;
 106:.\socket.c    **** 	}
 107:.\socket.c    **** 	else
 108:.\socket.c    **** 	{
ARM GAS  C:\Users\atsu\AppData\Local\Temp\ccMHv1ML.s 			page 7


 109:.\socket.c    **** 		ret = 0;
 209              		.loc 1 109 0
 210 0012 0023     		mov	r3, #0
  98:.\socket.c    **** 	if (IINCHIP_READ(Sn_SR(s)) == SOCK_INIT)
 211              		.loc 1 98 0
 212 0014 1328     		cmp	r0, #19
 213 0016 0BD1     		bne	.L16
 100:.\socket.c    **** 		IINCHIP_WRITE(Sn_CR(s),Sn_CR_LISTEN);
 214              		.loc 1 100 0
 215 0018 0134     		add	r4, r4, #1
 216 001a A4B2     		uxth	r4, r4
 217 001c 201C     		mov	r0, r4
 218 001e 0221     		mov	r1, #2
 219 0020 FFF7FEFF 		bl	IINCHIP_WRITE
 220              	.LVL19:
 221              	.L17:
 102:.\socket.c    **** 		while( IINCHIP_READ(Sn_CR(s)) ) 
 222              		.loc 1 102 0 discriminator 1
 223 0024 201C     		mov	r0, r4
 224 0026 FFF7FEFF 		bl	IINCHIP_READ
 225              	.LVL20:
 226 002a 0028     		cmp	r0, #0
 227 002c FAD1     		bne	.L17
 105:.\socket.c    **** 		ret = 1;
 228              		.loc 1 105 0
 229 002e 0123     		mov	r3, #1
 230              	.L16:
 231              	.LVL21:
 110:.\socket.c    **** #ifdef __DEF_IINCHIP_DBG__
 111:.\socket.c    **** 	// printf("Fail[invalid ip,port]\r\n");
 112:.\socket.c    **** #endif
 113:.\socket.c    **** 	}
 114:.\socket.c    **** 	return ret;
 115:.\socket.c    **** }
 232              		.loc 1 115 0
 233 0030 181C     		mov	r0, r3
 234              		@ sp needed for prologue
 235 0032 10BD     		pop	{r4, pc}
 236              		.cfi_endproc
 237              	.LFE2:
 238              		.size	listen, .-listen
 239              		.section	.text.connect,"ax",%progbits
 240              		.align	1
 241              		.global	connect
 242              		.code	16
 243              		.thumb_func
 244              		.type	connect, %function
 245              	connect:
 246              	.LFB3:
 116:.\socket.c    **** 
 117:.\socket.c    **** 
 118:.\socket.c    **** /**
 119:.\socket.c    **** @brief	This function established  the connection for the channel in Active (client) mode. 
 120:.\socket.c    **** 		This function waits for the untill the connection is established.
 121:.\socket.c    **** 		
 122:.\socket.c    **** @return	1 for success else 0.
 123:.\socket.c    **** */ 
ARM GAS  C:\Users\atsu\AppData\Local\Temp\ccMHv1ML.s 			page 8


 124:.\socket.c    **** uint8_t connect(SOCKET s, uint8_t * addr, uint16_t port)
 125:.\socket.c    **** {
 247              		.loc 1 125 0
 248              		.cfi_startproc
 249              	.LVL22:
 250 0000 F8B5     		push	{r3, r4, r5, r6, r7, lr}
 251              	.LCFI3:
 252              		.cfi_def_cfa_offset 24
 253              		.cfi_offset 3, -24
 254              		.cfi_offset 4, -20
 255              		.cfi_offset 5, -16
 256              		.cfi_offset 6, -12
 257              		.cfi_offset 7, -8
 258              		.cfi_offset 14, -4
 259              		.loc 1 125 0
 260 0002 0C1C     		mov	r4, r1
 126:.\socket.c    **** 	uint8_t ret;
 127:.\socket.c    **** #ifdef __DEF_IINCHIP_DBG__
 128:.\socket.c    **** 	// printf("connect()\r\n");
 129:.\socket.c    **** #endif
 130:.\socket.c    **** 	if 
 131:.\socket.c    **** 		(
 132:.\socket.c    **** 			((addr[0] == 0xFF) && (addr[1] == 0xFF) && (addr[2] == 0xFF) && (addr[3] == 0xFF)) ||
 261              		.loc 1 132 0
 262 0004 0978     		ldrb	r1, [r1]
 263              	.LVL23:
 125:.\socket.c    **** {
 264              		.loc 1 125 0
 265 0006 071C     		mov	r7, r0
 266 0008 161C     		mov	r6, r2
 131:.\socket.c    **** 		(
 267              		.loc 1 131 0
 268 000a FF29     		cmp	r1, #255
 269 000c 09D1     		bne	.L21
 270              		.loc 1 132 0
 271 000e 6578     		ldrb	r5, [r4, #1]
 272 0010 FF2D     		cmp	r5, #255
 273 0012 12D1     		bne	.L22
 274              		.loc 1 132 0 is_stmt 0 discriminator 1
 275 0014 A378     		ldrb	r3, [r4, #2]
 276 0016 FF2B     		cmp	r3, #255
 277 0018 0FD1     		bne	.L22
 278 001a E078     		ldrb	r0, [r4, #3]
 279              	.LVL24:
 280 001c FF28     		cmp	r0, #255
 281 001e 0CD1     		bne	.L22
 282 0020 5EE0     		b	.L41
 283              	.LVL25:
 284              	.L21:
 285              		.loc 1 132 0 discriminator 2
 286 0022 0029     		cmp	r1, #0
 287 0024 09D1     		bne	.L22
 133:.\socket.c    **** 		 	((addr[0] == 0x00) && (addr[1] == 0x00) && (addr[2] == 0x00) && (addr[3] == 0x00)) ||
 288              		.loc 1 133 0 is_stmt 1
 289 0026 6378     		ldrb	r3, [r4, #1]
 290 0028 002B     		cmp	r3, #0
 291 002a 06D1     		bne	.L22
ARM GAS  C:\Users\atsu\AppData\Local\Temp\ccMHv1ML.s 			page 9


 292              		.loc 1 133 0 is_stmt 0 discriminator 1
 293 002c A078     		ldrb	r0, [r4, #2]
 294              	.LVL26:
 295 002e 0028     		cmp	r0, #0
 296 0030 03D1     		bne	.L22
 297 0032 E278     		ldrb	r2, [r4, #3]
 298              	.LVL27:
 134:.\socket.c    **** 		 	(port == 0x00) 
 135:.\socket.c    **** 		) 
 136:.\socket.c    ****  	{
 137:.\socket.c    ****  		ret = 0;
 299              		.loc 1 137 0 is_stmt 1 discriminator 1
 300 0034 0D1C     		mov	r5, r1
 133:.\socket.c    **** 		 	((addr[0] == 0x00) && (addr[1] == 0x00) && (addr[2] == 0x00) && (addr[3] == 0x00)) ||
 301              		.loc 1 133 0 discriminator 1
 302 0036 002A     		cmp	r2, #0
 303 0038 53D0     		beq	.L23
 304              	.L22:
 305              		.loc 1 137 0 discriminator 2
 306 003a 0025     		mov	r5, #0
 133:.\socket.c    **** 		 	((addr[0] == 0x00) && (addr[1] == 0x00) && (addr[2] == 0x00) && (addr[3] == 0x00)) ||
 307              		.loc 1 133 0 discriminator 2
 308 003c AE42     		cmp	r6, r5
 309 003e 50D0     		beq	.L23
 310              	.LVL28:
 138:.\socket.c    **** #ifdef __DEF_IINCHIP_DBG__
 139:.\socket.c    **** 	// printf("Fail[invalid ip,port]\r\n");
 140:.\socket.c    **** #endif
 141:.\socket.c    **** 	}
 142:.\socket.c    **** 	else
 143:.\socket.c    **** 	{
 144:.\socket.c    **** 		ret = 1;
 145:.\socket.c    **** 		// set destination IP
 146:.\socket.c    **** 		IINCHIP_WRITE(Sn_DIPR0(s),addr[0]);
 311              		.loc 1 146 0
 312 0040 3A1C     		mov	r2, r7
 313 0042 4032     		add	r2, r2, #64
 314 0044 1502     		lsl	r5, r2, #8
 315 0046 ADB2     		uxth	r5, r5
 316 0048 2B1C     		mov	r3, r5
 317 004a 0C33     		add	r3, r3, #12
 318 004c 98B2     		uxth	r0, r3
 319 004e FFF7FEFF 		bl	IINCHIP_WRITE
 320              	.LVL29:
 147:.\socket.c    **** 		IINCHIP_WRITE((Sn_DIPR0(s) + 1),addr[1]);
 321              		.loc 1 147 0
 322 0052 291C     		mov	r1, r5
 323 0054 0D31     		add	r1, r1, #13
 324 0056 88B2     		uxth	r0, r1
 325 0058 6178     		ldrb	r1, [r4, #1]
 326 005a FFF7FEFF 		bl	IINCHIP_WRITE
 327              	.LVL30:
 148:.\socket.c    **** 		IINCHIP_WRITE((Sn_DIPR0(s) + 2),addr[2]);
 328              		.loc 1 148 0
 329 005e 281C     		mov	r0, r5
 330 0060 0E30     		add	r0, r0, #14
 331 0062 A178     		ldrb	r1, [r4, #2]
ARM GAS  C:\Users\atsu\AppData\Local\Temp\ccMHv1ML.s 			page 10


 332 0064 80B2     		uxth	r0, r0
 333 0066 FFF7FEFF 		bl	IINCHIP_WRITE
 334              	.LVL31:
 149:.\socket.c    **** 		IINCHIP_WRITE((Sn_DIPR0(s) + 3),addr[3]);
 335              		.loc 1 149 0
 336 006a 2A1C     		mov	r2, r5
 337 006c 0F32     		add	r2, r2, #15
 338 006e E178     		ldrb	r1, [r4, #3]
 150:.\socket.c    **** 		IINCHIP_WRITE(Sn_DPORT0(s),(uint8_t)((port & 0xff00) >> 8));
 339              		.loc 1 150 0
 340 0070 2C1C     		mov	r4, r5
 341              	.LVL32:
 149:.\socket.c    **** 		IINCHIP_WRITE((Sn_DIPR0(s) + 3),addr[3]);
 342              		.loc 1 149 0
 343 0072 90B2     		uxth	r0, r2
 344              		.loc 1 150 0
 345 0074 1034     		add	r4, r4, #16
 149:.\socket.c    **** 		IINCHIP_WRITE((Sn_DIPR0(s) + 3),addr[3]);
 346              		.loc 1 149 0
 347 0076 FFF7FEFF 		bl	IINCHIP_WRITE
 348              	.LVL33:
 349              		.loc 1 150 0
 350 007a 310A     		lsr	r1, r6, #8
 351 007c A0B2     		uxth	r0, r4
 352 007e FFF7FEFF 		bl	IINCHIP_WRITE
 353              	.LVL34:
 151:.\socket.c    **** 		IINCHIP_WRITE((Sn_DPORT0(s) + 1),(uint8_t)(port & 0x00ff));
 354              		.loc 1 151 0
 355 0082 2B1C     		mov	r3, r5
 356 0084 F1B2     		uxtb	r1, r6
 357 0086 1133     		add	r3, r3, #17
 152:.\socket.c    **** 		clearSUBR();   // clear the subnet mask again and keep it because of the ARP errata of W5100
 153:.\socket.c    **** 		IINCHIP_WRITE(Sn_CR(s),Sn_CR_CONNECT);
 358              		.loc 1 153 0
 359 0088 6E1C     		add	r6, r5, #1
 151:.\socket.c    **** 		IINCHIP_WRITE((Sn_DPORT0(s) + 1),(uint8_t)(port & 0x00ff));
 360              		.loc 1 151 0
 361 008a 98B2     		uxth	r0, r3
 362              		.loc 1 153 0
 363 008c B4B2     		uxth	r4, r6
 151:.\socket.c    **** 		IINCHIP_WRITE((Sn_DPORT0(s) + 1),(uint8_t)(port & 0x00ff));
 364              		.loc 1 151 0
 365 008e FFF7FEFF 		bl	IINCHIP_WRITE
 366              	.LVL35:
 152:.\socket.c    **** 		clearSUBR();   // clear the subnet mask again and keep it because of the ARP errata of W5100
 367              		.loc 1 152 0
 368 0092 FFF7FEFF 		bl	clearSUBR
 369              	.LVL36:
 370              		.loc 1 153 0
 371 0096 201C     		mov	r0, r4
 372 0098 0421     		mov	r1, #4
 373 009a FFF7FEFF 		bl	IINCHIP_WRITE
 374              	.LVL37:
 375              	.L24:
 154:.\socket.c    ****                 /* wait for completion */
 155:.\socket.c    **** 		while ( IINCHIP_READ(Sn_CR(s)) ) ;
 376              		.loc 1 155 0 discriminator 1
ARM GAS  C:\Users\atsu\AppData\Local\Temp\ccMHv1ML.s 			page 11


 377 009e 201C     		mov	r0, r4
 378 00a0 FFF7FEFF 		bl	IINCHIP_READ
 379              	.LVL38:
 380 00a4 0028     		cmp	r0, #0
 381 00a6 FAD1     		bne	.L24
 382              	.L35:
 156:.\socket.c    **** 		while ( IINCHIP_READ(Sn_SR(s)) != SOCK_SYNSENT )
 383              		.loc 1 156 0
 384 00a8 E91C     		add	r1, r5, #3
 385 00aa 8EB2     		uxth	r6, r1
 386 00ac 301C     		mov	r0, r6
 387 00ae FFF7FEFF 		bl	IINCHIP_READ
 388              	.LVL39:
 389 00b2 1528     		cmp	r0, #21
 390 00b4 04D0     		beq	.L29
 391              	.L28:
 157:.\socket.c    **** 		{
 158:.\socket.c    **** 			if(IINCHIP_READ(Sn_SR(s)) == SOCK_ESTABLISHED)
 392              		.loc 1 158 0
 393 00b6 301C     		mov	r0, r6
 394 00b8 FFF7FEFF 		bl	IINCHIP_READ
 395              	.LVL40:
 396 00bc 1728     		cmp	r0, #23
 397 00be 01D1     		bne	.L26
 398              	.L29:
 144:.\socket.c    **** 		ret = 1;
 399              		.loc 1 144 0
 400 00c0 0125     		mov	r5, #1
 401 00c2 0AE0     		b	.L27
 402              	.L26:
 159:.\socket.c    **** 			{
 160:.\socket.c    **** 				break;
 161:.\socket.c    **** 			}
 162:.\socket.c    **** 			if (getSn_IR(s) & Sn_IR_TIMEOUT)
 403              		.loc 1 162 0
 404 00c4 381C     		mov	r0, r7
 405 00c6 FFF7FEFF 		bl	getSn_IR
 406              	.LVL41:
 407 00ca 0821     		mov	r1, #8
 408 00cc 0842     		tst	r0, r1
 409 00ce EBD0     		beq	.L35
 163:.\socket.c    **** 			{
 164:.\socket.c    **** 				IINCHIP_WRITE(Sn_IR(s), (Sn_IR_TIMEOUT));  // clear TIMEOUT Interrupt
 410              		.loc 1 164 0
 411 00d0 0235     		add	r5, r5, #2
 412 00d2 A8B2     		uxth	r0, r5
 413 00d4 FFF7FEFF 		bl	IINCHIP_WRITE
 414              	.LVL42:
 165:.\socket.c    **** 				ret = 0;
 415              		.loc 1 165 0
 416 00d8 0025     		mov	r5, #0
 417              	.LVL43:
 418              	.L27:
 166:.\socket.c    **** 				break;
 167:.\socket.c    **** 			}
 168:.\socket.c    **** 		}
 169:.\socket.c    **** 		setSUBR();	 // set the subnet mask register
ARM GAS  C:\Users\atsu\AppData\Local\Temp\ccMHv1ML.s 			page 12


 419              		.loc 1 169 0
 420 00da FFF7FEFF 		bl	setSUBR
 421              	.LVL44:
 422 00de 00E0     		b	.L23
 423              	.LVL45:
 424              	.L41:
 137:.\socket.c    ****  		ret = 0;
 425              		.loc 1 137 0
 426 00e0 0025     		mov	r5, #0
 427              	.LVL46:
 428              	.L23:
 170:.\socket.c    **** 	}
 171:.\socket.c    **** 	
 172:.\socket.c    **** 	return ret;
 173:.\socket.c    **** }
 429              		.loc 1 173 0
 430 00e2 281C     		mov	r0, r5
 431              		@ sp needed for prologue
 432              	.LVL47:
 433 00e4 F8BD     		pop	{r3, r4, r5, r6, r7, pc}
 434              		.cfi_endproc
 435              	.LFE3:
 436              		.size	connect, .-connect
 437              		.section	.text.disconnect,"ax",%progbits
 438              		.align	1
 439              		.global	disconnect
 440              		.code	16
 441              		.thumb_func
 442              		.type	disconnect, %function
 443              	disconnect:
 444              	.LFB4:
 174:.\socket.c    **** 
 175:.\socket.c    **** 
 176:.\socket.c    **** 
 177:.\socket.c    **** /**
 178:.\socket.c    **** @brief	This function used for disconnect the socket and parameter is "s" which represent the socket
 179:.\socket.c    **** @return	1 for success else 0.
 180:.\socket.c    **** */ 
 181:.\socket.c    **** void disconnect(SOCKET s)
 182:.\socket.c    **** {
 445              		.loc 1 182 0
 446              		.cfi_startproc
 447              	.LVL48:
 183:.\socket.c    **** #ifdef __DEF_IINCHIP_DBG__
 184:.\socket.c    **** 	// printf("disconnect()\r\n");
 185:.\socket.c    **** #endif
 186:.\socket.c    **** 	IINCHIP_WRITE(Sn_CR(s),Sn_CR_DISCON);
 448              		.loc 1 186 0
 449 0000 074B     		ldr	r3, .L45
 182:.\socket.c    **** {
 450              		.loc 1 182 0
 451 0002 10B5     		push	{r4, lr}
 452              	.LCFI4:
 453              		.cfi_def_cfa_offset 8
 454              		.cfi_offset 4, -8
 455              		.cfi_offset 14, -4
 456              		.loc 1 186 0
ARM GAS  C:\Users\atsu\AppData\Local\Temp\ccMHv1ML.s 			page 13


 457 0004 0402     		lsl	r4, r0, #8
 458 0006 E018     		add	r0, r4, r3
 459              	.LVL49:
 460 0008 84B2     		uxth	r4, r0
 461 000a 201C     		mov	r0, r4
 462 000c 0821     		mov	r1, #8
 463 000e FFF7FEFF 		bl	IINCHIP_WRITE
 464              	.LVL50:
 465              	.L43:
 187:.\socket.c    **** 
 188:.\socket.c    **** 	/* wait to process the command... */
 189:.\socket.c    **** 	while( IINCHIP_READ(Sn_CR(s)) ) 
 466              		.loc 1 189 0 discriminator 1
 467 0012 201C     		mov	r0, r4
 468 0014 FFF7FEFF 		bl	IINCHIP_READ
 469              	.LVL51:
 470 0018 0028     		cmp	r0, #0
 471 001a FAD1     		bne	.L43
 190:.\socket.c    **** 		;
 191:.\socket.c    **** 	/* ------- */
 192:.\socket.c    **** }
 472              		.loc 1 192 0
 473              		@ sp needed for prologue
 474 001c 10BD     		pop	{r4, pc}
 475              	.L46:
 476 001e C046     		.align	2
 477              	.L45:
 478 0020 01400000 		.word	16385
 479              		.cfi_endproc
 480              	.LFE4:
 481              		.size	disconnect, .-disconnect
 482              		.section	.text.send,"ax",%progbits
 483              		.align	1
 484              		.global	send
 485              		.code	16
 486              		.thumb_func
 487              		.type	send, %function
 488              	send:
 489              	.LFB5:
 193:.\socket.c    **** 
 194:.\socket.c    **** 
 195:.\socket.c    **** /**
 196:.\socket.c    **** @brief	This function used to send the data in TCP mode
 197:.\socket.c    **** @return	1 for success else 0.
 198:.\socket.c    **** */ 
 199:.\socket.c    **** uint16_t send(SOCKET s, const uint8_t * buf, uint16_t len, bool retry)
 200:.\socket.c    **** {
 490              		.loc 1 200 0
 491              		.cfi_startproc
 492              	.LVL52:
 493 0000 F0B5     		push	{r4, r5, r6, r7, lr}
 494              	.LCFI5:
 495              		.cfi_def_cfa_offset 20
 496              		.cfi_offset 4, -20
 497              		.cfi_offset 5, -16
 498              		.cfi_offset 6, -12
 499              		.cfi_offset 7, -8
ARM GAS  C:\Users\atsu\AppData\Local\Temp\ccMHv1ML.s 			page 14


 500              		.cfi_offset 14, -4
 501 0002 051C     		mov	r5, r0
 502 0004 85B0     		sub	sp, sp, #20
 503              	.LCFI6:
 504              		.cfi_def_cfa_offset 40
 505              		.loc 1 200 0
 506 0006 041C     		mov	r4, r0
 507 0008 0191     		str	r1, [sp, #4]
 508 000a 161C     		mov	r6, r2
 509 000c 4035     		add	r5, r5, #64
 201:.\socket.c    **** 	uint8_t status=0;
 202:.\socket.c    **** 	uint16_t ret=0;
 203:.\socket.c    **** 	uint16_t freesize=0;
 204:.\socket.c    **** 	uint16_t txrd, txrd_before_send;
 205:.\socket.c    **** 
 206:.\socket.c    **** #ifdef __DEF_IINCHIP_DBG__
 207:.\socket.c    **** 	// printf("send()\r\n");
 208:.\socket.c    **** #endif        
 209:.\socket.c    **** 	if(retry) ;
 510              		.loc 1 209 0
 511 000e 002B     		cmp	r3, #0
 512 0010 17D0     		beq	.L48
 513              	.LVL53:
 514              	.L54:
 210:.\socket.c    **** 	else {     
 211:.\socket.c    **** 		if (len > getIINCHIP_TxMAX(s)) ret = getIINCHIP_TxMAX(s); // check size not to exceed MAX size.
 212:.\socket.c    **** 		else ret = len;
 213:.\socket.c    **** 
 214:.\socket.c    **** 		// if freebuf is available, start.
 215:.\socket.c    **** 		do 
 216:.\socket.c    **** 		{
 217:.\socket.c    **** 			freesize = getSn_TX_FSR(s);
 218:.\socket.c    **** 			status = IINCHIP_READ(Sn_SR(s));
 219:.\socket.c    **** 			if ((status != SOCK_ESTABLISHED) && (status != SOCK_CLOSE_WAIT))
 220:.\socket.c    **** 			{
 221:.\socket.c    **** 				ret = 0; 
 222:.\socket.c    **** 				break;
 223:.\socket.c    **** 			}
 224:.\socket.c    **** #ifdef __DEF_IINCHIP_DBG__
 225:.\socket.c    **** 			// printf("socket %d freesize(%d) empty or error\r\n", s, freesize);
 226:.\socket.c    **** #endif
 227:.\socket.c    **** 		} while (freesize < ret);
 228:.\socket.c    **** 
 229:.\socket.c    **** 		// copy data
 230:.\socket.c    **** 		send_data_processing(s, (uint8_t *)buf, ret);
 231:.\socket.c    **** 	}
 232:.\socket.c    **** 
 233:.\socket.c    **** 
 234:.\socket.c    **** //	if(ret != 0) // error code
 235:.\socket.c    **** // 2013-07-30 wiznet fix the code to add condition "retry"
 236:.\socket.c    **** 	if(retry || ret != 0)
 237:.\socket.c    **** 	{
 238:.\socket.c    **** 		txrd_before_send = IINCHIP_READ(Sn_TX_RD0(s));
 515              		.loc 1 238 0
 516 0012 2802     		lsl	r0, r5, #8
 517 0014 85B2     		uxth	r5, r0
 518 0016 291C     		mov	r1, r5
ARM GAS  C:\Users\atsu\AppData\Local\Temp\ccMHv1ML.s 			page 15


 519 0018 2231     		add	r1, r1, #34
 520 001a 8FB2     		uxth	r7, r1
 521 001c 381C     		mov	r0, r7
 522 001e FFF7FEFF 		bl	IINCHIP_READ
 523              	.LVL54:
 239:.\socket.c    **** 		txrd_before_send = (txrd_before_send << 8) + IINCHIP_READ(Sn_TX_RD0(s) + 1);
 524              		.loc 1 239 0
 525 0022 2A1C     		mov	r2, r5
 526 0024 2332     		add	r2, r2, #35
 527 0026 96B2     		uxth	r6, r2
 238:.\socket.c    **** 		txrd_before_send = IINCHIP_READ(Sn_TX_RD0(s));
 528              		.loc 1 238 0
 529 0028 0290     		str	r0, [sp, #8]
 530              	.LVL55:
 531              		.loc 1 239 0
 532 002a 301C     		mov	r0, r6
 533 002c 0196     		str	r6, [sp, #4]
 534 002e FFF7FEFF 		bl	IINCHIP_READ
 535              	.LVL56:
 240:.\socket.c    ****   
 241:.\socket.c    **** 		IINCHIP_WRITE(Sn_CR(s),Sn_CR_SEND);
 536              		.loc 1 241 0
 537 0032 6B1C     		add	r3, r5, #1
 538 0034 9EB2     		uxth	r6, r3
 239:.\socket.c    **** 		txrd_before_send = (txrd_before_send << 8) + IINCHIP_READ(Sn_TX_RD0(s) + 1);
 539              		.loc 1 239 0
 540 0036 0390     		str	r0, [sp, #12]
 541              	.LVL57:
 542              		.loc 1 241 0
 543 0038 2021     		mov	r1, #32
 544 003a 301C     		mov	r0, r6
 545 003c FFF7FEFF 		bl	IINCHIP_WRITE
 546              	.LVL58:
 242:.\socket.c    **** 	
 243:.\socket.c    **** 		/* wait to process the command... */
 244:.\socket.c    **** 		while( IINCHIP_READ(Sn_CR(s)) );
 547              		.loc 1 244 0
 548 0040 22E0     		b	.L49
 549              	.LVL59:
 550              	.L48:
 211:.\socket.c    **** 		if (len > getIINCHIP_TxMAX(s)) ret = getIINCHIP_TxMAX(s); // check size not to exceed MAX size.
 551              		.loc 1 211 0
 552 0042 FFF7FEFF 		bl	getIINCHIP_TxMAX
 553              	.LVL60:
 554 0046 8642     		cmp	r6, r0
 555 0048 03D9     		bls	.L50
 211:.\socket.c    **** 		if (len > getIINCHIP_TxMAX(s)) ret = getIINCHIP_TxMAX(s); // check size not to exceed MAX size.
 556              		.loc 1 211 0 is_stmt 0 discriminator 1
 557 004a 201C     		mov	r0, r4
 558 004c FFF7FEFF 		bl	getIINCHIP_TxMAX
 559              	.LVL61:
 560 0050 061C     		mov	r6, r0
 561              	.LVL62:
 562              	.L50:
 218:.\socket.c    **** 			status = IINCHIP_READ(Sn_SR(s));
 563              		.loc 1 218 0 is_stmt 1
 564 0052 2F02     		lsl	r7, r5, #8
ARM GAS  C:\Users\atsu\AppData\Local\Temp\ccMHv1ML.s 			page 16


 565 0054 0337     		add	r7, r7, #3
 566 0056 BFB2     		uxth	r7, r7
 567              	.LVL63:
 568              	.L53:
 217:.\socket.c    **** 			freesize = getSn_TX_FSR(s);
 569              		.loc 1 217 0
 570 0058 201C     		mov	r0, r4
 571 005a FFF7FEFF 		bl	getSn_TX_FSR
 572              	.LVL64:
 573 005e 0290     		str	r0, [sp, #8]
 574              	.LVL65:
 218:.\socket.c    **** 			status = IINCHIP_READ(Sn_SR(s));
 575              		.loc 1 218 0
 576 0060 381C     		mov	r0, r7
 577              	.LVL66:
 578 0062 FFF7FEFF 		bl	IINCHIP_READ
 579              	.LVL67:
 219:.\socket.c    **** 			if ((status != SOCK_ESTABLISHED) && (status != SOCK_CLOSE_WAIT))
 580              		.loc 1 219 0
 581 0066 1728     		cmp	r0, #23
 582 0068 01D0     		beq	.L51
 219:.\socket.c    **** 			if ((status != SOCK_ESTABLISHED) && (status != SOCK_CLOSE_WAIT))
 583              		.loc 1 219 0 is_stmt 0 discriminator 1
 584 006a 1C28     		cmp	r0, #28
 585 006c 03D1     		bne	.L60
 586              	.L51:
 227:.\socket.c    **** 		} while (freesize < ret);
 587              		.loc 1 227 0 is_stmt 1
 588 006e 029B     		ldr	r3, [sp, #8]
 589 0070 B342     		cmp	r3, r6
 590 0072 F1D3     		bcc	.L53
 591 0074 00E0     		b	.L52
 592              	.L60:
 221:.\socket.c    **** 				ret = 0; 
 593              		.loc 1 221 0
 594 0076 0026     		mov	r6, #0
 595              	.L52:
 596              	.LVL68:
 230:.\socket.c    **** 		send_data_processing(s, (uint8_t *)buf, ret);
 597              		.loc 1 230 0
 598 0078 201C     		mov	r0, r4
 599              	.LVL69:
 600 007a 0199     		ldr	r1, [sp, #4]
 601 007c 321C     		mov	r2, r6
 602 007e FFF7FEFF 		bl	send_data_processing
 603              	.LVL70:
 236:.\socket.c    **** 	if(retry || ret != 0)
 604              		.loc 1 236 0
 605 0082 002E     		cmp	r6, #0
 606 0084 C5D1     		bne	.L54
 607 0086 29E0     		b	.L55
 608              	.LVL71:
 609              	.L49:
 610              		.loc 1 244 0 discriminator 1
 611 0088 301C     		mov	r0, r6
 612 008a FFF7FEFF 		bl	IINCHIP_READ
 613              	.LVL72:
ARM GAS  C:\Users\atsu\AppData\Local\Temp\ccMHv1ML.s 			page 17


 614 008e 0028     		cmp	r0, #0
 615 0090 FAD1     		bne	.L49
 616              	.L63:
 245:.\socket.c    **** 
 246:.\socket.c    **** 		while ( (IINCHIP_READ(Sn_IR(s)) & Sn_IR_SEND_OK) != Sn_IR_SEND_OK )
 617              		.loc 1 246 0
 618 0092 A81C     		add	r0, r5, #2
 619 0094 86B2     		uxth	r6, r0
 620 0096 301C     		mov	r0, r6
 621 0098 FFF7FEFF 		bl	IINCHIP_READ
 622              	.LVL73:
 623 009c 1021     		mov	r1, #16
 624 009e 0842     		tst	r0, r1
 625 00a0 08D1     		bne	.L68
 626              	.L57:
 247:.\socket.c    ****                 {
 248:.\socket.c    **** 			if(IINCHIP_READ(Sn_IR(s)) == SOCK_CLOSED)
 627              		.loc 1 248 0
 628 00a2 301C     		mov	r0, r6
 629 00a4 FFF7FEFF 		bl	IINCHIP_READ
 630              	.LVL74:
 631 00a8 061E     		sub	r6, r0, #0
 632 00aa F2D1     		bne	.L63
 249:.\socket.c    **** 			{
 250:.\socket.c    **** #ifdef __DEF_IINCHIP_DBG__
 251:.\socket.c    **** 				// printf("SOCK_CLOSED.\r\n");                    
 252:.\socket.c    **** #endif
 253:.\socket.c    **** 				close(s);
 633              		.loc 1 253 0
 634 00ac 201C     		mov	r0, r4
 635 00ae FFF7FEFF 		bl	close
 636              	.LVL75:
 254:.\socket.c    **** 				return 0;
 637              		.loc 1 254 0
 638 00b2 13E0     		b	.L55
 639              	.L68:
 239:.\socket.c    **** 		txrd_before_send = (txrd_before_send << 8) + IINCHIP_READ(Sn_TX_RD0(s) + 1);
 640              		.loc 1 239 0
 641 00b4 029C     		ldr	r4, [sp, #8]
 642 00b6 039A     		ldr	r2, [sp, #12]
 643 00b8 2502     		lsl	r5, r4, #8
 644 00ba AB18     		add	r3, r5, r2
 255:.\socket.c    **** 			}
 256:.\socket.c    **** 		}
 257:.\socket.c    **** 		IINCHIP_WRITE(Sn_IR(s), Sn_IR_SEND_OK);
 645              		.loc 1 257 0
 646 00bc 301C     		mov	r0, r6
 239:.\socket.c    **** 		txrd_before_send = (txrd_before_send << 8) + IINCHIP_READ(Sn_TX_RD0(s) + 1);
 647              		.loc 1 239 0
 648 00be 9CB2     		uxth	r4, r3
 649              		.loc 1 257 0
 650 00c0 FFF7FEFF 		bl	IINCHIP_WRITE
 651              	.LVL76:
 258:.\socket.c    **** 
 259:.\socket.c    **** 		txrd = IINCHIP_READ(Sn_TX_RD0(s));
 652              		.loc 1 259 0
 653 00c4 381C     		mov	r0, r7
ARM GAS  C:\Users\atsu\AppData\Local\Temp\ccMHv1ML.s 			page 18


 654 00c6 FFF7FEFF 		bl	IINCHIP_READ
 655              	.LVL77:
 260:.\socket.c    **** 		txrd = (txrd << 8) + IINCHIP_READ(Sn_TX_RD0(s) + 1);
 656              		.loc 1 260 0
 657 00ca 0702     		lsl	r7, r0, #8
 658 00cc 0198     		ldr	r0, [sp, #4]
 659              	.LVL78:
 660 00ce FFF7FEFF 		bl	IINCHIP_READ
 661              	.LVL79:
 662 00d2 BEB2     		uxth	r6, r7
 663 00d4 3118     		add	r1, r6, r0
 664 00d6 88B2     		uxth	r0, r1
 665              	.LVL80:
 261:.\socket.c    **** 
 262:.\socket.c    **** 		if(txrd > txrd_before_send) {
 263:.\socket.c    **** 			ret = txrd - txrd_before_send;
 264:.\socket.c    **** 		} else {
 265:.\socket.c    **** 			ret = (0xffff - txrd_before_send) + txrd + 1;
 666              		.loc 1 265 0
 667 00d8 051B     		sub	r5, r0, r4
 668 00da AEB2     		uxth	r6, r5
 669              	.LVL81:
 670              	.L55:
 266:.\socket.c    **** 		}
 267:.\socket.c    **** 	}
 268:.\socket.c    ****                 
 269:.\socket.c    **** 	return ret;
 270:.\socket.c    **** }
 671              		.loc 1 270 0
 672 00dc 301C     		mov	r0, r6
 673 00de 05B0     		add	sp, sp, #20
 674              		@ sp needed for prologue
 675 00e0 F0BD     		pop	{r4, r5, r6, r7, pc}
 676              		.cfi_endproc
 677              	.LFE5:
 678              		.size	send, .-send
 679              		.section	.text.recv,"ax",%progbits
 680              		.align	1
 681              		.global	recv
 682              		.code	16
 683              		.thumb_func
 684              		.type	recv, %function
 685              	recv:
 686              	.LFB6:
 271:.\socket.c    **** 
 272:.\socket.c    **** 
 273:.\socket.c    **** /**
 274:.\socket.c    **** @brief	This function is an application I/F function which is used to receive the data in TCP mode.
 275:.\socket.c    **** 		It continues to wait for data as much as the application wants to receive.
 276:.\socket.c    **** 		
 277:.\socket.c    **** @return	received data size for success else -1.
 278:.\socket.c    **** */ 
 279:.\socket.c    **** uint16_t recv(SOCKET s, uint8_t * buf, uint16_t len)
 280:.\socket.c    **** {
 687              		.loc 1 280 0
 688              		.cfi_startproc
 689              	.LVL82:
ARM GAS  C:\Users\atsu\AppData\Local\Temp\ccMHv1ML.s 			page 19


 690 0000 38B5     		push	{r3, r4, r5, lr}
 691              	.LCFI7:
 692              		.cfi_def_cfa_offset 16
 693              		.cfi_offset 3, -16
 694              		.cfi_offset 4, -12
 695              		.cfi_offset 5, -8
 696              		.cfi_offset 14, -4
 697              		.loc 1 280 0
 698 0002 051C     		mov	r5, r0
 699 0004 141E     		sub	r4, r2, #0
 281:.\socket.c    **** 	uint16_t ret=0;
 282:.\socket.c    **** #ifdef __DEF_IINCHIP_DBG__
 283:.\socket.c    **** 	// printf("recv()\r\n");
 284:.\socket.c    **** #endif
 285:.\socket.c    **** 
 286:.\socket.c    **** 	if ( len > 0 )
 700              		.loc 1 286 0
 701 0006 0ED0     		beq	.L70
 287:.\socket.c    **** 	{
 288:.\socket.c    **** 		recv_data_processing(s, buf, len);
 702              		.loc 1 288 0
 703 0008 FFF7FEFF 		bl	recv_data_processing
 704              	.LVL83:
 289:.\socket.c    **** 		IINCHIP_WRITE(Sn_CR(s),Sn_CR_RECV);
 705              		.loc 1 289 0
 706 000c 074B     		ldr	r3, .L75
 707 000e 2802     		lsl	r0, r5, #8
 708 0010 C118     		add	r1, r0, r3
 709 0012 8DB2     		uxth	r5, r1
 710 0014 281C     		mov	r0, r5
 711 0016 4021     		mov	r1, #64
 712 0018 FFF7FEFF 		bl	IINCHIP_WRITE
 713              	.LVL84:
 714              	.L71:
 290:.\socket.c    **** 
 291:.\socket.c    **** 		/* wait to process the command... */
 292:.\socket.c    **** 		while( IINCHIP_READ(Sn_CR(s)));
 715              		.loc 1 292 0 discriminator 1
 716 001c 281C     		mov	r0, r5
 717 001e FFF7FEFF 		bl	IINCHIP_READ
 718              	.LVL85:
 719 0022 0028     		cmp	r0, #0
 720 0024 FAD1     		bne	.L71
 721              	.L70:
 722              	.LVL86:
 293:.\socket.c    **** 		/* ------- */
 294:.\socket.c    **** 	
 295:.\socket.c    **** 		ret = len;
 296:.\socket.c    **** 	}
 297:.\socket.c    **** 	return ret;
 298:.\socket.c    **** }
 723              		.loc 1 298 0
 724 0026 201C     		mov	r0, r4
 725              		@ sp needed for prologue
 726              	.LVL87:
 727 0028 38BD     		pop	{r3, r4, r5, pc}
 728              	.L76:
ARM GAS  C:\Users\atsu\AppData\Local\Temp\ccMHv1ML.s 			page 20


 729 002a C046     		.align	2
 730              	.L75:
 731 002c 01400000 		.word	16385
 732              		.cfi_endproc
 733              	.LFE6:
 734              		.size	recv, .-recv
 735              		.section	.text.sendto,"ax",%progbits
 736              		.align	1
 737              		.global	sendto
 738              		.code	16
 739              		.thumb_func
 740              		.type	sendto, %function
 741              	sendto:
 742              	.LFB7:
 299:.\socket.c    **** 
 300:.\socket.c    **** 
 301:.\socket.c    **** /**
 302:.\socket.c    **** @brief	This function is an application I/F function which is used to send the data for other then T
 303:.\socket.c    **** 		Unlike TCP transmission, The peer's destination address and the port is needed.
 304:.\socket.c    **** 		
 305:.\socket.c    **** @return	This function return send data size for success else -1.
 306:.\socket.c    **** */ 
 307:.\socket.c    **** uint16_t sendto(SOCKET s, const uint8_t * buf, uint16_t len, uint8_t * addr, uint16_t port)
 308:.\socket.c    **** {
 743              		.loc 1 308 0
 744              		.cfi_startproc
 745              	.LVL88:
 746 0000 F7B5     		push	{r0, r1, r2, r4, r5, r6, r7, lr}
 747              	.LCFI8:
 748              		.cfi_def_cfa_offset 32
 749              		.cfi_offset 0, -32
 750              		.cfi_offset 1, -28
 751              		.cfi_offset 2, -24
 752              		.cfi_offset 4, -20
 753              		.cfi_offset 5, -16
 754              		.cfi_offset 6, -12
 755              		.cfi_offset 7, -8
 756              		.cfi_offset 14, -4
 757              		.loc 1 308 0
 758 0002 1E1C     		mov	r6, r3
 759 0004 08AB     		add	r3, sp, #32
 760              	.LVL89:
 761 0006 071C     		mov	r7, r0
 762 0008 1888     		ldrh	r0, [r3]
 763              	.LVL90:
 764 000a 141C     		mov	r4, r2
 765 000c 0090     		str	r0, [sp]
 309:.\socket.c    **** 	uint16_t ret=0;
 310:.\socket.c    **** 	
 311:.\socket.c    **** #ifdef __DEF_IINCHIP_DBG__
 312:.\socket.c    **** 	// printf("sendto()\r\n");
 313:.\socket.c    **** #endif
 314:.\socket.c    ****    if (len > getIINCHIP_TxMAX(s)) ret = getIINCHIP_TxMAX(s); // check size not to exceed MAX size.
 766              		.loc 1 314 0
 767 000e 381C     		mov	r0, r7
 308:.\socket.c    **** {
 768              		.loc 1 308 0
ARM GAS  C:\Users\atsu\AppData\Local\Temp\ccMHv1ML.s 			page 21


 769 0010 0191     		str	r1, [sp, #4]
 770              		.loc 1 314 0
 771 0012 FFF7FEFF 		bl	getIINCHIP_TxMAX
 772              	.LVL91:
 773 0016 8442     		cmp	r4, r0
 774 0018 03D9     		bls	.L78
 775              		.loc 1 314 0 is_stmt 0 discriminator 1
 776 001a 381C     		mov	r0, r7
 777 001c FFF7FEFF 		bl	getIINCHIP_TxMAX
 778              	.LVL92:
 779 0020 041C     		mov	r4, r0
 780              	.LVL93:
 781              	.L78:
 315:.\socket.c    ****    else ret = len;
 316:.\socket.c    **** 
 317:.\socket.c    **** 	if
 318:.\socket.c    **** 		(
 319:.\socket.c    **** 		 	((addr[0] == 0x00) && (addr[1] == 0x00) && (addr[2] == 0x00) && (addr[3] == 0x00)) ||
 782              		.loc 1 319 0 is_stmt 1
 783 0022 3178     		ldrb	r1, [r6]
 318:.\socket.c    **** 		(
 784              		.loc 1 318 0
 785 0024 0029     		cmp	r1, #0
 786 0026 08D1     		bne	.L79
 787              		.loc 1 319 0
 788 0028 7278     		ldrb	r2, [r6, #1]
 789 002a 002A     		cmp	r2, #0
 790 002c 05D1     		bne	.L79
 791              		.loc 1 319 0 is_stmt 0 discriminator 1
 792 002e B578     		ldrb	r5, [r6, #2]
 793 0030 002D     		cmp	r5, #0
 794 0032 02D1     		bne	.L79
 795 0034 F378     		ldrb	r3, [r6, #3]
 796 0036 002B     		cmp	r3, #0
 797 0038 59D0     		beq	.L85
 798              	.L79:
 799              		.loc 1 319 0 discriminator 2
 800 003a 0098     		ldr	r0, [sp]
 801 003c 0028     		cmp	r0, #0
 802 003e 58D0     		beq	.L86
 320:.\socket.c    **** 		 	((port == 0x00)) ||(ret == 0)
 803              		.loc 1 320 0 is_stmt 1
 804 0040 002C     		cmp	r4, #0
 805 0042 57D0     		beq	.L80
 321:.\socket.c    **** 		) 
 322:.\socket.c    ****  	{
 323:.\socket.c    ****  	   /* added return value */
 324:.\socket.c    ****  	   ret = 0;
 325:.\socket.c    **** #ifdef __DEF_IINCHIP_DBG__
 326:.\socket.c    **** 	// printf("%d Fail[%.2x.%.2x.%.2x.%.2x, %.d, %d]\r\n",s, addr[0], addr[1], addr[2], addr[3] , port
 327:.\socket.c    **** 	// printf("Fail[invalid ip,port]\r\n");
 328:.\socket.c    **** #endif
 329:.\socket.c    **** 	}
 330:.\socket.c    **** 	else
 331:.\socket.c    **** 	{
 332:.\socket.c    **** 		IINCHIP_WRITE(Sn_DIPR0(s),addr[0]);
 806              		.loc 1 332 0
ARM GAS  C:\Users\atsu\AppData\Local\Temp\ccMHv1ML.s 			page 22


 807 0044 3A1C     		mov	r2, r7
 808 0046 4032     		add	r2, r2, #64
 809 0048 1502     		lsl	r5, r2, #8
 810 004a ADB2     		uxth	r5, r5
 811 004c 2B1C     		mov	r3, r5
 812 004e 0C33     		add	r3, r3, #12
 813 0050 98B2     		uxth	r0, r3
 814 0052 FFF7FEFF 		bl	IINCHIP_WRITE
 815              	.LVL94:
 333:.\socket.c    **** 		IINCHIP_WRITE((Sn_DIPR0(s) + 1),addr[1]);
 816              		.loc 1 333 0
 817 0056 291C     		mov	r1, r5
 818 0058 0D31     		add	r1, r1, #13
 819 005a 88B2     		uxth	r0, r1
 820 005c 7178     		ldrb	r1, [r6, #1]
 821 005e FFF7FEFF 		bl	IINCHIP_WRITE
 822              	.LVL95:
 334:.\socket.c    **** 		IINCHIP_WRITE((Sn_DIPR0(s) + 2),addr[2]);
 823              		.loc 1 334 0
 824 0062 281C     		mov	r0, r5
 825 0064 0E30     		add	r0, r0, #14
 826 0066 B178     		ldrb	r1, [r6, #2]
 827 0068 80B2     		uxth	r0, r0
 828 006a FFF7FEFF 		bl	IINCHIP_WRITE
 829              	.LVL96:
 335:.\socket.c    **** 		IINCHIP_WRITE((Sn_DIPR0(s) + 3),addr[3]);
 830              		.loc 1 335 0
 831 006e 2A1C     		mov	r2, r5
 832 0070 0F32     		add	r2, r2, #15
 833 0072 90B2     		uxth	r0, r2
 834 0074 F178     		ldrb	r1, [r6, #3]
 835 0076 FFF7FEFF 		bl	IINCHIP_WRITE
 836              	.LVL97:
 336:.\socket.c    **** 		IINCHIP_WRITE(Sn_DPORT0(s),(uint8_t)((port & 0xff00) >> 8));
 837              		.loc 1 336 0
 838 007a 2E1C     		mov	r6, r5
 839              	.LVL98:
 840 007c 009B     		ldr	r3, [sp]
 841 007e 1036     		add	r6, r6, #16
 842 0080 190A     		lsr	r1, r3, #8
 843 0082 B0B2     		uxth	r0, r6
 844 0084 FFF7FEFF 		bl	IINCHIP_WRITE
 845              	.LVL99:
 337:.\socket.c    **** 		IINCHIP_WRITE((Sn_DPORT0(s) + 1),(uint8_t)(port & 0x00ff));     			
 846              		.loc 1 337 0
 847 0088 291C     		mov	r1, r5
 848 008a 6A46     		mov	r2, sp
 849 008c 1131     		add	r1, r1, #17
 850 008e 88B2     		uxth	r0, r1
 851 0090 1178     		ldrb	r1, [r2]
 852 0092 FFF7FEFF 		bl	IINCHIP_WRITE
 853              	.LVL100:
 338:.\socket.c    ****   		// copy data
 339:.\socket.c    ****  		send_data_processing(s, (uint8_t *)buf, ret);
 854              		.loc 1 339 0
 855 0096 381C     		mov	r0, r7
 340:.\socket.c    **** 		clearSUBR();	   // clear the subnet mask again and keep it because of the ARP errata of W5100
ARM GAS  C:\Users\atsu\AppData\Local\Temp\ccMHv1ML.s 			page 23


 341:.\socket.c    **** 		IINCHIP_WRITE(Sn_CR(s),Sn_CR_SEND);
 856              		.loc 1 341 0
 857 0098 6F1C     		add	r7, r5, #1
 339:.\socket.c    ****  		send_data_processing(s, (uint8_t *)buf, ret);
 858              		.loc 1 339 0
 859 009a 0199     		ldr	r1, [sp, #4]
 860 009c 221C     		mov	r2, r4
 861              		.loc 1 341 0
 862 009e BEB2     		uxth	r6, r7
 339:.\socket.c    ****  		send_data_processing(s, (uint8_t *)buf, ret);
 863              		.loc 1 339 0
 864 00a0 FFF7FEFF 		bl	send_data_processing
 865              	.LVL101:
 340:.\socket.c    **** 		clearSUBR();	   // clear the subnet mask again and keep it because of the ARP errata of W5100
 866              		.loc 1 340 0
 867 00a4 FFF7FEFF 		bl	clearSUBR
 868              	.LVL102:
 869              		.loc 1 341 0
 870 00a8 301C     		mov	r0, r6
 871 00aa 2021     		mov	r1, #32
 872 00ac FFF7FEFF 		bl	IINCHIP_WRITE
 873              	.LVL103:
 874              	.L81:
 342:.\socket.c    **** 		/* wait to process the command... */
 343:.\socket.c    **** 		while( IINCHIP_READ(Sn_CR(s)) ) 
 875              		.loc 1 343 0 discriminator 1
 876 00b0 301C     		mov	r0, r6
 877 00b2 FFF7FEFF 		bl	IINCHIP_READ
 878              	.LVL104:
 879 00b6 0028     		cmp	r0, #0
 880 00b8 FAD1     		bne	.L81
 881              	.L91:
 344:.\socket.c    **** 			;
 345:.\socket.c    **** 		/* ------- */
 346:.\socket.c    **** 
 347:.\socket.c    **** 	   while ( (IINCHIP_READ(Sn_IR(s)) & Sn_IR_SEND_OK) != Sn_IR_SEND_OK ) 
 882              		.loc 1 347 0
 883 00ba A81C     		add	r0, r5, #2
 884 00bc 86B2     		uxth	r6, r0
 885 00be 301C     		mov	r0, r6
 886 00c0 FFF7FEFF 		bl	IINCHIP_READ
 887              	.LVL105:
 888 00c4 1027     		mov	r7, #16
 889 00c6 0740     		and	r7, r0
 890 00c8 0AD1     		bne	.L96
 891              	.L83:
 348:.\socket.c    **** 	   {
 349:.\socket.c    ****     	        if (IINCHIP_READ(Sn_IR(s)) & Sn_IR_TIMEOUT)
 892              		.loc 1 349 0
 893 00ca 301C     		mov	r0, r6
 894 00cc FFF7FEFF 		bl	IINCHIP_READ
 895              	.LVL106:
 896 00d0 0307     		lsl	r3, r0, #28
 897 00d2 F2D5     		bpl	.L91
 350:.\socket.c    **** 		{
 351:.\socket.c    **** #ifdef __DEF_IINCHIP_DBG__
 352:.\socket.c    **** 				// printf("send fail.\r\n");
ARM GAS  C:\Users\atsu\AppData\Local\Temp\ccMHv1ML.s 			page 24


 353:.\socket.c    **** #endif
 354:.\socket.c    ****                 /* clear interrupt */
 355:.\socket.c    ****            	IINCHIP_WRITE(Sn_IR(s), (Sn_IR_SEND_OK | Sn_IR_TIMEOUT)); /* clear SEND_OK & TIMEOUT */
 898              		.loc 1 355 0
 899 00d4 301C     		mov	r0, r6
 900 00d6 1821     		mov	r1, #24
 901 00d8 FFF7FEFF 		bl	IINCHIP_WRITE
 902              	.LVL107:
 356:.\socket.c    **** 		return 0;
 903              		.loc 1 356 0
 904 00dc 3C1C     		mov	r4, r7
 905              	.LVL108:
 906 00de 09E0     		b	.L80
 907              	.LVL109:
 908              	.L96:
 357:.\socket.c    **** 		}
 358:.\socket.c    **** 	   }
 359:.\socket.c    **** 
 360:.\socket.c    **** 	   setSUBR();    // set the subnet mask register
 909              		.loc 1 360 0
 910 00e0 FFF7FEFF 		bl	setSUBR
 911              	.LVL110:
 361:.\socket.c    **** 	   IINCHIP_WRITE(Sn_IR(s), Sn_IR_SEND_OK);
 912              		.loc 1 361 0
 913 00e4 301C     		mov	r0, r6
 914 00e6 1021     		mov	r1, #16
 915 00e8 FFF7FEFF 		bl	IINCHIP_WRITE
 916              	.LVL111:
 917 00ec 02E0     		b	.L80
 918              	.LVL112:
 919              	.L85:
 324:.\socket.c    ****  	   ret = 0;
 920              		.loc 1 324 0
 921 00ee 1C1C     		mov	r4, r3
 922              	.LVL113:
 923 00f0 00E0     		b	.L80
 924              	.LVL114:
 925              	.L86:
 926 00f2 009C     		ldr	r4, [sp]
 927              	.LVL115:
 928              	.L80:
 362:.\socket.c    **** 	}
 363:.\socket.c    **** 	return ret;
 364:.\socket.c    **** }
 929              		.loc 1 364 0
 930 00f4 201C     		mov	r0, r4
 931              		@ sp needed for prologue
 932 00f6 FEBD     		pop	{r1, r2, r3, r4, r5, r6, r7, pc}
 933              		.cfi_endproc
 934              	.LFE7:
 935              		.size	sendto, .-sendto
 936              		.section	.text.recvfrom,"ax",%progbits
 937              		.align	1
 938              		.global	recvfrom
 939              		.code	16
 940              		.thumb_func
 941              		.type	recvfrom, %function
ARM GAS  C:\Users\atsu\AppData\Local\Temp\ccMHv1ML.s 			page 25


 942              	recvfrom:
 943              	.LFB8:
 365:.\socket.c    **** 
 366:.\socket.c    **** 
 367:.\socket.c    **** /**
 368:.\socket.c    **** @brief	This function is an application I/F function which is used to receive the data in other then
 369:.\socket.c    **** 	TCP mode. This function is used to receive UDP, IP_RAW and MAC_RAW mode, and handle the header as 
 370:.\socket.c    **** 	
 371:.\socket.c    **** @return	This function return received data size for success else -1.
 372:.\socket.c    **** */ 
 373:.\socket.c    **** uint16_t recvfrom(SOCKET s, uint8_t * buf, uint16_t len, uint8_t * addr, uint16_t *port)
 374:.\socket.c    **** {
 944              		.loc 1 374 0
 945              		.cfi_startproc
 946              	.LVL116:
 947 0000 F0B5     		push	{r4, r5, r6, r7, lr}
 948              	.LCFI9:
 949              		.cfi_def_cfa_offset 20
 950              		.cfi_offset 4, -20
 951              		.cfi_offset 5, -16
 952              		.cfi_offset 6, -12
 953              		.cfi_offset 7, -8
 954              		.cfi_offset 14, -4
 375:.\socket.c    **** 	uint8_t head[8];
 376:.\socket.c    **** 	uint16_t data_len=0;
 955              		.loc 1 376 0
 956 0002 0024     		mov	r4, #0
 374:.\socket.c    **** {
 957              		.loc 1 374 0
 958 0004 87B0     		sub	sp, sp, #28
 959              	.LCFI10:
 960              		.cfi_def_cfa_offset 48
 374:.\socket.c    **** {
 961              		.loc 1 374 0
 962 0006 061C     		mov	r6, r0
 963 0008 0391     		str	r1, [sp, #12]
 964 000a 1D1C     		mov	r5, r3
 377:.\socket.c    **** 	uint16_t ptr=0;
 378:.\socket.c    **** #ifdef __DEF_IINCHIP_DBG__
 379:.\socket.c    **** 	// printf("recvfrom()\r\n");
 380:.\socket.c    **** #endif
 381:.\socket.c    **** 
 382:.\socket.c    **** 	if ( len > 0 )
 965              		.loc 1 382 0
 966 000c A242     		cmp	r2, r4
 967 000e 00D1     		bne	.LCB918
 968 0010 80E0     		b	.L98	@long jump
 969              	.LCB918:
 383:.\socket.c    **** 	{
 384:.\socket.c    ****    	ptr = IINCHIP_READ(Sn_RX_RD0(s));
 970              		.loc 1 384 0
 971 0012 031C     		mov	r3, r0
 972              	.LVL117:
 973 0014 4033     		add	r3, r3, #64
 974 0016 1802     		lsl	r0, r3, #8
 975              	.LVL118:
 976 0018 81B2     		uxth	r1, r0
ARM GAS  C:\Users\atsu\AppData\Local\Temp\ccMHv1ML.s 			page 26


 977              	.LVL119:
 978 001a 0091     		str	r1, [sp]
 979 001c 2831     		add	r1, r1, #40
 980 001e 8AB2     		uxth	r2, r1
 981              	.LVL120:
 982 0020 101C     		mov	r0, r2
 983 0022 0192     		str	r2, [sp, #4]
 984 0024 FFF7FEFF 		bl	IINCHIP_READ
 985              	.LVL121:
 385:.\socket.c    ****    	ptr = ((ptr & 0x00ff) << 8) + IINCHIP_READ(Sn_RX_RD0(s) + 1);
 986              		.loc 1 385 0
 987 0028 009B     		ldr	r3, [sp]
 384:.\socket.c    ****    	ptr = IINCHIP_READ(Sn_RX_RD0(s));
 988              		.loc 1 384 0
 989 002a 071C     		mov	r7, r0
 990              	.LVL122:
 991              		.loc 1 385 0
 992 002c 2933     		add	r3, r3, #41
 993 002e 98B2     		uxth	r0, r3
 994              	.LVL123:
 995 0030 0290     		str	r0, [sp, #8]
 996 0032 FFF7FEFF 		bl	IINCHIP_READ
 997              	.LVL124:
 998 0036 3902     		lsl	r1, r7, #8
 999 0038 4218     		add	r2, r0, r1
 386:.\socket.c    **** #ifdef __DEF_IINCHIP_DBG__
 387:.\socket.c    ****    	// printf("ISR_RX: rd_ptr : %.4x\r\n", ptr);
 388:.\socket.c    **** #endif
 389:.\socket.c    ****    	switch (IINCHIP_READ(Sn_MR(s)) & 0x07)
 1000              		.loc 1 389 0
 1001 003a 0098     		ldr	r0, [sp]
 385:.\socket.c    ****    	ptr = ((ptr & 0x00ff) << 8) + IINCHIP_READ(Sn_RX_RD0(s) + 1);
 1002              		.loc 1 385 0
 1003 003c 97B2     		uxth	r7, r2
 1004              	.LVL125:
 1005              		.loc 1 389 0
 1006 003e FFF7FEFF 		bl	IINCHIP_READ
 1007              	.LVL126:
 1008 0042 0723     		mov	r3, #7
 1009 0044 1840     		and	r0, r3
 1010 0046 0328     		cmp	r0, #3
 1011 0048 1ED0     		beq	.L101
 1012 004a 0428     		cmp	r0, #4
 1013 004c 33D0     		beq	.L102
 1014 004e 0228     		cmp	r0, #2
 1015 0050 54D1     		bne	.L99
 390:.\socket.c    ****    	{
 391:.\socket.c    ****    	case Sn_MR_UDP :
 392:.\socket.c    ****    			read_data(s, (uint8_t *)ptr, head, 0x08);
 1016              		.loc 1 392 0
 1017 0052 391C     		mov	r1, r7
 1018 0054 301C     		mov	r0, r6
 1019 0056 04AA     		add	r2, sp, #16
 1020 0058 0823     		mov	r3, #8
 1021 005a FFF7FEFF 		bl	read_data
 1022              	.LVL127:
 393:.\socket.c    ****    			ptr += 8;
ARM GAS  C:\Users\atsu\AppData\Local\Temp\ccMHv1ML.s 			page 27


 394:.\socket.c    ****    			// read peer's IP address, port number.
 395:.\socket.c    ****     			addr[0] = head[0];
 1023              		.loc 1 395 0
 1024 005e 6846     		mov	r0, sp
 1025 0060 047C     		ldrb	r4, [r0, #16]
 393:.\socket.c    ****    			ptr += 8;
 1026              		.loc 1 393 0
 1027 0062 0837     		add	r7, r7, #8
 1028              	.LVL128:
 1029              		.loc 1 395 0
 1030 0064 2C70     		strb	r4, [r5]
 396:.\socket.c    ****    			addr[1] = head[1];
 1031              		.loc 1 396 0
 1032 0066 417C     		ldrb	r1, [r0, #17]
 393:.\socket.c    ****    			ptr += 8;
 1033              		.loc 1 393 0
 1034 0068 BFB2     		uxth	r7, r7
 1035              	.LVL129:
 1036              		.loc 1 396 0
 1037 006a 6970     		strb	r1, [r5, #1]
 397:.\socket.c    ****    			addr[2] = head[2];
 1038              		.loc 1 397 0
 1039 006c 827C     		ldrb	r2, [r0, #18]
 1040 006e AA70     		strb	r2, [r5, #2]
 398:.\socket.c    ****    			addr[3] = head[3];
 1041              		.loc 1 398 0
 1042 0070 C37C     		ldrb	r3, [r0, #19]
 399:.\socket.c    ****    			*port = head[4];
 400:.\socket.c    ****    			*port = (*port << 8) + head[5];
 1043              		.loc 1 400 0
 1044 0072 0C9A     		ldr	r2, [sp, #48]
 398:.\socket.c    ****    			addr[3] = head[3];
 1045              		.loc 1 398 0
 1046 0074 EB70     		strb	r3, [r5, #3]
 399:.\socket.c    ****    			*port = head[4];
 1047              		.loc 1 399 0
 1048 0076 057D     		ldrb	r5, [r0, #20]
 1049              	.LVL130:
 1050              		.loc 1 400 0
 1051 0078 417D     		ldrb	r1, [r0, #21]
 1052 007a 2C02     		lsl	r4, r5, #8
 1053 007c 6318     		add	r3, r4, r1
 1054 007e 1380     		strh	r3, [r2]
 1055              	.LVL131:
 401:.\socket.c    ****    			data_len = head[6];
 1056              		.loc 1 401 0
 1057 0080 857D     		ldrb	r5, [r0, #22]
 402:.\socket.c    ****    			data_len = (data_len << 8) + head[7];
 1058              		.loc 1 402 0
 1059 0082 C07D     		ldrb	r0, [r0, #23]
 1060 0084 2902     		lsl	r1, r5, #8
 1061 0086 13E0     		b	.L112
 1062              	.LVL132:
 1063              	.L101:
 403:.\socket.c    ****    			
 404:.\socket.c    **** #ifdef __DEF_IINCHIP_DBG__
 405:.\socket.c    ****    			// printf("UDP msg arrived\r\n");
ARM GAS  C:\Users\atsu\AppData\Local\Temp\ccMHv1ML.s 			page 28


 406:.\socket.c    ****    			// printf("source Port : %d\r\n", *port);
 407:.\socket.c    ****    			// printf("source IP : %d.%d.%d.%d\r\n", addr[0], addr[1], addr[2], addr[3]);
 408:.\socket.c    **** #endif
 409:.\socket.c    **** 
 410:.\socket.c    **** 			read_data(s, (uint8_t *)ptr, buf, data_len); // data copy.
 411:.\socket.c    **** 			ptr += data_len;
 412:.\socket.c    **** 
 413:.\socket.c    **** 			IINCHIP_WRITE(Sn_RX_RD0(s),(uint8_t)((ptr & 0xff00) >> 8));
 414:.\socket.c    **** 			IINCHIP_WRITE((Sn_RX_RD0(s) + 1),(uint8_t)(ptr & 0x00ff));
 415:.\socket.c    ****    			break;
 416:.\socket.c    ****    
 417:.\socket.c    ****    	case Sn_MR_IPRAW :
 418:.\socket.c    ****    			read_data(s, (uint8_t *)ptr, head, 0x06);
 1064              		.loc 1 418 0
 1065 0088 391C     		mov	r1, r7
 1066 008a 301C     		mov	r0, r6
 1067 008c 04AA     		add	r2, sp, #16
 1068 008e 0623     		mov	r3, #6
 1069 0090 FFF7FEFF 		bl	read_data
 1070              	.LVL133:
 419:.\socket.c    ****    			ptr += 6;
 420:.\socket.c    ****    
 421:.\socket.c    ****    			addr[0] = head[0];
 1071              		.loc 1 421 0
 1072 0094 6846     		mov	r0, sp
 1073 0096 017C     		ldrb	r1, [r0, #16]
 419:.\socket.c    ****    			ptr += 6;
 1074              		.loc 1 419 0
 1075 0098 0637     		add	r7, r7, #6
 1076              	.LVL134:
 1077              		.loc 1 421 0
 1078 009a 2970     		strb	r1, [r5]
 422:.\socket.c    ****    			addr[1] = head[1];
 1079              		.loc 1 422 0
 1080 009c 437C     		ldrb	r3, [r0, #17]
 419:.\socket.c    ****    			ptr += 6;
 1081              		.loc 1 419 0
 1082 009e BFB2     		uxth	r7, r7
 1083              	.LVL135:
 1084              		.loc 1 422 0
 1085 00a0 6B70     		strb	r3, [r5, #1]
 423:.\socket.c    ****    			addr[2] = head[2];
 1086              		.loc 1 423 0
 1087 00a2 827C     		ldrb	r2, [r0, #18]
 1088 00a4 AA70     		strb	r2, [r5, #2]
 424:.\socket.c    ****    			addr[3] = head[3];
 1089              		.loc 1 424 0
 1090 00a6 C47C     		ldrb	r4, [r0, #19]
 1091 00a8 EC70     		strb	r4, [r5, #3]
 1092              	.LVL136:
 425:.\socket.c    ****    			data_len = head[4];
 1093              		.loc 1 425 0
 1094 00aa 057D     		ldrb	r5, [r0, #20]
 1095              	.LVL137:
 426:.\socket.c    ****    			data_len = (data_len << 8) + head[5];
 1096              		.loc 1 426 0
 1097 00ac 407D     		ldrb	r0, [r0, #21]
ARM GAS  C:\Users\atsu\AppData\Local\Temp\ccMHv1ML.s 			page 29


 1098 00ae 2902     		lsl	r1, r5, #8
 1099              	.LVL138:
 1100              	.L112:
 1101 00b0 0B18     		add	r3, r1, r0
 1102 00b2 9CB2     		uxth	r4, r3
 1103              	.LVL139:
 1104 00b4 12E0     		b	.L111
 1105              	.LVL140:
 1106              	.L102:
 427:.\socket.c    ****    	
 428:.\socket.c    **** #ifdef __DEF_IINCHIP_DBG__
 429:.\socket.c    ****    			// printf("IP RAW msg arrived\r\n");
 430:.\socket.c    ****    			// printf("source IP : %d.%d.%d.%d\r\n", addr[0], addr[1], addr[2], addr[3]);
 431:.\socket.c    **** #endif
 432:.\socket.c    **** 			read_data(s, (uint8_t *)ptr, buf, data_len); // data copy.
 433:.\socket.c    **** 			ptr += data_len;
 434:.\socket.c    **** 
 435:.\socket.c    **** 			IINCHIP_WRITE(Sn_RX_RD0(s),(uint8_t)((ptr & 0xff00) >> 8));
 436:.\socket.c    **** 			IINCHIP_WRITE((Sn_RX_RD0(s) + 1),(uint8_t)(ptr & 0x00ff));
 437:.\socket.c    ****    			break;
 438:.\socket.c    ****    	case Sn_MR_MACRAW :
 439:.\socket.c    ****    			read_data(s,(uint8_t*)ptr,head,2);
 1107              		.loc 1 439 0
 1108 00b6 301C     		mov	r0, r6
 1109 00b8 391C     		mov	r1, r7
 1110 00ba 04AA     		add	r2, sp, #16
 1111 00bc 0223     		mov	r3, #2
 1112 00be FFF7FEFF 		bl	read_data
 1113              	.LVL141:
 440:.\socket.c    ****    			ptr+=2;
 441:.\socket.c    ****    			data_len = head[0];
 1114              		.loc 1 441 0
 1115 00c2 6846     		mov	r0, sp
 1116 00c4 047C     		ldrb	r4, [r0, #16]
 442:.\socket.c    ****    			data_len = (data_len<<8) + head[1] - 2;
 1117              		.loc 1 442 0
 1118 00c6 437C     		ldrb	r3, [r0, #17]
 1119 00c8 2102     		lsl	r1, r4, #8
 1120 00ca 023B     		sub	r3, r3, #2
 1121 00cc CA18     		add	r2, r1, r3
 443:.\socket.c    ****    			if(data_len > 1514) 
 1122              		.loc 1 443 0
 1123 00ce 134D     		ldr	r5, .L113
 1124              	.LVL142:
 442:.\socket.c    ****    			data_len = (data_len<<8) + head[1] - 2;
 1125              		.loc 1 442 0
 1126 00d0 94B2     		uxth	r4, r2
 1127              	.LVL143:
 1128              		.loc 1 443 0
 1129 00d2 AC42     		cmp	r4, r5
 1130 00d4 00D9     		bls	.L103
 1131              	.L110:
 1132 00d6 FEE7     		b	.L110
 1133              	.L103:
 440:.\socket.c    ****    			ptr+=2;
 1134              		.loc 1 440 0
 1135 00d8 0237     		add	r7, r7, #2
ARM GAS  C:\Users\atsu\AppData\Local\Temp\ccMHv1ML.s 			page 30


 1136              	.LVL144:
 1137 00da BFB2     		uxth	r7, r7
 1138              	.LVL145:
 1139              	.L111:
 444:.\socket.c    ****    			{
 445:.\socket.c    ****    				// printf("data_len over 1514\r\n");
 446:.\socket.c    ****    				while(1);
 447:.\socket.c    ****    			}
 448:.\socket.c    **** 
 449:.\socket.c    ****    			read_data(s,(uint8_t*) ptr,buf,data_len);
 1140              		.loc 1 449 0
 1141 00dc 301C     		mov	r0, r6
 450:.\socket.c    ****    			ptr += data_len;
 1142              		.loc 1 450 0
 1143 00de 3E19     		add	r6, r7, r4
 449:.\socket.c    ****    			read_data(s,(uint8_t*) ptr,buf,data_len);
 1144              		.loc 1 449 0
 1145 00e0 391C     		mov	r1, r7
 1146 00e2 039A     		ldr	r2, [sp, #12]
 1147 00e4 231C     		mov	r3, r4
 1148              		.loc 1 450 0
 1149 00e6 B7B2     		uxth	r7, r6
 449:.\socket.c    ****    			read_data(s,(uint8_t*) ptr,buf,data_len);
 1150              		.loc 1 449 0
 1151 00e8 FFF7FEFF 		bl	read_data
 1152              	.LVL146:
 451:.\socket.c    ****    			IINCHIP_WRITE(Sn_RX_RD0(s),(uint8_t)((ptr & 0xff00) >> 8));
 1153              		.loc 1 451 0
 1154 00ec 390A     		lsr	r1, r7, #8
 1155 00ee 0198     		ldr	r0, [sp, #4]
 1156 00f0 FFF7FEFF 		bl	IINCHIP_WRITE
 1157              	.LVL147:
 452:.\socket.c    ****    			IINCHIP_WRITE((Sn_RX_RD0(s) + 1),(uint8_t)(ptr & 0x00ff));
 1158              		.loc 1 452 0
 1159 00f4 F9B2     		uxtb	r1, r7
 1160 00f6 0298     		ldr	r0, [sp, #8]
 1161 00f8 FFF7FEFF 		bl	IINCHIP_WRITE
 1162              	.LVL148:
 1163              	.L99:
 453:.\socket.c    ****    			
 454:.\socket.c    **** #ifdef __DEF_IINCHIP_DGB__
 455:.\socket.c    **** 			// printf("MAC RAW msg arrived\r\n");
 456:.\socket.c    **** 			// printf("dest mac=%.2X.%.2X.%.2X.%.2X.%.2X.%.2X\r\n",buf[0],buf[1],buf[2],buf[3],buf[4],buf[5]
 457:.\socket.c    **** 			// printf("src  mac=%.2X.%.2X.%.2X.%.2X.%.2X.%.2X\r\n",buf[6],buf[7],buf[8],buf[9],buf[10],buf[1
 458:.\socket.c    **** 			// printf("type    =%.2X%.2X\r\n",buf[12],buf[13]); 
 459:.\socket.c    **** #endif			
 460:.\socket.c    **** 			break;
 461:.\socket.c    **** 
 462:.\socket.c    ****    	default :
 463:.\socket.c    ****    			break;
 464:.\socket.c    ****    	}
 465:.\socket.c    **** 		IINCHIP_WRITE(Sn_CR(s),Sn_CR_RECV);
 1164              		.loc 1 465 0
 1165 00fc 009A     		ldr	r2, [sp]
 1166 00fe 4021     		mov	r1, #64
 1167 0100 0132     		add	r2, r2, #1
 1168 0102 95B2     		uxth	r5, r2
ARM GAS  C:\Users\atsu\AppData\Local\Temp\ccMHv1ML.s 			page 31


 1169 0104 281C     		mov	r0, r5
 1170 0106 FFF7FEFF 		bl	IINCHIP_WRITE
 1171              	.LVL149:
 1172              	.L105:
 466:.\socket.c    **** 
 467:.\socket.c    **** 		/* wait to process the command... */
 468:.\socket.c    **** 		while( IINCHIP_READ(Sn_CR(s)) ) ;
 1173              		.loc 1 468 0 discriminator 1
 1174 010a 281C     		mov	r0, r5
 1175 010c FFF7FEFF 		bl	IINCHIP_READ
 1176              	.LVL150:
 1177 0110 0028     		cmp	r0, #0
 1178 0112 FAD1     		bne	.L105
 1179              	.LVL151:
 1180              	.L98:
 469:.\socket.c    **** 		/* ------- */
 470:.\socket.c    **** 	}
 471:.\socket.c    **** #ifdef __DEF_IINCHIP_DBG__
 472:.\socket.c    **** 	// printf("recvfrom() end ..\r\n");
 473:.\socket.c    **** #endif
 474:.\socket.c    ****  	return data_len;
 475:.\socket.c    **** }
 1181              		.loc 1 475 0
 1182 0114 201C     		mov	r0, r4
 1183 0116 07B0     		add	sp, sp, #28
 1184              		@ sp needed for prologue
 1185              	.LVL152:
 1186 0118 F0BD     		pop	{r4, r5, r6, r7, pc}
 1187              	.L114:
 1188 011a C046     		.align	2
 1189              	.L113:
 1190 011c EA050000 		.word	1514
 1191              		.cfi_endproc
 1192              	.LFE8:
 1193              		.size	recvfrom, .-recvfrom
 1194              		.bss
 1195              		.align	1
 1196              		.set	.LANCHOR0,. + 0
 1197              		.type	local_port, %object
 1198              		.size	local_port, 2
 1199              	local_port:
 1200 0000 0000     		.space	2
 1201              		.text
 1202              	.Letext0:
 1203              		.file 2 "c:\\program files (x86)\\cypress\\psoc creator\\3.0\\psoc creator\\import\\gnu_cs\\arm\\4
 1204              		.file 3 ".\\util.h"
 1205              		.file 4 ".\\w5200.h"