ARM GAS  C:\Users\atsu\AppData\Local\Temp\ccEvF9WH.s 			page 1


   1              		.cpu cortex-m0
   2              		.fpu softvfp
   3              		.eabi_attribute 20, 1
   4              		.eabi_attribute 21, 1
   5              		.eabi_attribute 23, 3
   6              		.eabi_attribute 24, 1
   7              		.eabi_attribute 25, 1
   8              		.eabi_attribute 26, 1
   9              		.eabi_attribute 30, 4
  10              		.eabi_attribute 34, 0
  11              		.eabi_attribute 18, 4
  12              		.code	16
  13              		.file	"SPI_PM.c"
  14              		.text
  15              	.Ltext0:
  16              		.cfi_sections	.debug_frame
  17              		.section	.text.SPI_DisableTxPinsInputBuffer,"ax",%progbits
  18              		.align	1
  19              		.global	SPI_DisableTxPinsInputBuffer
  20              		.code	16
  21              		.thumb_func
  22              		.type	SPI_DisableTxPinsInputBuffer, %function
  23              	SPI_DisableTxPinsInputBuffer:
  24              	.LFB2:
  25              		.file 1 ".\\Generated_Source\\PSoC4\\SPI_PM.c"
   1:.\Generated_Source\PSoC4/SPI_PM.c **** /*******************************************************************************
   2:.\Generated_Source\PSoC4/SPI_PM.c **** * File Name: SPI_PM.c
   3:.\Generated_Source\PSoC4/SPI_PM.c **** * Version 1.10
   4:.\Generated_Source\PSoC4/SPI_PM.c **** *
   5:.\Generated_Source\PSoC4/SPI_PM.c **** * Description:
   6:.\Generated_Source\PSoC4/SPI_PM.c **** *  This file provides the source code to the Power Management support for
   7:.\Generated_Source\PSoC4/SPI_PM.c **** *  the SCB Component.
   8:.\Generated_Source\PSoC4/SPI_PM.c **** *
   9:.\Generated_Source\PSoC4/SPI_PM.c **** * Note:
  10:.\Generated_Source\PSoC4/SPI_PM.c **** *
  11:.\Generated_Source\PSoC4/SPI_PM.c **** ********************************************************************************
  12:.\Generated_Source\PSoC4/SPI_PM.c **** * Copyright 2013, Cypress Semiconductor Corporation.  All rights reserved.
  13:.\Generated_Source\PSoC4/SPI_PM.c **** * You may use this file only in accordance with the license, terms, conditions,
  14:.\Generated_Source\PSoC4/SPI_PM.c **** * disclaimers, and limitations in the end user license agreement accompanying
  15:.\Generated_Source\PSoC4/SPI_PM.c **** * the software package with which this file was provided.
  16:.\Generated_Source\PSoC4/SPI_PM.c **** *******************************************************************************/
  17:.\Generated_Source\PSoC4/SPI_PM.c **** 
  18:.\Generated_Source\PSoC4/SPI_PM.c **** #include "SPI.h"
  19:.\Generated_Source\PSoC4/SPI_PM.c **** #include "SPI_PVT.h"
  20:.\Generated_Source\PSoC4/SPI_PM.c **** 
  21:.\Generated_Source\PSoC4/SPI_PM.c **** #if(SPI_SCB_MODE_I2C_INC)
  22:.\Generated_Source\PSoC4/SPI_PM.c ****     #include "SPI_I2C_PVT.h"
  23:.\Generated_Source\PSoC4/SPI_PM.c **** #endif /* (SPI_SCB_MODE_I2C_INC) */
  24:.\Generated_Source\PSoC4/SPI_PM.c **** 
  25:.\Generated_Source\PSoC4/SPI_PM.c **** #if(SPI_SCB_MODE_EZI2C_INC)
  26:.\Generated_Source\PSoC4/SPI_PM.c ****     #include "SPI_EZI2C_PVT.h"
  27:.\Generated_Source\PSoC4/SPI_PM.c **** #endif /* (SPI_SCB_MODE_EZI2C_INC) */
  28:.\Generated_Source\PSoC4/SPI_PM.c **** 
  29:.\Generated_Source\PSoC4/SPI_PM.c **** #if(SPI_SCB_MODE_SPI_INC || SPI_SCB_MODE_UART_INC)
  30:.\Generated_Source\PSoC4/SPI_PM.c ****     #include "SPI_SPI_UART_PVT.h"
  31:.\Generated_Source\PSoC4/SPI_PM.c **** #endif /* (SPI_SCB_MODE_SPI_INC || SPI_SCB_MODE_UART_INC) */
  32:.\Generated_Source\PSoC4/SPI_PM.c **** 
ARM GAS  C:\Users\atsu\AppData\Local\Temp\ccEvF9WH.s 			page 2


  33:.\Generated_Source\PSoC4/SPI_PM.c **** 
  34:.\Generated_Source\PSoC4/SPI_PM.c **** /***************************************
  35:.\Generated_Source\PSoC4/SPI_PM.c **** *   Backup Structure declaration
  36:.\Generated_Source\PSoC4/SPI_PM.c **** ***************************************/
  37:.\Generated_Source\PSoC4/SPI_PM.c **** 
  38:.\Generated_Source\PSoC4/SPI_PM.c **** SPI_BACKUP_STRUCT SPI_backup =
  39:.\Generated_Source\PSoC4/SPI_PM.c **** {
  40:.\Generated_Source\PSoC4/SPI_PM.c ****     0u, /* enableState */
  41:.\Generated_Source\PSoC4/SPI_PM.c **** };
  42:.\Generated_Source\PSoC4/SPI_PM.c **** 
  43:.\Generated_Source\PSoC4/SPI_PM.c **** 
  44:.\Generated_Source\PSoC4/SPI_PM.c **** /*******************************************************************************
  45:.\Generated_Source\PSoC4/SPI_PM.c **** * Function Name: SPI_Sleep
  46:.\Generated_Source\PSoC4/SPI_PM.c **** ********************************************************************************
  47:.\Generated_Source\PSoC4/SPI_PM.c **** *
  48:.\Generated_Source\PSoC4/SPI_PM.c **** * Summary:
  49:.\Generated_Source\PSoC4/SPI_PM.c **** *  Calls SaveConfig function fucntion for selected mode.
  50:.\Generated_Source\PSoC4/SPI_PM.c **** *
  51:.\Generated_Source\PSoC4/SPI_PM.c **** * Parameters:
  52:.\Generated_Source\PSoC4/SPI_PM.c **** *  None
  53:.\Generated_Source\PSoC4/SPI_PM.c **** *
  54:.\Generated_Source\PSoC4/SPI_PM.c **** * Return:
  55:.\Generated_Source\PSoC4/SPI_PM.c **** *  None
  56:.\Generated_Source\PSoC4/SPI_PM.c **** *
  57:.\Generated_Source\PSoC4/SPI_PM.c **** *******************************************************************************/
  58:.\Generated_Source\PSoC4/SPI_PM.c **** void SPI_Sleep(void)
  59:.\Generated_Source\PSoC4/SPI_PM.c **** {
  60:.\Generated_Source\PSoC4/SPI_PM.c **** #if(SPI_SCB_MODE_UNCONFIG_CONST_CFG)
  61:.\Generated_Source\PSoC4/SPI_PM.c **** 
  62:.\Generated_Source\PSoC4/SPI_PM.c ****     if(0u != SPI_scbEnableWake)
  63:.\Generated_Source\PSoC4/SPI_PM.c ****     {
  64:.\Generated_Source\PSoC4/SPI_PM.c ****         if(SPI_SCB_MODE_I2C_RUNTM_CFG)
  65:.\Generated_Source\PSoC4/SPI_PM.c ****         {
  66:.\Generated_Source\PSoC4/SPI_PM.c ****             SPI_I2CSaveConfig();
  67:.\Generated_Source\PSoC4/SPI_PM.c ****         }
  68:.\Generated_Source\PSoC4/SPI_PM.c ****         else if(SPI_SCB_MODE_SPI_RUNTM_CFG)
  69:.\Generated_Source\PSoC4/SPI_PM.c ****         {
  70:.\Generated_Source\PSoC4/SPI_PM.c ****             SPI_SpiSaveConfig();
  71:.\Generated_Source\PSoC4/SPI_PM.c ****         }
  72:.\Generated_Source\PSoC4/SPI_PM.c ****         else if(SPI_SCB_MODE_UART_RUNTM_CFG)
  73:.\Generated_Source\PSoC4/SPI_PM.c ****         {
  74:.\Generated_Source\PSoC4/SPI_PM.c ****             SPI_UartSaveConfig();
  75:.\Generated_Source\PSoC4/SPI_PM.c ****         }
  76:.\Generated_Source\PSoC4/SPI_PM.c ****         else if(SPI_SCB_MODE_EZI2C_RUNTM_CFG)
  77:.\Generated_Source\PSoC4/SPI_PM.c ****         {
  78:.\Generated_Source\PSoC4/SPI_PM.c ****             SPI_EzI2CSaveConfig();
  79:.\Generated_Source\PSoC4/SPI_PM.c ****         }
  80:.\Generated_Source\PSoC4/SPI_PM.c ****         else
  81:.\Generated_Source\PSoC4/SPI_PM.c ****         {
  82:.\Generated_Source\PSoC4/SPI_PM.c ****             /* Unknown mode: do nothing */
  83:.\Generated_Source\PSoC4/SPI_PM.c ****         }
  84:.\Generated_Source\PSoC4/SPI_PM.c ****     }
  85:.\Generated_Source\PSoC4/SPI_PM.c ****     else
  86:.\Generated_Source\PSoC4/SPI_PM.c ****     {
  87:.\Generated_Source\PSoC4/SPI_PM.c ****         SPI_backup.enableState = (uint8) SPI_GET_CTRL_ENABLED;
  88:.\Generated_Source\PSoC4/SPI_PM.c ****         
  89:.\Generated_Source\PSoC4/SPI_PM.c ****         if(0u != SPI_backup.enableState)
ARM GAS  C:\Users\atsu\AppData\Local\Temp\ccEvF9WH.s 			page 3


  90:.\Generated_Source\PSoC4/SPI_PM.c ****         {
  91:.\Generated_Source\PSoC4/SPI_PM.c ****             SPI_Stop();
  92:.\Generated_Source\PSoC4/SPI_PM.c ****         }
  93:.\Generated_Source\PSoC4/SPI_PM.c ****     }
  94:.\Generated_Source\PSoC4/SPI_PM.c ****     
  95:.\Generated_Source\PSoC4/SPI_PM.c ****     SPI_DisableTxPinsInputBuffer();
  96:.\Generated_Source\PSoC4/SPI_PM.c ****     
  97:.\Generated_Source\PSoC4/SPI_PM.c **** #else
  98:.\Generated_Source\PSoC4/SPI_PM.c ****     
  99:.\Generated_Source\PSoC4/SPI_PM.c ****     #if defined (SPI_I2C_WAKE_ENABLE_CONST) && (SPI_I2C_WAKE_ENABLE_CONST)
 100:.\Generated_Source\PSoC4/SPI_PM.c ****         SPI_I2CSaveConfig();
 101:.\Generated_Source\PSoC4/SPI_PM.c ****         
 102:.\Generated_Source\PSoC4/SPI_PM.c ****     #elif defined (SPI_SPI_WAKE_ENABLE_CONST) && (SPI_SPI_WAKE_ENABLE_CONST)
 103:.\Generated_Source\PSoC4/SPI_PM.c ****         SPI_SpiSaveConfig();
 104:.\Generated_Source\PSoC4/SPI_PM.c ****         
 105:.\Generated_Source\PSoC4/SPI_PM.c ****     #elif defined (SPI_UART_WAKE_ENABLE_CONST) && (SPI_UART_WAKE_ENABLE_CONST)
 106:.\Generated_Source\PSoC4/SPI_PM.c ****         SPI_UartSaveConfig();
 107:.\Generated_Source\PSoC4/SPI_PM.c ****         
 108:.\Generated_Source\PSoC4/SPI_PM.c ****     #elif defined (SPI_EZI2C_WAKE_ENABLE_CONST) && (SPI_EZI2C_WAKE_ENABLE_CONST)
 109:.\Generated_Source\PSoC4/SPI_PM.c ****         SPI_EzI2CSaveConfig();
 110:.\Generated_Source\PSoC4/SPI_PM.c ****     
 111:.\Generated_Source\PSoC4/SPI_PM.c ****     #else
 112:.\Generated_Source\PSoC4/SPI_PM.c ****         
 113:.\Generated_Source\PSoC4/SPI_PM.c ****         SPI_backup.enableState = (uint8) SPI_GET_CTRL_ENABLED;
 114:.\Generated_Source\PSoC4/SPI_PM.c ****         
 115:.\Generated_Source\PSoC4/SPI_PM.c ****         /* Check enable state */
 116:.\Generated_Source\PSoC4/SPI_PM.c ****         if(0u != SPI_backup.enableState)
 117:.\Generated_Source\PSoC4/SPI_PM.c ****         {
 118:.\Generated_Source\PSoC4/SPI_PM.c ****             SPI_Stop();
 119:.\Generated_Source\PSoC4/SPI_PM.c ****         }
 120:.\Generated_Source\PSoC4/SPI_PM.c ****         
 121:.\Generated_Source\PSoC4/SPI_PM.c ****     #endif /* defined (SPI_SCB_MODE_I2C_CONST_CFG) && (SPI_I2C_WAKE_ENABLE_CONST) */
 122:.\Generated_Source\PSoC4/SPI_PM.c ****     
 123:.\Generated_Source\PSoC4/SPI_PM.c ****     SPI_DisableTxPinsInputBuffer();
 124:.\Generated_Source\PSoC4/SPI_PM.c ****     
 125:.\Generated_Source\PSoC4/SPI_PM.c **** #endif /* (SPI_SCB_MODE_UNCONFIG_CONST_CFG) */
 126:.\Generated_Source\PSoC4/SPI_PM.c **** }
 127:.\Generated_Source\PSoC4/SPI_PM.c **** 
 128:.\Generated_Source\PSoC4/SPI_PM.c **** 
 129:.\Generated_Source\PSoC4/SPI_PM.c **** /*******************************************************************************
 130:.\Generated_Source\PSoC4/SPI_PM.c **** * Function Name: SPI_Wakeup
 131:.\Generated_Source\PSoC4/SPI_PM.c **** ********************************************************************************
 132:.\Generated_Source\PSoC4/SPI_PM.c **** *
 133:.\Generated_Source\PSoC4/SPI_PM.c **** * Summary:
 134:.\Generated_Source\PSoC4/SPI_PM.c **** *  Calls RestoreConfig function fucntion for selected mode.
 135:.\Generated_Source\PSoC4/SPI_PM.c **** *
 136:.\Generated_Source\PSoC4/SPI_PM.c **** * Parameters:
 137:.\Generated_Source\PSoC4/SPI_PM.c **** *  None
 138:.\Generated_Source\PSoC4/SPI_PM.c **** *
 139:.\Generated_Source\PSoC4/SPI_PM.c **** * Return:
 140:.\Generated_Source\PSoC4/SPI_PM.c **** *  None
 141:.\Generated_Source\PSoC4/SPI_PM.c **** *
 142:.\Generated_Source\PSoC4/SPI_PM.c **** *******************************************************************************/
 143:.\Generated_Source\PSoC4/SPI_PM.c **** void SPI_Wakeup(void)
 144:.\Generated_Source\PSoC4/SPI_PM.c **** {
 145:.\Generated_Source\PSoC4/SPI_PM.c **** #if(SPI_SCB_MODE_UNCONFIG_CONST_CFG)
 146:.\Generated_Source\PSoC4/SPI_PM.c **** 
ARM GAS  C:\Users\atsu\AppData\Local\Temp\ccEvF9WH.s 			page 4


 147:.\Generated_Source\PSoC4/SPI_PM.c ****     SPI_EnableTxPinsInputBuffer();
 148:.\Generated_Source\PSoC4/SPI_PM.c ****         
 149:.\Generated_Source\PSoC4/SPI_PM.c ****     if(0u != SPI_scbEnableWake)
 150:.\Generated_Source\PSoC4/SPI_PM.c ****     {
 151:.\Generated_Source\PSoC4/SPI_PM.c ****         if(SPI_SCB_MODE_I2C_RUNTM_CFG)
 152:.\Generated_Source\PSoC4/SPI_PM.c ****         {
 153:.\Generated_Source\PSoC4/SPI_PM.c ****             SPI_I2CRestoreConfig();
 154:.\Generated_Source\PSoC4/SPI_PM.c ****         }
 155:.\Generated_Source\PSoC4/SPI_PM.c ****         else if(SPI_SCB_MODE_SPI_RUNTM_CFG)
 156:.\Generated_Source\PSoC4/SPI_PM.c ****         {
 157:.\Generated_Source\PSoC4/SPI_PM.c ****             SPI_SpiRestoreConfig();
 158:.\Generated_Source\PSoC4/SPI_PM.c ****         }
 159:.\Generated_Source\PSoC4/SPI_PM.c ****         else if(SPI_SCB_MODE_UART_RUNTM_CFG)
 160:.\Generated_Source\PSoC4/SPI_PM.c ****         {
 161:.\Generated_Source\PSoC4/SPI_PM.c ****             SPI_UartRestoreConfig();
 162:.\Generated_Source\PSoC4/SPI_PM.c ****         }
 163:.\Generated_Source\PSoC4/SPI_PM.c ****         else if(SPI_SCB_MODE_EZI2C_RUNTM_CFG)
 164:.\Generated_Source\PSoC4/SPI_PM.c ****         {
 165:.\Generated_Source\PSoC4/SPI_PM.c ****             SPI_EzI2CRestoreConfig();
 166:.\Generated_Source\PSoC4/SPI_PM.c ****         }
 167:.\Generated_Source\PSoC4/SPI_PM.c ****         else
 168:.\Generated_Source\PSoC4/SPI_PM.c ****         {
 169:.\Generated_Source\PSoC4/SPI_PM.c ****             /* Unknown mode: do nothing */
 170:.\Generated_Source\PSoC4/SPI_PM.c ****         }
 171:.\Generated_Source\PSoC4/SPI_PM.c ****     }
 172:.\Generated_Source\PSoC4/SPI_PM.c ****     else
 173:.\Generated_Source\PSoC4/SPI_PM.c ****     {    
 174:.\Generated_Source\PSoC4/SPI_PM.c ****         /* Restore enable state */
 175:.\Generated_Source\PSoC4/SPI_PM.c ****         if(0u != SPI_backup.enableState)
 176:.\Generated_Source\PSoC4/SPI_PM.c ****         {
 177:.\Generated_Source\PSoC4/SPI_PM.c ****             SPI_Enable();
 178:.\Generated_Source\PSoC4/SPI_PM.c ****         }
 179:.\Generated_Source\PSoC4/SPI_PM.c ****     }
 180:.\Generated_Source\PSoC4/SPI_PM.c **** 
 181:.\Generated_Source\PSoC4/SPI_PM.c **** #else
 182:.\Generated_Source\PSoC4/SPI_PM.c ****     
 183:.\Generated_Source\PSoC4/SPI_PM.c ****     SPI_EnableTxPinsInputBuffer();
 184:.\Generated_Source\PSoC4/SPI_PM.c ****         
 185:.\Generated_Source\PSoC4/SPI_PM.c ****     #if defined (SPI_I2C_WAKE_ENABLE_CONST) && (SPI_I2C_WAKE_ENABLE_CONST)
 186:.\Generated_Source\PSoC4/SPI_PM.c ****         SPI_I2CRestoreConfig();
 187:.\Generated_Source\PSoC4/SPI_PM.c ****         
 188:.\Generated_Source\PSoC4/SPI_PM.c ****     #elif defined (SPI_SPI_WAKE_ENABLE_CONST) && (SPI_SPI_WAKE_ENABLE_CONST)
 189:.\Generated_Source\PSoC4/SPI_PM.c ****         SPI_SpiRestoreConfig();
 190:.\Generated_Source\PSoC4/SPI_PM.c ****         
 191:.\Generated_Source\PSoC4/SPI_PM.c ****     #elif defined (SPI_UART_WAKE_ENABLE_CONST) && (SPI_UART_WAKE_ENABLE_CONST)
 192:.\Generated_Source\PSoC4/SPI_PM.c ****         SPI_UartRestoreConfig();
 193:.\Generated_Source\PSoC4/SPI_PM.c ****         
 194:.\Generated_Source\PSoC4/SPI_PM.c ****     #elif defined (SPI_EZI2C_WAKE_ENABLE_CONST) && (SPI_EZI2C_WAKE_ENABLE_CONST)
 195:.\Generated_Source\PSoC4/SPI_PM.c ****         SPI_EzI2CRestoreConfig();
 196:.\Generated_Source\PSoC4/SPI_PM.c ****     
 197:.\Generated_Source\PSoC4/SPI_PM.c ****     #else
 198:.\Generated_Source\PSoC4/SPI_PM.c ****         /* Check enable state */
 199:.\Generated_Source\PSoC4/SPI_PM.c ****         if(0u != SPI_backup.enableState)
 200:.\Generated_Source\PSoC4/SPI_PM.c ****         {
 201:.\Generated_Source\PSoC4/SPI_PM.c ****             SPI_Enable();
 202:.\Generated_Source\PSoC4/SPI_PM.c ****         }
 203:.\Generated_Source\PSoC4/SPI_PM.c ****         
ARM GAS  C:\Users\atsu\AppData\Local\Temp\ccEvF9WH.s 			page 5


 204:.\Generated_Source\PSoC4/SPI_PM.c ****     #endif /* (SPI_I2C_WAKE_ENABLE_CONST) */
 205:.\Generated_Source\PSoC4/SPI_PM.c **** 
 206:.\Generated_Source\PSoC4/SPI_PM.c **** #endif /* (SPI_SCB_MODE_UNCONFIG_CONST_CFG) */
 207:.\Generated_Source\PSoC4/SPI_PM.c **** }
 208:.\Generated_Source\PSoC4/SPI_PM.c **** 
 209:.\Generated_Source\PSoC4/SPI_PM.c **** 
 210:.\Generated_Source\PSoC4/SPI_PM.c **** /*******************************************************************************
 211:.\Generated_Source\PSoC4/SPI_PM.c **** * Function Name: SPI_DisableTxPinsInputBuffer
 212:.\Generated_Source\PSoC4/SPI_PM.c **** ********************************************************************************
 213:.\Generated_Source\PSoC4/SPI_PM.c **** *
 214:.\Generated_Source\PSoC4/SPI_PM.c **** * Summary:
 215:.\Generated_Source\PSoC4/SPI_PM.c **** *  Disables input buffers for TX pins. This action removes leakage current while
 216:.\Generated_Source\PSoC4/SPI_PM.c **** *  low power mode (Cypress ID 149635).
 217:.\Generated_Source\PSoC4/SPI_PM.c **** *   SCB mode is I2C and EZI2C: bus is pulled-up. Leave pins as it is.
 218:.\Generated_Source\PSoC4/SPI_PM.c **** *   SCB mode SPI:
 219:.\Generated_Source\PSoC4/SPI_PM.c **** *     Slave  - disable input buffer for MISO pin.
 220:.\Generated_Source\PSoC4/SPI_PM.c **** *     Master - disable input buffer for all pins.
 221:.\Generated_Source\PSoC4/SPI_PM.c **** *   SCB mode SmartCard: 
 222:.\Generated_Source\PSoC4/SPI_PM.c **** *     Standard and IrDA - disable input buffer for TX pin.
 223:.\Generated_Source\PSoC4/SPI_PM.c **** *     SmartCard - RX_TX pin is pulled-up. Leave pin as it is.
 224:.\Generated_Source\PSoC4/SPI_PM.c **** *
 225:.\Generated_Source\PSoC4/SPI_PM.c **** * Parameters:
 226:.\Generated_Source\PSoC4/SPI_PM.c **** *  None
 227:.\Generated_Source\PSoC4/SPI_PM.c **** *
 228:.\Generated_Source\PSoC4/SPI_PM.c **** * Return:
 229:.\Generated_Source\PSoC4/SPI_PM.c **** *  None
 230:.\Generated_Source\PSoC4/SPI_PM.c **** *
 231:.\Generated_Source\PSoC4/SPI_PM.c **** *******************************************************************************/
 232:.\Generated_Source\PSoC4/SPI_PM.c **** void SPI_DisableTxPinsInputBuffer(void)
 233:.\Generated_Source\PSoC4/SPI_PM.c **** {
  26              		.loc 1 233 0
  27              		.cfi_startproc
 234:.\Generated_Source\PSoC4/SPI_PM.c **** #if(SPI_SCB_MODE_UNCONFIG_CONST_CFG)
 235:.\Generated_Source\PSoC4/SPI_PM.c ****     
 236:.\Generated_Source\PSoC4/SPI_PM.c ****     /* SCB mode is I2C and EZI2C: bus is pulled-up. Does nothing */
 237:.\Generated_Source\PSoC4/SPI_PM.c ****        
 238:.\Generated_Source\PSoC4/SPI_PM.c ****     if(SPI_SCB_MODE_SPI_RUNTM_CFG)
 239:.\Generated_Source\PSoC4/SPI_PM.c ****     {
 240:.\Generated_Source\PSoC4/SPI_PM.c ****         if(0u != (SPI_SPI_CTRL_REG & SPI_SPI_CTRL_MASTER))
 241:.\Generated_Source\PSoC4/SPI_PM.c ****         /* SPI Master */
 242:.\Generated_Source\PSoC4/SPI_PM.c ****         {
 243:.\Generated_Source\PSoC4/SPI_PM.c ****         #if(SPI_MOSI_SCL_RX_WAKE_PIN)
 244:.\Generated_Source\PSoC4/SPI_PM.c ****             SPI_spi_mosi_i2c_scl_uart_rx_wake_INP_DIS |= \
 245:.\Generated_Source\PSoC4/SPI_PM.c ****                                                                 SPI_spi_mosi_i2c_scl_uart_rx_wake_M
 246:.\Generated_Source\PSoC4/SPI_PM.c ****         #endif /* (SPI_MOSI_SCL_RX_WAKE_PIN) */
 247:.\Generated_Source\PSoC4/SPI_PM.c **** 
 248:.\Generated_Source\PSoC4/SPI_PM.c ****         #if(SPI_MOSI_SCL_RX_PIN)
 249:.\Generated_Source\PSoC4/SPI_PM.c ****             SPI_spi_mosi_i2c_scl_uart_rx_INP_DIS |= SPI_spi_mosi_i2c_scl_uart_rx_MASK;
 250:.\Generated_Source\PSoC4/SPI_PM.c ****         #endif /* (SPI_MOSI_SCL_RX_PIN) */
 251:.\Generated_Source\PSoC4/SPI_PM.c **** 
 252:.\Generated_Source\PSoC4/SPI_PM.c ****         #if(SPI_MISO_SDA_TX_PIN)
 253:.\Generated_Source\PSoC4/SPI_PM.c ****             SPI_spi_miso_i2c_sda_uart_tx_INP_DIS |= SPI_spi_miso_i2c_sda_uart_tx_MASK;
 254:.\Generated_Source\PSoC4/SPI_PM.c ****         #endif /* (SPI_MISO_SDA_TX_PIN_PIN) */
 255:.\Generated_Source\PSoC4/SPI_PM.c **** 
 256:.\Generated_Source\PSoC4/SPI_PM.c ****         #if(SPI_SCLK_PIN)
 257:.\Generated_Source\PSoC4/SPI_PM.c ****             SPI_spi_sclk_INP_DIS |= SPI_spi_sclk_MASK;
 258:.\Generated_Source\PSoC4/SPI_PM.c ****         #endif /* (SPI_SCLK_PIN) */
ARM GAS  C:\Users\atsu\AppData\Local\Temp\ccEvF9WH.s 			page 6


 259:.\Generated_Source\PSoC4/SPI_PM.c **** 
 260:.\Generated_Source\PSoC4/SPI_PM.c ****         #if(SPI_SS0_PIN)
 261:.\Generated_Source\PSoC4/SPI_PM.c ****             SPI_spi_ss0_INP_DIS |= SPI_spi_ss0_MASK;
 262:.\Generated_Source\PSoC4/SPI_PM.c ****         #endif /* (SPI_SS1_PIN) */
 263:.\Generated_Source\PSoC4/SPI_PM.c **** 
 264:.\Generated_Source\PSoC4/SPI_PM.c ****         #if(SPI_SS1_PIN)
 265:.\Generated_Source\PSoC4/SPI_PM.c ****             SPI_spi_ss1_INP_DIS |= SPI_spi_ss1_MASK;
 266:.\Generated_Source\PSoC4/SPI_PM.c ****         #endif /* (SPI_SS1_PIN) */
 267:.\Generated_Source\PSoC4/SPI_PM.c **** 
 268:.\Generated_Source\PSoC4/SPI_PM.c ****         #if(SPI_SS2_PIN)
 269:.\Generated_Source\PSoC4/SPI_PM.c ****             SPI_spi_ss2_INP_DIS |= SPI_spi_ss2_MASK;
 270:.\Generated_Source\PSoC4/SPI_PM.c ****         #endif /* (SPI_SS2_PIN) */
 271:.\Generated_Source\PSoC4/SPI_PM.c **** 
 272:.\Generated_Source\PSoC4/SPI_PM.c ****         #if(SPI_SS3_PIN)
 273:.\Generated_Source\PSoC4/SPI_PM.c ****             SPI_spi_ss3_INP_DIS |= SPI_spi_ss3_MASK;
 274:.\Generated_Source\PSoC4/SPI_PM.c ****         #endif /* (SPI_SS3_PIN) */
 275:.\Generated_Source\PSoC4/SPI_PM.c ****         }
 276:.\Generated_Source\PSoC4/SPI_PM.c ****         else
 277:.\Generated_Source\PSoC4/SPI_PM.c ****         /* SPI Slave */
 278:.\Generated_Source\PSoC4/SPI_PM.c ****         {
 279:.\Generated_Source\PSoC4/SPI_PM.c ****         #if(SPI_MISO_SDA_TX_PIN)
 280:.\Generated_Source\PSoC4/SPI_PM.c ****             SPI_spi_miso_i2c_sda_uart_tx_INP_DIS |= SPI_spi_miso_i2c_sda_uart_tx_MASK;
 281:.\Generated_Source\PSoC4/SPI_PM.c ****         #endif /* (SPI_MISO_SDA_TX_PIN_PIN) */
 282:.\Generated_Source\PSoC4/SPI_PM.c ****         }
 283:.\Generated_Source\PSoC4/SPI_PM.c ****     }
 284:.\Generated_Source\PSoC4/SPI_PM.c ****     else if (SPI_SCB_MODE_UART_RUNTM_CFG)
 285:.\Generated_Source\PSoC4/SPI_PM.c ****     {
 286:.\Generated_Source\PSoC4/SPI_PM.c ****         if(SPI_UART_CTRL_MODE_UART_SMARTCARD != 
 287:.\Generated_Source\PSoC4/SPI_PM.c ****             (SPI_UART_CTRL_REG & SPI_UART_CTRL_MODE_MASK))
 288:.\Generated_Source\PSoC4/SPI_PM.c ****         /* UART Standard or IrDA */
 289:.\Generated_Source\PSoC4/SPI_PM.c ****         {
 290:.\Generated_Source\PSoC4/SPI_PM.c ****         #if(SPI_MISO_SDA_TX_PIN)
 291:.\Generated_Source\PSoC4/SPI_PM.c ****             SPI_spi_miso_i2c_sda_uart_tx_INP_DIS |= SPI_spi_miso_i2c_sda_uart_tx_MASK;
 292:.\Generated_Source\PSoC4/SPI_PM.c ****         #endif /* (SPI_MISO_SDA_TX_PIN_PIN) */
 293:.\Generated_Source\PSoC4/SPI_PM.c ****         }
 294:.\Generated_Source\PSoC4/SPI_PM.c ****     }
 295:.\Generated_Source\PSoC4/SPI_PM.c ****     else
 296:.\Generated_Source\PSoC4/SPI_PM.c ****     {
 297:.\Generated_Source\PSoC4/SPI_PM.c ****         /* Does nothing */
 298:.\Generated_Source\PSoC4/SPI_PM.c ****     }
 299:.\Generated_Source\PSoC4/SPI_PM.c ****     
 300:.\Generated_Source\PSoC4/SPI_PM.c **** #else
 301:.\Generated_Source\PSoC4/SPI_PM.c ****     
 302:.\Generated_Source\PSoC4/SPI_PM.c ****     /* SCB mode is I2C and EZI2C: bus is pulled-up. Does nothing */
 303:.\Generated_Source\PSoC4/SPI_PM.c ****         
 304:.\Generated_Source\PSoC4/SPI_PM.c ****     /* SCB mode is SPI Master */
 305:.\Generated_Source\PSoC4/SPI_PM.c ****     #if(SPI_SPI_MASTER_PINS)
 306:.\Generated_Source\PSoC4/SPI_PM.c ****         SPI_sclk_m_INP_DIS |= SPI_sclk_m_MASK;
  28              		.loc 1 306 0
  29 0000 094B     		ldr	r3, .L2
  30 0002 4021     		mov	r1, #64
  31 0004 1A68     		ldr	r2, [r3]
 307:.\Generated_Source\PSoC4/SPI_PM.c ****         SPI_mosi_m_INP_DIS |= SPI_mosi_m_MASK;
  32              		.loc 1 307 0
  33 0006 0120     		mov	r0, #1
 306:.\Generated_Source\PSoC4/SPI_PM.c ****         SPI_sclk_m_INP_DIS |= SPI_sclk_m_MASK;
  34              		.loc 1 306 0
ARM GAS  C:\Users\atsu\AppData\Local\Temp\ccEvF9WH.s 			page 7


  35 0008 0A43     		orr	r2, r1
  36 000a 1A60     		str	r2, [r3]
  37              		.loc 1 307 0
  38 000c 074A     		ldr	r2, .L2+4
 308:.\Generated_Source\PSoC4/SPI_PM.c ****         SPI_miso_m_INP_DIS |= SPI_miso_m_MASK;
 309:.\Generated_Source\PSoC4/SPI_PM.c ****     #endif /* (SPI_SPI_MASTER_PINS) */
 310:.\Generated_Source\PSoC4/SPI_PM.c **** 
 311:.\Generated_Source\PSoC4/SPI_PM.c ****     #if(SPI_SPI_MASTER_SS0_PIN)
 312:.\Generated_Source\PSoC4/SPI_PM.c ****         SPI_ss0_m_INP_DIS |= SPI_ss0_m_MASK;
 313:.\Generated_Source\PSoC4/SPI_PM.c ****     #endif /* (SPI_SPI_MASTER_SS0_PIN) */
 314:.\Generated_Source\PSoC4/SPI_PM.c **** 
 315:.\Generated_Source\PSoC4/SPI_PM.c ****     #if(SPI_SPI_MASTER_SS1_PIN)
 316:.\Generated_Source\PSoC4/SPI_PM.c ****         SPI_ss1_m_INP_DIS |= SPI_ss1_m_MASK;
 317:.\Generated_Source\PSoC4/SPI_PM.c ****     #endif /* (SPI_SPI_MASTER_SS1_PIN) */
 318:.\Generated_Source\PSoC4/SPI_PM.c **** 
 319:.\Generated_Source\PSoC4/SPI_PM.c ****     #if(SPI_SPI_MASTER_SS2_PIN)
 320:.\Generated_Source\PSoC4/SPI_PM.c ****         SPI_ss2_m_INP_DIS |= SPI_ss2_m_MASK;
 321:.\Generated_Source\PSoC4/SPI_PM.c ****     #endif /* (SPI_SPI_MASTER_SS2_PIN) */
 322:.\Generated_Source\PSoC4/SPI_PM.c **** 
 323:.\Generated_Source\PSoC4/SPI_PM.c ****     #if(SPI_SPI_MASTER_SS3_PIN)
 324:.\Generated_Source\PSoC4/SPI_PM.c ****         SPI_ss3_m_INP_DIS |= SPI_ss3_m_MASK;
 325:.\Generated_Source\PSoC4/SPI_PM.c ****     #endif /* (SPI_SPI_MASTER_SS3_PIN) */
 326:.\Generated_Source\PSoC4/SPI_PM.c ****     
 327:.\Generated_Source\PSoC4/SPI_PM.c ****     /* SCB mode is SPI Slave */
 328:.\Generated_Source\PSoC4/SPI_PM.c ****     #if(SPI_SPI_SLAVE_PINS)
 329:.\Generated_Source\PSoC4/SPI_PM.c ****         SPI_miso_s_INP_DIS |= SPI_miso_s_MASK;
 330:.\Generated_Source\PSoC4/SPI_PM.c ****     #endif /* (SPI_SPI_SLAVE_PINS) */
 331:.\Generated_Source\PSoC4/SPI_PM.c **** 
 332:.\Generated_Source\PSoC4/SPI_PM.c ****     /* SCB mode is UART */
 333:.\Generated_Source\PSoC4/SPI_PM.c ****     #if(SPI_UART_TX_PIN)
 334:.\Generated_Source\PSoC4/SPI_PM.c ****         SPI_tx_INP_DIS |= SPI_tx_MASK;
 335:.\Generated_Source\PSoC4/SPI_PM.c ****     #endif /* (SPI_UART_TX_PIN) */
 336:.\Generated_Source\PSoC4/SPI_PM.c **** 
 337:.\Generated_Source\PSoC4/SPI_PM.c **** #endif /* (SPI_SCB_MODE_UNCONFIG_CONST_CFG) */
 338:.\Generated_Source\PSoC4/SPI_PM.c **** }
  39              		.loc 1 338 0
  40              		@ sp needed for prologue
 307:.\Generated_Source\PSoC4/SPI_PM.c ****         SPI_mosi_m_INP_DIS |= SPI_mosi_m_MASK;
  41              		.loc 1 307 0
  42 000e 1168     		ldr	r1, [r2]
  43 0010 0143     		orr	r1, r0
  44 0012 1160     		str	r1, [r2]
 308:.\Generated_Source\PSoC4/SPI_PM.c ****         SPI_miso_m_INP_DIS |= SPI_miso_m_MASK;
  45              		.loc 1 308 0
  46 0014 1168     		ldr	r1, [r2]
  47 0016 0220     		mov	r0, #2
  48 0018 0143     		orr	r1, r0
  49 001a 1160     		str	r1, [r2]
 312:.\Generated_Source\PSoC4/SPI_PM.c ****         SPI_ss0_m_INP_DIS |= SPI_ss0_m_MASK;
  50              		.loc 1 312 0
  51 001c 1A68     		ldr	r2, [r3]
  52 001e 8021     		mov	r1, #128
  53 0020 0A43     		orr	r2, r1
  54 0022 1A60     		str	r2, [r3]
  55              		.loc 1 338 0
  56 0024 7047     		bx	lr
  57              	.L3:
ARM GAS  C:\Users\atsu\AppData\Local\Temp\ccEvF9WH.s 			page 8


  58 0026 C046     		.align	2
  59              	.L2:
  60 0028 18000440 		.word	1074003992
  61 002c 18030440 		.word	1074004760
  62              		.cfi_endproc
  63              	.LFE2:
  64              		.size	SPI_DisableTxPinsInputBuffer, .-SPI_DisableTxPinsInputBuffer
  65              		.section	.text.SPI_Sleep,"ax",%progbits
  66              		.align	1
  67              		.global	SPI_Sleep
  68              		.code	16
  69              		.thumb_func
  70              		.type	SPI_Sleep, %function
  71              	SPI_Sleep:
  72              	.LFB0:
  59:.\Generated_Source\PSoC4/SPI_PM.c **** {
  73              		.loc 1 59 0
  74              		.cfi_startproc
  75 0000 08B5     		push	{r3, lr}
  76              	.LCFI0:
  77              		.cfi_def_cfa_offset 8
  78              		.cfi_offset 3, -8
  79              		.cfi_offset 14, -4
 113:.\Generated_Source\PSoC4/SPI_PM.c ****         SPI_backup.enableState = (uint8) SPI_GET_CTRL_ENABLED;
  80              		.loc 1 113 0
  81 0002 054B     		ldr	r3, .L10
  82 0004 054A     		ldr	r2, .L10+4
  83 0006 1868     		ldr	r0, [r3]
  84 0008 C10F     		lsr	r1, r0, #31
  85 000a 1170     		strb	r1, [r2]
 116:.\Generated_Source\PSoC4/SPI_PM.c ****         if(0u != SPI_backup.enableState)
  86              		.loc 1 116 0
  87 000c 01D0     		beq	.L5
 118:.\Generated_Source\PSoC4/SPI_PM.c ****             SPI_Stop();
  88              		.loc 1 118 0
  89 000e FFF7FEFF 		bl	SPI_Stop
  90              	.LVL0:
  91              	.L5:
 123:.\Generated_Source\PSoC4/SPI_PM.c ****     SPI_DisableTxPinsInputBuffer();
  92              		.loc 1 123 0
  93 0012 FFF7FEFF 		bl	SPI_DisableTxPinsInputBuffer
  94              	.LVL1:
 126:.\Generated_Source\PSoC4/SPI_PM.c **** }
  95              		.loc 1 126 0
  96              		@ sp needed for prologue
  97 0016 08BD     		pop	{r3, pc}
  98              	.L11:
  99              		.align	2
 100              	.L10:
 101 0018 00000740 		.word	1074200576
 102 001c 00000000 		.word	.LANCHOR0
 103              		.cfi_endproc
 104              	.LFE0:
 105              		.size	SPI_Sleep, .-SPI_Sleep
 106              		.section	.text.SPI_EnableTxPinsInputBuffer,"ax",%progbits
 107              		.align	1
 108              		.global	SPI_EnableTxPinsInputBuffer
ARM GAS  C:\Users\atsu\AppData\Local\Temp\ccEvF9WH.s 			page 9


 109              		.code	16
 110              		.thumb_func
 111              		.type	SPI_EnableTxPinsInputBuffer, %function
 112              	SPI_EnableTxPinsInputBuffer:
 113              	.LFB3:
 339:.\Generated_Source\PSoC4/SPI_PM.c **** 
 340:.\Generated_Source\PSoC4/SPI_PM.c **** 
 341:.\Generated_Source\PSoC4/SPI_PM.c **** /*******************************************************************************
 342:.\Generated_Source\PSoC4/SPI_PM.c **** * Function Name: SPI_EnableTxPinsInputBuffer
 343:.\Generated_Source\PSoC4/SPI_PM.c **** ********************************************************************************
 344:.\Generated_Source\PSoC4/SPI_PM.c **** *
 345:.\Generated_Source\PSoC4/SPI_PM.c **** * Summary:
 346:.\Generated_Source\PSoC4/SPI_PM.c **** *  Enables input buffers for TX pins. Restore changes done byte
 347:.\Generated_Source\PSoC4/SPI_PM.c **** *SPI_DisableTxPinsInputBuffer.
 348:.\Generated_Source\PSoC4/SPI_PM.c **** *
 349:.\Generated_Source\PSoC4/SPI_PM.c **** * Parameters:
 350:.\Generated_Source\PSoC4/SPI_PM.c **** *  None
 351:.\Generated_Source\PSoC4/SPI_PM.c **** *
 352:.\Generated_Source\PSoC4/SPI_PM.c **** * Return:
 353:.\Generated_Source\PSoC4/SPI_PM.c **** *  None
 354:.\Generated_Source\PSoC4/SPI_PM.c **** *
 355:.\Generated_Source\PSoC4/SPI_PM.c **** *******************************************************************************/
 356:.\Generated_Source\PSoC4/SPI_PM.c **** void SPI_EnableTxPinsInputBuffer(void)
 357:.\Generated_Source\PSoC4/SPI_PM.c **** {
 114              		.loc 1 357 0
 115              		.cfi_startproc
 358:.\Generated_Source\PSoC4/SPI_PM.c **** #if(SPI_SCB_MODE_UNCONFIG_CONST_CFG)
 359:.\Generated_Source\PSoC4/SPI_PM.c ****     if(SPI_SCB_MODE_SPI_RUNTM_CFG)
 360:.\Generated_Source\PSoC4/SPI_PM.c ****     {
 361:.\Generated_Source\PSoC4/SPI_PM.c ****         if(0u != (SPI_SPI_CTRL_REG & SPI_SPI_CTRL_MASTER))
 362:.\Generated_Source\PSoC4/SPI_PM.c ****         /* SPI Master */
 363:.\Generated_Source\PSoC4/SPI_PM.c ****         {
 364:.\Generated_Source\PSoC4/SPI_PM.c ****         #if(SPI_MOSI_SCL_RX_WAKE_PIN)
 365:.\Generated_Source\PSoC4/SPI_PM.c ****             SPI_spi_mosi_i2c_scl_uart_rx_wake_INP_DIS &= \
 366:.\Generated_Source\PSoC4/SPI_PM.c ****                                             (uint32) ~((uint32) SPI_spi_mosi_i2c_scl_uart_rx_wake_M
 367:.\Generated_Source\PSoC4/SPI_PM.c ****         #endif /* (SPI_MOSI_SCL_RX_WAKE_PIN) */
 368:.\Generated_Source\PSoC4/SPI_PM.c **** 
 369:.\Generated_Source\PSoC4/SPI_PM.c ****         #if(SPI_MOSI_SCL_RX_PIN)
 370:.\Generated_Source\PSoC4/SPI_PM.c ****             SPI_spi_mosi_i2c_scl_uart_rx_INP_DIS &= \
 371:.\Generated_Source\PSoC4/SPI_PM.c ****                                             (uint32) ~((uint32) SPI_spi_mosi_i2c_scl_uart_rx_MASK);
 372:.\Generated_Source\PSoC4/SPI_PM.c ****         #endif /* (SPI_MOSI_SCL_RX_PIN) */
 373:.\Generated_Source\PSoC4/SPI_PM.c **** 
 374:.\Generated_Source\PSoC4/SPI_PM.c ****         #if(SPI_MISO_SDA_TX_PIN)
 375:.\Generated_Source\PSoC4/SPI_PM.c ****             SPI_spi_miso_i2c_sda_uart_tx_INP_DIS &= \
 376:.\Generated_Source\PSoC4/SPI_PM.c ****                                             (uint32) ~((uint32) SPI_spi_miso_i2c_sda_uart_tx_MASK);
 377:.\Generated_Source\PSoC4/SPI_PM.c ****         #endif /* (SPI_MISO_SDA_TX_PIN_PIN) */
 378:.\Generated_Source\PSoC4/SPI_PM.c **** 
 379:.\Generated_Source\PSoC4/SPI_PM.c ****         #if(SPI_SCLK_PIN)
 380:.\Generated_Source\PSoC4/SPI_PM.c ****             SPI_spi_sclk_INP_DIS &= (uint32) ~((uint32) SPI_spi_sclk_MASK);
 381:.\Generated_Source\PSoC4/SPI_PM.c ****         #endif /* (SPI_SCLK_PIN) */
 382:.\Generated_Source\PSoC4/SPI_PM.c **** 
 383:.\Generated_Source\PSoC4/SPI_PM.c ****         #if(SPI_SS0_PIN)
 384:.\Generated_Source\PSoC4/SPI_PM.c ****             SPI_spi_ss0_INP_DIS &= (uint32) ~((uint32) SPI_spi_ss0_MASK);
 385:.\Generated_Source\PSoC4/SPI_PM.c ****         #endif /* (SPI_SS1_PIN) */
 386:.\Generated_Source\PSoC4/SPI_PM.c **** 
 387:.\Generated_Source\PSoC4/SPI_PM.c ****         #if(SPI_SS1_PIN)
 388:.\Generated_Source\PSoC4/SPI_PM.c ****             SPI_spi_ss1_INP_DIS &= (uint32) ~((uint32) SPI_spi_ss1_MASK);
ARM GAS  C:\Users\atsu\AppData\Local\Temp\ccEvF9WH.s 			page 10


 389:.\Generated_Source\PSoC4/SPI_PM.c ****         #endif /* (SPI_SS1_PIN) */
 390:.\Generated_Source\PSoC4/SPI_PM.c **** 
 391:.\Generated_Source\PSoC4/SPI_PM.c ****         #if(SPI_SS2_PIN)
 392:.\Generated_Source\PSoC4/SPI_PM.c ****             SPI_spi_ss2_INP_DIS &= (uint32) ~((uint32) SPI_spi_ss2_MASK);
 393:.\Generated_Source\PSoC4/SPI_PM.c ****         #endif /* (SPI_SS2_PIN) */
 394:.\Generated_Source\PSoC4/SPI_PM.c **** 
 395:.\Generated_Source\PSoC4/SPI_PM.c ****         #if(SPI_SS3_PIN)
 396:.\Generated_Source\PSoC4/SPI_PM.c ****             SPI_spi_ss3_INP_DIS &= (uint32) ~((uint32) SPI_spi_ss3_MASK);
 397:.\Generated_Source\PSoC4/SPI_PM.c ****         #endif /* (SPI_SS3_PIN) */
 398:.\Generated_Source\PSoC4/SPI_PM.c ****         }
 399:.\Generated_Source\PSoC4/SPI_PM.c ****         else
 400:.\Generated_Source\PSoC4/SPI_PM.c ****         /* SPI Slave */
 401:.\Generated_Source\PSoC4/SPI_PM.c ****         {
 402:.\Generated_Source\PSoC4/SPI_PM.c ****         #if(SPI_MISO_SDA_TX_PIN)
 403:.\Generated_Source\PSoC4/SPI_PM.c ****             SPI_spi_miso_i2c_sda_uart_tx_INP_DIS &= \
 404:.\Generated_Source\PSoC4/SPI_PM.c ****                                                 (uint32) ~((uint32) SPI_spi_miso_i2c_sda_uart_tx_MA
 405:.\Generated_Source\PSoC4/SPI_PM.c ****         #endif /* (SPI_MISO_SDA_TX_PIN_PIN) */
 406:.\Generated_Source\PSoC4/SPI_PM.c ****         }
 407:.\Generated_Source\PSoC4/SPI_PM.c ****     }
 408:.\Generated_Source\PSoC4/SPI_PM.c ****     else if (SPI_SCB_MODE_UART_RUNTM_CFG)
 409:.\Generated_Source\PSoC4/SPI_PM.c ****     {
 410:.\Generated_Source\PSoC4/SPI_PM.c ****         if(SPI_UART_CTRL_MODE_UART_SMARTCARD != 
 411:.\Generated_Source\PSoC4/SPI_PM.c ****                 (SPI_UART_CTRL_REG & SPI_UART_CTRL_MODE_MASK))
 412:.\Generated_Source\PSoC4/SPI_PM.c ****         /* UART Standard or IrDA */
 413:.\Generated_Source\PSoC4/SPI_PM.c ****         {
 414:.\Generated_Source\PSoC4/SPI_PM.c ****         #if(SPI_MISO_SDA_TX_PIN)
 415:.\Generated_Source\PSoC4/SPI_PM.c ****             SPI_spi_miso_i2c_sda_uart_tx_INP_DIS &= \
 416:.\Generated_Source\PSoC4/SPI_PM.c ****                                                 (uint32) ~((uint32) SPI_spi_miso_i2c_sda_uart_tx_MA
 417:.\Generated_Source\PSoC4/SPI_PM.c ****         #endif /* (SPI_MISO_SDA_TX_PIN_PIN) */
 418:.\Generated_Source\PSoC4/SPI_PM.c ****         }
 419:.\Generated_Source\PSoC4/SPI_PM.c ****     }
 420:.\Generated_Source\PSoC4/SPI_PM.c ****     else
 421:.\Generated_Source\PSoC4/SPI_PM.c ****     {
 422:.\Generated_Source\PSoC4/SPI_PM.c ****         /* Does nothing */
 423:.\Generated_Source\PSoC4/SPI_PM.c ****     }
 424:.\Generated_Source\PSoC4/SPI_PM.c ****     
 425:.\Generated_Source\PSoC4/SPI_PM.c **** #else
 426:.\Generated_Source\PSoC4/SPI_PM.c ****         
 427:.\Generated_Source\PSoC4/SPI_PM.c ****     /* SCB mode is SPI Master */
 428:.\Generated_Source\PSoC4/SPI_PM.c ****     #if(SPI_SPI_MASTER_PINS)
 429:.\Generated_Source\PSoC4/SPI_PM.c ****         SPI_sclk_m_INP_DIS &= (uint32) ~((uint32) SPI_sclk_m_MASK);
 116              		.loc 1 429 0
 117 0000 094B     		ldr	r3, .L13
 118 0002 4021     		mov	r1, #64
 119 0004 1A68     		ldr	r2, [r3]
 430:.\Generated_Source\PSoC4/SPI_PM.c ****         SPI_mosi_m_INP_DIS &= (uint32) ~((uint32) SPI_mosi_m_MASK);
 120              		.loc 1 430 0
 121 0006 0120     		mov	r0, #1
 429:.\Generated_Source\PSoC4/SPI_PM.c ****         SPI_sclk_m_INP_DIS &= (uint32) ~((uint32) SPI_sclk_m_MASK);
 122              		.loc 1 429 0
 123 0008 8A43     		bic	r2, r1
 124 000a 1A60     		str	r2, [r3]
 125              		.loc 1 430 0
 126 000c 074A     		ldr	r2, .L13+4
 431:.\Generated_Source\PSoC4/SPI_PM.c ****         SPI_miso_m_INP_DIS &= (uint32) ~((uint32) SPI_miso_m_MASK);
 432:.\Generated_Source\PSoC4/SPI_PM.c ****     #endif /* (SPI_SPI_MASTER_PINS) */
 433:.\Generated_Source\PSoC4/SPI_PM.c **** 
ARM GAS  C:\Users\atsu\AppData\Local\Temp\ccEvF9WH.s 			page 11


 434:.\Generated_Source\PSoC4/SPI_PM.c ****     #if(SPI_SPI_MASTER_SS0_PIN)
 435:.\Generated_Source\PSoC4/SPI_PM.c ****         SPI_ss0_m_INP_DIS &= (uint32) ~((uint32) SPI_ss0_m_MASK);
 436:.\Generated_Source\PSoC4/SPI_PM.c ****     #endif /* (SPI_SPI_MASTER_SS0_PIN) */
 437:.\Generated_Source\PSoC4/SPI_PM.c **** 
 438:.\Generated_Source\PSoC4/SPI_PM.c ****     #if(SPI_SPI_MASTER_SS1_PIN)
 439:.\Generated_Source\PSoC4/SPI_PM.c ****         SPI_ss1_m_INP_DIS &= (uint32) ~((uint32) SPI_ss1_m_MASK);
 440:.\Generated_Source\PSoC4/SPI_PM.c ****     #endif /* (SPI_SPI_MASTER_SS1_PIN) */
 441:.\Generated_Source\PSoC4/SPI_PM.c **** 
 442:.\Generated_Source\PSoC4/SPI_PM.c ****     #if(SPI_SPI_MASTER_SS2_PIN)
 443:.\Generated_Source\PSoC4/SPI_PM.c ****         SPI_ss2_m_INP_DIS &= (uint32) ~((uint32) SPI_ss2_m_MASK);
 444:.\Generated_Source\PSoC4/SPI_PM.c ****     #endif /* (SPI_SPI_MASTER_SS2_PIN) */
 445:.\Generated_Source\PSoC4/SPI_PM.c **** 
 446:.\Generated_Source\PSoC4/SPI_PM.c ****     #if(SPI_SPI_MASTER_SS3_PIN)
 447:.\Generated_Source\PSoC4/SPI_PM.c ****         SPI_ss3_m_INP_DIS &= (uint32) ~((uint32) SPI_ss3_m_MASK);
 448:.\Generated_Source\PSoC4/SPI_PM.c ****     #endif /* (SPI_SPI_MASTER_SS3_PIN) */
 449:.\Generated_Source\PSoC4/SPI_PM.c ****     
 450:.\Generated_Source\PSoC4/SPI_PM.c ****     /* SCB mode is SPI Slave */
 451:.\Generated_Source\PSoC4/SPI_PM.c ****     #if(SPI_SPI_SLAVE_PINS)
 452:.\Generated_Source\PSoC4/SPI_PM.c ****         SPI_miso_s_INP_DIS &= (uint32) ~((uint32) SPI_miso_s_MASK);
 453:.\Generated_Source\PSoC4/SPI_PM.c ****     #endif /* (SPI_SPI_SLAVE_PINS) */
 454:.\Generated_Source\PSoC4/SPI_PM.c **** 
 455:.\Generated_Source\PSoC4/SPI_PM.c ****     /* SCB mode is UART */
 456:.\Generated_Source\PSoC4/SPI_PM.c ****     #if(SPI_UART_TX_PIN)
 457:.\Generated_Source\PSoC4/SPI_PM.c ****         SPI_tx_INP_DIS &= (uint32) ~((uint32) SPI_tx_MASK);
 458:.\Generated_Source\PSoC4/SPI_PM.c ****     #endif /* (SPI_UART_TX_PIN) */
 459:.\Generated_Source\PSoC4/SPI_PM.c **** 
 460:.\Generated_Source\PSoC4/SPI_PM.c **** #endif /* (SPI_SCB_MODE_UNCONFIG_CONST_CFG) */
 461:.\Generated_Source\PSoC4/SPI_PM.c **** }
 127              		.loc 1 461 0
 128              		@ sp needed for prologue
 430:.\Generated_Source\PSoC4/SPI_PM.c ****         SPI_mosi_m_INP_DIS &= (uint32) ~((uint32) SPI_mosi_m_MASK);
 129              		.loc 1 430 0
 130 000e 1168     		ldr	r1, [r2]
 131 0010 8143     		bic	r1, r0
 132 0012 1160     		str	r1, [r2]
 431:.\Generated_Source\PSoC4/SPI_PM.c ****         SPI_miso_m_INP_DIS &= (uint32) ~((uint32) SPI_miso_m_MASK);
 133              		.loc 1 431 0
 134 0014 1168     		ldr	r1, [r2]
 135 0016 0220     		mov	r0, #2
 136 0018 8143     		bic	r1, r0
 137 001a 1160     		str	r1, [r2]
 435:.\Generated_Source\PSoC4/SPI_PM.c ****         SPI_ss0_m_INP_DIS &= (uint32) ~((uint32) SPI_ss0_m_MASK);
 138              		.loc 1 435 0
 139 001c 1A68     		ldr	r2, [r3]
 140 001e 8021     		mov	r1, #128
 141 0020 8A43     		bic	r2, r1
 142 0022 1A60     		str	r2, [r3]
 143              		.loc 1 461 0
 144 0024 7047     		bx	lr
 145              	.L14:
 146 0026 C046     		.align	2
 147              	.L13:
 148 0028 18000440 		.word	1074003992
 149 002c 18030440 		.word	1074004760
 150              		.cfi_endproc
 151              	.LFE3:
 152              		.size	SPI_EnableTxPinsInputBuffer, .-SPI_EnableTxPinsInputBuffer
ARM GAS  C:\Users\atsu\AppData\Local\Temp\ccEvF9WH.s 			page 12


 153              		.section	.text.SPI_Wakeup,"ax",%progbits
 154              		.align	1
 155              		.global	SPI_Wakeup
 156              		.code	16
 157              		.thumb_func
 158              		.type	SPI_Wakeup, %function
 159              	SPI_Wakeup:
 160              	.LFB1:
 144:.\Generated_Source\PSoC4/SPI_PM.c **** {
 161              		.loc 1 144 0
 162              		.cfi_startproc
 163 0000 08B5     		push	{r3, lr}
 164              	.LCFI1:
 165              		.cfi_def_cfa_offset 8
 166              		.cfi_offset 3, -8
 167              		.cfi_offset 14, -4
 183:.\Generated_Source\PSoC4/SPI_PM.c ****     SPI_EnableTxPinsInputBuffer();
 168              		.loc 1 183 0
 169 0002 FFF7FEFF 		bl	SPI_EnableTxPinsInputBuffer
 170              	.LVL2:
 199:.\Generated_Source\PSoC4/SPI_PM.c ****         if(0u != SPI_backup.enableState)
 171              		.loc 1 199 0
 172 0006 034B     		ldr	r3, .L20
 173 0008 1878     		ldrb	r0, [r3]
 174 000a 0028     		cmp	r0, #0
 175 000c 01D0     		beq	.L15
 201:.\Generated_Source\PSoC4/SPI_PM.c ****             SPI_Enable();
 176              		.loc 1 201 0
 177 000e FFF7FEFF 		bl	SPI_Enable
 178              	.LVL3:
 179              	.L15:
 207:.\Generated_Source\PSoC4/SPI_PM.c **** }
 180              		.loc 1 207 0
 181              		@ sp needed for prologue
 182 0012 08BD     		pop	{r3, pc}
 183              	.L21:
 184              		.align	2
 185              	.L20:
 186 0014 00000000 		.word	.LANCHOR0
 187              		.cfi_endproc
 188              	.LFE1:
 189              		.size	SPI_Wakeup, .-SPI_Wakeup
 190              		.global	SPI_backup
 191              		.bss
 192              		.set	.LANCHOR0,. + 0
 193              		.type	SPI_backup, %object
 194              		.size	SPI_backup, 1
 195              	SPI_backup:
 196 0000 00       		.space	1
 197              		.text
 198              	.Letext0:
 199              		.file 2 ".\\Generated_Source\\PSoC4\\cytypes.h"
 200              		.file 3 ".\\Generated_Source\\PSoC4\\SPI.h"