ARM GAS  C:\Users\atsu\AppData\Local\Temp\ccR59m8r.s 			page 1


   1              		.cpu cortex-m0
   2              		.fpu softvfp
   3              		.eabi_attribute 20, 1
   4              		.eabi_attribute 21, 1
   5              		.eabi_attribute 23, 3
   6              		.eabi_attribute 24, 1
   7              		.eabi_attribute 25, 1
   8              		.eabi_attribute 26, 1
   9              		.eabi_attribute 30, 4
  10              		.eabi_attribute 34, 0
  11              		.eabi_attribute 18, 4
  12              		.code	16
  13              		.file	"util.c"
  14              		.text
  15              	.Ltext0:
  16              		.cfi_sections	.debug_frame
  17              		.section	.text.Set_network,"ax",%progbits
  18              		.align	1
  19              		.global	Set_network
  20              		.code	16
  21              		.thumb_func
  22              		.type	Set_network, %function
  23              	Set_network:
  24              	.LFB0:
  25              		.file 1 ".\\util.c"
   1:.\util.c      **** #include "config.h"
   2:.\util.c      **** #include "util.h"
   3:.\util.c      **** #include "w5200.h"
   4:.\util.c      **** #include <stdio.h>
   5:.\util.c      **** #include <stdarg.h>
   6:.\util.c      **** 
   7:.\util.c      **** extern CONFIG_MSG Config_Msg;
   8:.\util.c      **** extern CHCONFIG_TYPE_DEF Chconfig_Type_Def; 
   9:.\util.c      **** 
  10:.\util.c      **** extern uint8_t txsize[MAX_SOCK_NUM];
  11:.\util.c      **** extern uint8_t rxsize[MAX_SOCK_NUM];
  12:.\util.c      **** 
  13:.\util.c      **** extern uint8_t MAC[6];
  14:.\util.c      **** extern uint8_t IP[4];
  15:.\util.c      **** extern uint8_t GateWay[4];
  16:.\util.c      **** extern uint8_t SubNet[4];
  17:.\util.c      **** extern uint8_t Enable_DHCP;
  18:.\util.c      **** extern uint8_t Dest_IP[4] ;
  19:.\util.c      **** extern uint16_t Dest_PORT ;
  20:.\util.c      **** 
  21:.\util.c      **** void Set_network(void)
  22:.\util.c      **** {
  26              		.loc 1 22 0
  27              		.cfi_startproc
  28              	.LVL0:
  29 0000 13B5     		push	{r0, r1, r4, lr}
  30              	.LCFI0:
  31              		.cfi_def_cfa_offset 16
  32              		.cfi_offset 0, -16
  33              		.cfi_offset 1, -12
  34              		.cfi_offset 4, -8
  35              		.cfi_offset 14, -4
ARM GAS  C:\Users\atsu\AppData\Local\Temp\ccR59m8r.s 			page 2


  36              		.loc 1 22 0
  37 0002 0023     		mov	r3, #0
  38              	.LVL1:
  39              	.L2:
  23:.\util.c      ****         uint8_t tmp_array[6];       
  24:.\util.c      ****         uint8_t i;
  25:.\util.c      ****         
  26:.\util.c      ****         // MAC ADDRESS
  27:.\util.c      ****         for (i = 0 ; i < 6; i++) Config_Msg.Mac[i] = MAC[i];
  40              		.loc 1 27 0 discriminator 2
  41 0004 294A     		ldr	r2, .L5
  42 0006 2A4C     		ldr	r4, .L5+4
  43 0008 D05C     		ldrb	r0, [r2, r3]
  44 000a E054     		strb	r0, [r4, r3]
  45 000c 0133     		add	r3, r3, #1
  46 000e 062B     		cmp	r3, #6
  47 0010 F8D1     		bne	.L2
  28:.\util.c      ****         // Local IP ADDRESS
  29:.\util.c      ****         Config_Msg.Lip[0] = IP[0]; Config_Msg.Lip[1] = IP[1]; Config_Msg.Lip[2] = IP[2]; Config_Msg
  48              		.loc 1 29 0
  49 0012 2849     		ldr	r1, .L5+8
  30:.\util.c      ****         // GateWay ADDRESS
  31:.\util.c      ****         Config_Msg.Gw[0] = GateWay[0]; Config_Msg.Gw[1] = GateWay[1]; Config_Msg.Gw[2] = GateWay[2]
  32:.\util.c      ****         // Subnet Mask ADDRESS
  33:.\util.c      ****         Config_Msg.Sub[0] = SubNet[0]; Config_Msg.Sub[1] = SubNet[1]; Config_Msg.Sub[2] = SubNet[2]
  34:.\util.c      ****         
  35:.\util.c      ****         setSHAR(Config_Msg.Mac);
  36:.\util.c      **** //        setSUBR(Config_Msg.Sub);
  37:.\util.c      ****         saveSUBR(Config_Msg.Sub);
  38:.\util.c      ****         setGAR(Config_Msg.Gw);
  39:.\util.c      ****         setSIPR(Config_Msg.Lip);
  40:.\util.c      **** 
  41:.\util.c      ****         // Set DHCP
  42:.\util.c      ****         Config_Msg.DHCP = Enable_DHCP;    
  43:.\util.c      ****         //Destination IP address for TCP Client
  44:.\util.c      ****         Chconfig_Type_Def.destip[0] = Dest_IP[0]; Chconfig_Type_Def.destip[1] = Dest_IP[1];
  45:.\util.c      ****         Chconfig_Type_Def.destip[2] = Dest_IP[2]; Chconfig_Type_Def.destip[3] = Dest_IP[3];
  46:.\util.c      ****         Chconfig_Type_Def.port = Dest_PORT;
  47:.\util.c      **** 
  48:.\util.c      ****         //Set PTR and RCR register	
  49:.\util.c      ****         setRTR(6000);
  50:.\util.c      ****         setRCR(3);
  51:.\util.c      **** 
  52:.\util.c      ****         //Init. TX & RX Memory size
  53:.\util.c      ****         sysinit(txsize, rxsize); 
  54:.\util.c      ****         
  55:.\util.c      ****         // printf("\r\n----------------------------------------- \r\n");         		
  56:.\util.c      ****         // printf("W5200E01-M3                       \r\n");        
  57:.\util.c      ****         // printf("Network Configuration Information \r\n");        
  58:.\util.c      ****         // printf("----------------------------------------- ");         		
  59:.\util.c      ****         
  60:.\util.c      ****         // printf("\r\nMAC : %.2X.%.2X.%.2X.%.2X.%.2X.%.2X", IINCHIP_READ(SHAR0+0),IINCHIP_READ(SHA
  61:.\util.c      **** //                                                                                                 
  62:.\util.c      ****         
  63:.\util.c      ****         getSIPR (tmp_array);
  64:.\util.c      ****         // printf("\r\nIP : %d.%d.%d.%d", tmp_array[0],tmp_array[1],tmp_array[2],tmp_array[3]);
  65:.\util.c      ****         
ARM GAS  C:\Users\atsu\AppData\Local\Temp\ccR59m8r.s 			page 3


  66:.\util.c      ****         getSUBR(tmp_array);
  67:.\util.c      ****         // printf("\r\nSN : %d.%d.%d.%d", tmp_array[0],tmp_array[1],tmp_array[2],tmp_array[3]);
  68:.\util.c      ****         
  69:.\util.c      ****         getGAR(tmp_array);
  70:.\util.c      ****         // printf("\r\nGW : %d.%d.%d.%d", tmp_array[0],tmp_array[1],tmp_array[2],tmp_array[3]);
  71:.\util.c      **** }
  50              		.loc 1 71 0
  51              		@ sp needed for prologue
  29:.\util.c      ****         Config_Msg.Lip[0] = IP[0]; Config_Msg.Lip[1] = IP[1]; Config_Msg.Lip[2] = IP[2]; Config_Msg
  52              		.loc 1 29 0
  53 0014 0B78     		ldrb	r3, [r1]
  54 0016 A371     		strb	r3, [r4, #6]
  55 0018 4A78     		ldrb	r2, [r1, #1]
  31:.\util.c      ****         Config_Msg.Gw[0] = GateWay[0]; Config_Msg.Gw[1] = GateWay[1]; Config_Msg.Gw[2] = GateWay[2]
  56              		.loc 1 31 0
  57 001a 274B     		ldr	r3, .L5+12
  29:.\util.c      ****         Config_Msg.Lip[0] = IP[0]; Config_Msg.Lip[1] = IP[1]; Config_Msg.Lip[2] = IP[2]; Config_Msg
  58              		.loc 1 29 0
  59 001c E271     		strb	r2, [r4, #7]
  60 001e 8878     		ldrb	r0, [r1, #2]
  61 0020 2072     		strb	r0, [r4, #8]
  62 0022 C978     		ldrb	r1, [r1, #3]
  63 0024 6172     		strb	r1, [r4, #9]
  31:.\util.c      ****         Config_Msg.Gw[0] = GateWay[0]; Config_Msg.Gw[1] = GateWay[1]; Config_Msg.Gw[2] = GateWay[2]
  64              		.loc 1 31 0
  65 0026 1A78     		ldrb	r2, [r3]
  66 0028 A273     		strb	r2, [r4, #14]
  67 002a 5878     		ldrb	r0, [r3, #1]
  68 002c E073     		strb	r0, [r4, #15]
  69 002e 9978     		ldrb	r1, [r3, #2]
  33:.\util.c      ****         Config_Msg.Sub[0] = SubNet[0]; Config_Msg.Sub[1] = SubNet[1]; Config_Msg.Sub[2] = SubNet[2]
  70              		.loc 1 33 0
  71 0030 2248     		ldr	r0, .L5+16
  31:.\util.c      ****         Config_Msg.Gw[0] = GateWay[0]; Config_Msg.Gw[1] = GateWay[1]; Config_Msg.Gw[2] = GateWay[2]
  72              		.loc 1 31 0
  73 0032 2174     		strb	r1, [r4, #16]
  74 0034 DB78     		ldrb	r3, [r3, #3]
  75 0036 6374     		strb	r3, [r4, #17]
  33:.\util.c      ****         Config_Msg.Sub[0] = SubNet[0]; Config_Msg.Sub[1] = SubNet[1]; Config_Msg.Sub[2] = SubNet[2]
  76              		.loc 1 33 0
  77 0038 0278     		ldrb	r2, [r0]
  78 003a A272     		strb	r2, [r4, #10]
  79 003c 4178     		ldrb	r1, [r0, #1]
  80 003e E172     		strb	r1, [r4, #11]
  81 0040 8378     		ldrb	r3, [r0, #2]
  82 0042 2373     		strb	r3, [r4, #12]
  83 0044 C078     		ldrb	r0, [r0, #3]
  84 0046 6073     		strb	r0, [r4, #13]
  35:.\util.c      ****         setSHAR(Config_Msg.Mac);
  85              		.loc 1 35 0
  86 0048 201C     		mov	r0, r4
  87 004a FFF7FEFF 		bl	setSHAR
  88              	.LVL2:
  37:.\util.c      ****         saveSUBR(Config_Msg.Sub);
  89              		.loc 1 37 0
  90 004e 201C     		mov	r0, r4
  91 0050 0A30     		add	r0, r0, #10
ARM GAS  C:\Users\atsu\AppData\Local\Temp\ccR59m8r.s 			page 4


  92 0052 FFF7FEFF 		bl	saveSUBR
  93              	.LVL3:
  38:.\util.c      ****         setGAR(Config_Msg.Gw);
  94              		.loc 1 38 0
  95 0056 201C     		mov	r0, r4
  96 0058 0E30     		add	r0, r0, #14
  97 005a FFF7FEFF 		bl	setGAR
  98              	.LVL4:
  39:.\util.c      ****         setSIPR(Config_Msg.Lip);
  99              		.loc 1 39 0
 100 005e A01D     		add	r0, r4, #6
 101 0060 FFF7FEFF 		bl	setSIPR
 102              	.LVL5:
  42:.\util.c      ****         Config_Msg.DHCP = Enable_DHCP;    
 103              		.loc 1 42 0
 104 0064 164A     		ldr	r2, .L5+20
  44:.\util.c      ****         Chconfig_Type_Def.destip[0] = Dest_IP[0]; Chconfig_Type_Def.destip[1] = Dest_IP[1];
 105              		.loc 1 44 0
 106 0066 174B     		ldr	r3, .L5+24
  42:.\util.c      ****         Config_Msg.DHCP = Enable_DHCP;    
 107              		.loc 1 42 0
 108 0068 1178     		ldrb	r1, [r2]
 109 006a A175     		strb	r1, [r4, #22]
  44:.\util.c      ****         Chconfig_Type_Def.destip[0] = Dest_IP[0]; Chconfig_Type_Def.destip[1] = Dest_IP[1];
 110              		.loc 1 44 0
 111 006c 1878     		ldrb	r0, [r3]
 112 006e 164C     		ldr	r4, .L5+28
 113 0070 A070     		strb	r0, [r4, #2]
 114 0072 5A78     		ldrb	r2, [r3, #1]
  46:.\util.c      ****         Chconfig_Type_Def.port = Dest_PORT;
 115              		.loc 1 46 0
 116 0074 1548     		ldr	r0, .L5+32
  44:.\util.c      ****         Chconfig_Type_Def.destip[0] = Dest_IP[0]; Chconfig_Type_Def.destip[1] = Dest_IP[1];
 117              		.loc 1 44 0
 118 0076 E270     		strb	r2, [r4, #3]
  45:.\util.c      ****         Chconfig_Type_Def.destip[2] = Dest_IP[2]; Chconfig_Type_Def.destip[3] = Dest_IP[3];
 119              		.loc 1 45 0
 120 0078 9978     		ldrb	r1, [r3, #2]
  46:.\util.c      ****         Chconfig_Type_Def.port = Dest_PORT;
 121              		.loc 1 46 0
 122 007a 0288     		ldrh	r2, [r0]
  45:.\util.c      ****         Chconfig_Type_Def.destip[2] = Dest_IP[2]; Chconfig_Type_Def.destip[3] = Dest_IP[3];
 123              		.loc 1 45 0
 124 007c 2171     		strb	r1, [r4, #4]
 125 007e DB78     		ldrb	r3, [r3, #3]
  49:.\util.c      ****         setRTR(6000);
 126              		.loc 1 49 0
 127 0080 1348     		ldr	r0, .L5+36
  45:.\util.c      ****         Chconfig_Type_Def.destip[2] = Dest_IP[2]; Chconfig_Type_Def.destip[3] = Dest_IP[3];
 128              		.loc 1 45 0
 129 0082 6371     		strb	r3, [r4, #5]
  46:.\util.c      ****         Chconfig_Type_Def.port = Dest_PORT;
 130              		.loc 1 46 0
 131 0084 2280     		strh	r2, [r4]
  49:.\util.c      ****         setRTR(6000);
 132              		.loc 1 49 0
 133 0086 FFF7FEFF 		bl	setRTR
ARM GAS  C:\Users\atsu\AppData\Local\Temp\ccR59m8r.s 			page 5


 134              	.LVL6:
  50:.\util.c      ****         setRCR(3);
 135              		.loc 1 50 0
 136 008a 0320     		mov	r0, #3
 137 008c FFF7FEFF 		bl	setRCR
 138              	.LVL7:
  53:.\util.c      ****         sysinit(txsize, rxsize); 
 139              		.loc 1 53 0
 140 0090 1049     		ldr	r1, .L5+40
 141 0092 1148     		ldr	r0, .L5+44
 142 0094 FFF7FEFF 		bl	sysinit
 143              	.LVL8:
  63:.\util.c      ****         getSIPR (tmp_array);
 144              		.loc 1 63 0
 145 0098 6846     		mov	r0, sp
 146 009a FFF7FEFF 		bl	getSIPR
 147              	.LVL9:
  66:.\util.c      ****         getSUBR(tmp_array);
 148              		.loc 1 66 0
 149 009e 6846     		mov	r0, sp
 150 00a0 FFF7FEFF 		bl	getSUBR
 151              	.LVL10:
  69:.\util.c      ****         getGAR(tmp_array);
 152              		.loc 1 69 0
 153 00a4 6846     		mov	r0, sp
 154 00a6 FFF7FEFF 		bl	getGAR
 155              	.LVL11:
 156              		.loc 1 71 0
 157 00aa 13BD     		pop	{r0, r1, r4, pc}
 158              	.L6:
 159              		.align	2
 160              	.L5:
 161 00ac 00000000 		.word	MAC
 162 00b0 00000000 		.word	Config_Msg
 163 00b4 00000000 		.word	IP
 164 00b8 00000000 		.word	GateWay
 165 00bc 00000000 		.word	SubNet
 166 00c0 00000000 		.word	Enable_DHCP
 167 00c4 00000000 		.word	Dest_IP
 168 00c8 00000000 		.word	Chconfig_Type_Def
 169 00cc 00000000 		.word	Dest_PORT
 170 00d0 70170000 		.word	6000
 171 00d4 00000000 		.word	rxsize
 172 00d8 00000000 		.word	txsize
 173              		.cfi_endproc
 174              	.LFE0:
 175              		.size	Set_network, .-Set_network
 176              		.section	.text.Reset_W5200,"ax",%progbits
 177              		.align	1
 178              		.global	Reset_W5200
 179              		.code	16
 180              		.thumb_func
 181              		.type	Reset_W5200, %function
 182              	Reset_W5200:
 183              	.LFB1:
  72:.\util.c      **** 
  73:.\util.c      **** 
ARM GAS  C:\Users\atsu\AppData\Local\Temp\ccR59m8r.s 			page 6


  74:.\util.c      **** 
  75:.\util.c      **** void Reset_W5200(void)
  76:.\util.c      **** {
 184              		.loc 1 76 0
 185              		.cfi_startproc
 186 0000 08B5     		push	{r3, lr}
 187              	.LCFI1:
 188              		.cfi_def_cfa_offset 8
 189              		.cfi_offset 3, -8
 190              		.cfi_offset 14, -4
  77:.\util.c      **** //todo: write reset procedure    
  78:.\util.c      **** //	GPIO_ResetBits(GPIOB, WIZ_RESET);
  79:.\util.c      **** //	Delay_us(2);  
  80:.\util.c      **** //	GPIO_SetBits(GPIOB, WIZ_RESET);
  81:.\util.c      **** 	wait_delay_ms(150);  
 191              		.loc 1 81 0
 192 0002 9620     		mov	r0, #150
 193 0004 FFF7FEFF 		bl	wait_delay_ms
 194              	.LVL12:
  82:.\util.c      **** }
 195              		.loc 1 82 0
 196              		@ sp needed for prologue
 197 0008 08BD     		pop	{r3, pc}
 198              		.cfi_endproc
 199              	.LFE1:
 200              		.size	Reset_W5200, .-Reset_W5200
 201              		.section	.text.LED3_onoff,"ax",%progbits
 202              		.align	1
 203              		.global	LED3_onoff
 204              		.code	16
 205              		.thumb_func
 206              		.type	LED3_onoff, %function
 207              	LED3_onoff:
 208              	.LFB2:
  83:.\util.c      **** 
  84:.\util.c      **** 
  85:.\util.c      **** void LED3_onoff(uint8_t on_off)
  86:.\util.c      **** {
 209              		.loc 1 86 0
 210              		.cfi_startproc
 211              	.LVL13:
  87:.\util.c      **** //	if (on_off == ON) {
  88:.\util.c      **** //		GPIO_ResetBits(GPIOA, LED3); // LED on
  89:.\util.c      **** //	}else {
  90:.\util.c      **** //		GPIO_SetBits(GPIOA, LED3); // LED off
  91:.\util.c      **** //	}
  92:.\util.c      **** }
 212              		.loc 1 92 0
 213              		@ sp needed for prologue
 214 0000 7047     		bx	lr
 215              		.cfi_endproc
 216              	.LFE2:
 217              		.size	LED3_onoff, .-LED3_onoff
 218              		.section	.text.LED4_onoff,"ax",%progbits
 219              		.align	1
 220              		.global	LED4_onoff
 221              		.code	16
ARM GAS  C:\Users\atsu\AppData\Local\Temp\ccR59m8r.s 			page 7


 222              		.thumb_func
 223              		.type	LED4_onoff, %function
 224              	LED4_onoff:
 225              	.LFB3:
  93:.\util.c      **** 
  94:.\util.c      **** void LED4_onoff(uint8_t on_off)
  95:.\util.c      **** {
 226              		.loc 1 95 0
 227              		.cfi_startproc
 228              	.LVL14:
  96:.\util.c      **** //	if (on_off == ON) {
  97:.\util.c      **** //		GPIO_ResetBits(GPIOA, LED4); // LED on
  98:.\util.c      **** //	}else {
  99:.\util.c      **** //		GPIO_SetBits(GPIOA, LED4); // LED off
 100:.\util.c      **** //	}
 101:.\util.c      **** }
 229              		.loc 1 101 0
 230              		@ sp needed for prologue
 231 0000 7047     		bx	lr
 232              		.cfi_endproc
 233              	.LFE3:
 234              		.size	LED4_onoff, .-LED4_onoff
 235              		.section	.text.USART1_Init,"ax",%progbits
 236              		.align	1
 237              		.global	USART1_Init
 238              		.code	16
 239              		.thumb_func
 240              		.type	USART1_Init, %function
 241              	USART1_Init:
 242              	.LFB4:
 102:.\util.c      **** 
 103:.\util.c      **** void USART1_Init(void)
 104:.\util.c      **** {
 243              		.loc 1 104 0
 244              		.cfi_startproc
 105:.\util.c      **** //USART_InitTypeDef USART_InitStructure;
 106:.\util.c      **** //
 107:.\util.c      **** ///* USARTx configuration ------------------------------------------------------*/
 108:.\util.c      **** //  /* USARTx configured as follow:
 109:.\util.c      **** //        - BaudRate = 115200 baud  
 110:.\util.c      **** //        - Word Length = 8 Bits
 111:.\util.c      **** //        - One Stop Bit
 112:.\util.c      **** //        - No parity
 113:.\util.c      **** //        - Hardware flow control disabled (RTS and CTS signals)
 114:.\util.c      **** //        - Receive and transmit enabled
 115:.\util.c      **** //  */
 116:.\util.c      **** //  USART_InitStructure.USART_BaudRate = 115200;
 117:.\util.c      **** //  USART_InitStructure.USART_WordLength = USART_WordLength_8b;
 118:.\util.c      **** //  USART_InitStructure.USART_StopBits = USART_StopBits_1;
 119:.\util.c      **** //  USART_InitStructure.USART_Parity = USART_Parity_No ;
 120:.\util.c      **** //  USART_InitStructure.USART_HardwareFlowControl = USART_HardwareFlowControl_None;
 121:.\util.c      **** //  USART_InitStructure.USART_Mode = USART_Mode_Rx | USART_Mode_Tx;
 122:.\util.c      **** //  
 123:.\util.c      **** //  /* Configure the USARTx */ 
 124:.\util.c      **** //  USART_Init(USART1, &USART_InitStructure);
 125:.\util.c      **** //  /* Enable the USARTx */
 126:.\util.c      **** //  USART_Cmd(USART1, ENABLE);
ARM GAS  C:\Users\atsu\AppData\Local\Temp\ccR59m8r.s 			page 8


 127:.\util.c      **** 
 128:.\util.c      **** 
 129:.\util.c      **** }
 245              		.loc 1 129 0
 246              		@ sp needed for prologue
 247 0000 7047     		bx	lr
 248              		.cfi_endproc
 249              	.LFE4:
 250              		.size	USART1_Init, .-USART1_Init
 251              		.section	.text.time_return,"ax",%progbits
 252              		.align	1
 253              		.global	time_return
 254              		.code	16
 255              		.thumb_func
 256              		.type	time_return, %function
 257              	time_return:
 258              	.LFB5:
 130:.\util.c      **** 
 131:.\util.c      **** 
 132:.\util.c      **** /*******************************************************************************
 133:.\util.c      **** * Function Name  : Delay_us
 134:.\util.c      **** * Description    : Delay per micro second.
 135:.\util.c      **** * Input          : time_us
 136:.\util.c      **** * Output         : None
 137:.\util.c      **** * Return         : None
 138:.\util.c      **** *******************************************************************************/
 139:.\util.c      **** //
 140:.\util.c      **** //void Delay_us( u8 time_us )
 141:.\util.c      **** //{
 142:.\util.c      **** //  register u8 i;
 143:.\util.c      **** //  register u8 j;
 144:.\util.c      **** //  for( i=0;i<time_us;i++ )    
 145:.\util.c      **** //  {
 146:.\util.c      **** //    for( j=0;j<5;j++ )          // 25CLK
 147:.\util.c      **** //    {
 148:.\util.c      **** //      asm("nop");       //1CLK         
 149:.\util.c      **** //      asm("nop");       //1CLK         
 150:.\util.c      **** //      asm("nop");       //1CLK         
 151:.\util.c      **** //      asm("nop");       //1CLK         
 152:.\util.c      **** //      asm("nop");       //1CLK                  
 153:.\util.c      **** //    }      
 154:.\util.c      **** //  }                              // 25CLK*0.04us=1us
 155:.\util.c      **** //}
 156:.\util.c      **** 
 157:.\util.c      **** 
 158:.\util.c      **** 
 159:.\util.c      **** /*******************************************************************************
 160:.\util.c      **** * Function Name  : PUTCHAR_PROTOTYPE
 161:.\util.c      **** * Description    : Retargets the C library // printf function to the USART.
 162:.\util.c      **** * Input          : None
 163:.\util.c      **** * Output         : None
 164:.\util.c      **** * Return         : None
 165:.\util.c      **** *******************************************************************************/
 166:.\util.c      **** /*
 167:.\util.c      **** PUTCHAR_PROTOTYPE
 168:.\util.c      **** {
 169:.\util.c      ****   // Write a character to the USART
ARM GAS  C:\Users\atsu\AppData\Local\Temp\ccR59m8r.s 			page 9


 170:.\util.c      ****   USART_SendData(USART1, (uint8_t) ch);
 171:.\util.c      **** 
 172:.\util.c      ****   //  Loop until the end of transmission 
 173:.\util.c      ****   while(USART_GetFlagStatus(USART1, USART_FLAG_TXE) == RESET)
 174:.\util.c      ****   {
 175:.\util.c      ****   }
 176:.\util.c      **** 
 177:.\util.c      ****   return ch;
 178:.\util.c      **** }
 179:.\util.c      **** */
 180:.\util.c      **** 
 181:.\util.c      **** //int putchar(int ch)
 182:.\util.c      **** //{
 183:.\util.c      **** //  // Write a character to the USART
 184:.\util.c      **** //  USART_SendData(USART1, (uint8_t) ch);
 185:.\util.c      **** //
 186:.\util.c      **** //  //  Loop until the end of transmission 
 187:.\util.c      **** //  while(USART_GetFlagStatus(USART1, USART_FLAG_TXE) == RESET)
 188:.\util.c      **** //  {
 189:.\util.c      **** //  }
 190:.\util.c      **** //
 191:.\util.c      **** //  return ch;
 192:.\util.c      **** //}
 193:.\util.c      **** //
 194:.\util.c      **** //int getchar(void)
 195:.\util.c      **** //{
 196:.\util.c      **** //  int ch;
 197:.\util.c      **** //
 198:.\util.c      **** //	while(USART_GetFlagStatus(USART1, USART_FLAG_RXNE) == RESET){
 199:.\util.c      **** //	}
 200:.\util.c      **** //
 201:.\util.c      **** //	ch = USART_ReceiveData(USART1);
 202:.\util.c      **** //
 203:.\util.c      **** //  return ch;
 204:.\util.c      **** //}
 205:.\util.c      **** 
 206:.\util.c      **** /*******************************************************************************
 207:.\util.c      **** * Function Name  : time_return
 208:.\util.c      **** * Description    :  
 209:.\util.c      **** * Input          : None
 210:.\util.c      **** * Output         : None
 211:.\util.c      **** * Return         : None
 212:.\util.c      **** *******************************************************************************/
 213:.\util.c      **** 
 214:.\util.c      **** uint32_t time_return(void) 
 215:.\util.c      **** {
 259              		.loc 1 215 0
 260              		.cfi_startproc
 216:.\util.c      ****   extern uint32_t my_time; 
 217:.\util.c      ****   return my_time;
 261              		.loc 1 217 0
 262 0000 014B     		ldr	r3, .L12
 218:.\util.c      **** }
 263              		.loc 1 218 0
 264              		@ sp needed for prologue
 217:.\util.c      ****   return my_time;
 265              		.loc 1 217 0
ARM GAS  C:\Users\atsu\AppData\Local\Temp\ccR59m8r.s 			page 10


 266 0002 1868     		ldr	r0, [r3]
 267              		.loc 1 218 0
 268 0004 7047     		bx	lr
 269              	.L13:
 270 0006 C046     		.align	2
 271              	.L12:
 272 0008 00000000 		.word	my_time
 273              		.cfi_endproc
 274              	.LFE5:
 275              		.size	time_return, .-time_return
 276              		.text
 277              	.Letext0:
 278              		.file 2 "c:\\program files (x86)\\cypress\\psoc creator\\3.0\\psoc creator\\import\\gnu_cs\\arm\\4
 279              		.file 3 ".\\config.h"
 280              		.file 4 ".\\w5200.h"
 281              		.file 5 ".\\device_depend.h"