ARM GAS  C:\Users\atsu\AppData\Local\Temp\ccDwwNoN.s 			page 1


   1              		.cpu cortex-m0
   2              		.fpu softvfp
   3              		.eabi_attribute 20, 1
   4              		.eabi_attribute 21, 1
   5              		.eabi_attribute 23, 3
   6              		.eabi_attribute 24, 1
   7              		.eabi_attribute 25, 1
   8              		.eabi_attribute 26, 1
   9              		.eabi_attribute 30, 4
  10              		.eabi_attribute 34, 0
  11              		.eabi_attribute 18, 4
  12              		.code	16
  13              		.file	"w5200.c"
  14              		.text
  15              	.Ltext0:
  16              		.cfi_sections	.debug_frame
  17              		.section	.text.incr_windowfull_retry_cnt,"ax",%progbits
  18              		.align	1
  19              		.global	incr_windowfull_retry_cnt
  20              		.code	16
  21              		.thumb_func
  22              		.type	incr_windowfull_retry_cnt, %function
  23              	incr_windowfull_retry_cnt:
  24              	.LFB0:
  25              		.file 1 ".\\w5200.c"
   1:.\w5200.c     **** /*
   2:.\w5200.c     ****  * (c)COPYRIGHT
   3:.\w5200.c     ****  * ALL RIGHT RESERVED
   4:.\w5200.c     ****  *
   5:.\w5200.c     ****  * FileName : w5200.c
   6:.\w5200.c     ****   * -----------------------------------------------------------------
   7:.\w5200.c     ****  */
   8:.\w5200.c     **** #include <stdio.h>
   9:.\w5200.c     **** #include <string.h>
  10:.\w5200.c     **** #include "config.h"
  11:.\w5200.c     **** #include "device_depend.h"		
  12:.\w5200.c     **** #include "w5200.h"
  13:.\w5200.c     **** #include "socket.h"
  14:.\w5200.c     **** 
  15:.\w5200.c     **** #ifdef __DEF_IINCHIP_PPP__
  16:.\w5200.c     ****    #include "md5.h"
  17:.\w5200.c     **** #endif
  18:.\w5200.c     **** 
  19:.\w5200.c     **** static uint8_t I_STATUS[MAX_SOCK_NUM];
  20:.\w5200.c     **** static uint16_t SMASK[MAX_SOCK_NUM]; /**< Variable for Tx buffer MASK in each channel */
  21:.\w5200.c     **** static uint16_t RMASK[MAX_SOCK_NUM]; /**< Variable for Rx buffer MASK in each channel */
  22:.\w5200.c     **** static uint16_t SSIZE[MAX_SOCK_NUM]; /**< Max Tx buffer size by each channel */
  23:.\w5200.c     **** static uint16_t RSIZE[MAX_SOCK_NUM]; /**< Max Rx buffer size by each channel */
  24:.\w5200.c     **** static uint16_t SBUFBASEADDRESS[MAX_SOCK_NUM]; /**< Tx buffer base address by each channel */
  25:.\w5200.c     **** static uint16_t RBUFBASEADDRESS[MAX_SOCK_NUM]; /**< Rx buffer base address by each channel */
  26:.\w5200.c     **** static uint8_t SUBNET[4];
  27:.\w5200.c     **** static uint8_t IPVAL[4];
  28:.\w5200.c     **** 
  29:.\w5200.c     **** uint8_t windowfull_retry_cnt[MAX_SOCK_NUM];
  30:.\w5200.c     **** 
  31:.\w5200.c     **** uint8_t incr_windowfull_retry_cnt(uint8_t s)
  32:.\w5200.c     **** {
ARM GAS  C:\Users\atsu\AppData\Local\Temp\ccDwwNoN.s 			page 2


  26              		.loc 1 32 0
  27              		.cfi_startproc
  28              	.LVL0:
  33:.\w5200.c     ****   return windowfull_retry_cnt[s]++;
  29              		.loc 1 33 0
  30 0000 024A     		ldr	r2, .L2
  34:.\w5200.c     **** }
  31              		.loc 1 34 0
  32              		@ sp needed for prologue
  33:.\w5200.c     ****   return windowfull_retry_cnt[s]++;
  33              		.loc 1 33 0
  34 0002 135C     		ldrb	r3, [r2, r0]
  35 0004 591C     		add	r1, r3, #1
  36 0006 1154     		strb	r1, [r2, r0]
  37              		.loc 1 34 0
  38 0008 181C     		mov	r0, r3
  39              	.LVL1:
  40 000a 7047     		bx	lr
  41              	.L3:
  42              		.align	2
  43              	.L2:
  44 000c 00000000 		.word	windowfull_retry_cnt
  45              		.cfi_endproc
  46              	.LFE0:
  47              		.size	incr_windowfull_retry_cnt, .-incr_windowfull_retry_cnt
  48              		.section	.text.init_windowfull_retry_cnt,"ax",%progbits
  49              		.align	1
  50              		.global	init_windowfull_retry_cnt
  51              		.code	16
  52              		.thumb_func
  53              		.type	init_windowfull_retry_cnt, %function
  54              	init_windowfull_retry_cnt:
  55              	.LFB1:
  35:.\w5200.c     **** 
  36:.\w5200.c     **** void init_windowfull_retry_cnt(uint8_t s)
  37:.\w5200.c     **** {
  56              		.loc 1 37 0
  57              		.cfi_startproc
  58              	.LVL2:
  38:.\w5200.c     ****   windowfull_retry_cnt[s] = 0;
  59              		.loc 1 38 0
  60 0000 014B     		ldr	r3, .L5
  61 0002 0022     		mov	r2, #0
  62 0004 1A54     		strb	r2, [r3, r0]
  39:.\w5200.c     **** }
  63              		.loc 1 39 0
  64              		@ sp needed for prologue
  65 0006 7047     		bx	lr
  66              	.L6:
  67              		.align	2
  68              	.L5:
  69 0008 00000000 		.word	windowfull_retry_cnt
  70              		.cfi_endproc
  71              	.LFE1:
  72              		.size	init_windowfull_retry_cnt, .-init_windowfull_retry_cnt
  73              		.section	.text.getISR,"ax",%progbits
  74              		.align	1
ARM GAS  C:\Users\atsu\AppData\Local\Temp\ccDwwNoN.s 			page 3


  75              		.global	getISR
  76              		.code	16
  77              		.thumb_func
  78              		.type	getISR, %function
  79              	getISR:
  80              	.LFB2:
  40:.\w5200.c     **** 
  41:.\w5200.c     **** uint16_t pre_sent_ptr, sent_ptr;
  42:.\w5200.c     **** 
  43:.\w5200.c     **** uint8_t getISR(uint8_t s)
  44:.\w5200.c     **** {
  81              		.loc 1 44 0
  82              		.cfi_startproc
  83              	.LVL3:
  45:.\w5200.c     **** 	return I_STATUS[s];
  84              		.loc 1 45 0
  85 0000 014B     		ldr	r3, .L8
  46:.\w5200.c     **** }
  86              		.loc 1 46 0
  87              		@ sp needed for prologue
  45:.\w5200.c     **** 	return I_STATUS[s];
  88              		.loc 1 45 0
  89 0002 185C     		ldrb	r0, [r3, r0]
  90              	.LVL4:
  91              		.loc 1 46 0
  92 0004 7047     		bx	lr
  93              	.L9:
  94 0006 C046     		.align	2
  95              	.L8:
  96 0008 00000000 		.word	.LANCHOR0
  97              		.cfi_endproc
  98              	.LFE2:
  99              		.size	getISR, .-getISR
 100              		.section	.text.putISR,"ax",%progbits
 101              		.align	1
 102              		.global	putISR
 103              		.code	16
 104              		.thumb_func
 105              		.type	putISR, %function
 106              	putISR:
 107              	.LFB3:
  47:.\w5200.c     **** void putISR(uint8_t s, uint8_t val)
  48:.\w5200.c     **** {
 108              		.loc 1 48 0
 109              		.cfi_startproc
 110              	.LVL5:
  49:.\w5200.c     ****    I_STATUS[s] = val;
 111              		.loc 1 49 0
 112 0000 014B     		ldr	r3, .L11
  50:.\w5200.c     **** }
 113              		.loc 1 50 0
 114              		@ sp needed for prologue
  49:.\w5200.c     ****    I_STATUS[s] = val;
 115              		.loc 1 49 0
 116 0002 1954     		strb	r1, [r3, r0]
 117              		.loc 1 50 0
 118 0004 7047     		bx	lr
ARM GAS  C:\Users\atsu\AppData\Local\Temp\ccDwwNoN.s 			page 4


 119              	.L12:
 120 0006 C046     		.align	2
 121              	.L11:
 122 0008 00000000 		.word	.LANCHOR0
 123              		.cfi_endproc
 124              	.LFE3:
 125              		.size	putISR, .-putISR
 126              		.section	.text.getIINCHIP_RxMAX,"ax",%progbits
 127              		.align	1
 128              		.global	getIINCHIP_RxMAX
 129              		.code	16
 130              		.thumb_func
 131              		.type	getIINCHIP_RxMAX, %function
 132              	getIINCHIP_RxMAX:
 133              	.LFB4:
  51:.\w5200.c     **** uint16_t getIINCHIP_RxMAX(uint8_t s)
  52:.\w5200.c     **** {
 134              		.loc 1 52 0
 135              		.cfi_startproc
 136              	.LVL6:
  53:.\w5200.c     ****    return RSIZE[s];
 137              		.loc 1 53 0
 138 0000 024B     		ldr	r3, .L14
 139 0002 4000     		lsl	r0, r0, #1
 140              	.LVL7:
 141 0004 1918     		add	r1, r3, r0
 142 0006 8888     		ldrh	r0, [r1, #4]
  54:.\w5200.c     **** }
 143              		.loc 1 54 0
 144              		@ sp needed for prologue
 145 0008 7047     		bx	lr
 146              	.L15:
 147 000a C046     		.align	2
 148              	.L14:
 149 000c 00000000 		.word	.LANCHOR0
 150              		.cfi_endproc
 151              	.LFE4:
 152              		.size	getIINCHIP_RxMAX, .-getIINCHIP_RxMAX
 153              		.section	.text.getIINCHIP_TxMAX,"ax",%progbits
 154              		.align	1
 155              		.global	getIINCHIP_TxMAX
 156              		.code	16
 157              		.thumb_func
 158              		.type	getIINCHIP_TxMAX, %function
 159              	getIINCHIP_TxMAX:
 160              	.LFB5:
  55:.\w5200.c     **** uint16_t getIINCHIP_TxMAX(uint8_t s)
  56:.\w5200.c     **** {
 161              		.loc 1 56 0
 162              		.cfi_startproc
 163              	.LVL8:
  57:.\w5200.c     ****    return SSIZE[s];
 164              		.loc 1 57 0
 165 0000 024B     		ldr	r3, .L17
 166 0002 4000     		lsl	r0, r0, #1
 167              	.LVL9:
 168 0004 1918     		add	r1, r3, r0
ARM GAS  C:\Users\atsu\AppData\Local\Temp\ccDwwNoN.s 			page 5


 169 0006 8889     		ldrh	r0, [r1, #12]
  58:.\w5200.c     **** }
 170              		.loc 1 58 0
 171              		@ sp needed for prologue
 172 0008 7047     		bx	lr
 173              	.L18:
 174 000a C046     		.align	2
 175              	.L17:
 176 000c 00000000 		.word	.LANCHOR0
 177              		.cfi_endproc
 178              	.LFE5:
 179              		.size	getIINCHIP_TxMAX, .-getIINCHIP_TxMAX
 180              		.section	.text.getIINCHIP_RxMASK,"ax",%progbits
 181              		.align	1
 182              		.global	getIINCHIP_RxMASK
 183              		.code	16
 184              		.thumb_func
 185              		.type	getIINCHIP_RxMASK, %function
 186              	getIINCHIP_RxMASK:
 187              	.LFB6:
  59:.\w5200.c     **** uint16_t getIINCHIP_RxMASK(uint8_t s)
  60:.\w5200.c     **** {
 188              		.loc 1 60 0
 189              		.cfi_startproc
 190              	.LVL10:
  61:.\w5200.c     ****    return RMASK[s];
 191              		.loc 1 61 0
 192 0000 024B     		ldr	r3, .L20
 193 0002 4000     		lsl	r0, r0, #1
 194              	.LVL11:
 195 0004 1918     		add	r1, r3, r0
 196 0006 888A     		ldrh	r0, [r1, #20]
  62:.\w5200.c     **** }
 197              		.loc 1 62 0
 198              		@ sp needed for prologue
 199 0008 7047     		bx	lr
 200              	.L21:
 201 000a C046     		.align	2
 202              	.L20:
 203 000c 00000000 		.word	.LANCHOR0
 204              		.cfi_endproc
 205              	.LFE6:
 206              		.size	getIINCHIP_RxMASK, .-getIINCHIP_RxMASK
 207              		.section	.text.getIINCHIP_TxMASK,"ax",%progbits
 208              		.align	1
 209              		.global	getIINCHIP_TxMASK
 210              		.code	16
 211              		.thumb_func
 212              		.type	getIINCHIP_TxMASK, %function
 213              	getIINCHIP_TxMASK:
 214              	.LFB7:
  63:.\w5200.c     **** uint16_t getIINCHIP_TxMASK(uint8_t s)
  64:.\w5200.c     **** {
 215              		.loc 1 64 0
 216              		.cfi_startproc
 217              	.LVL12:
  65:.\w5200.c     ****    return SMASK[s];
ARM GAS  C:\Users\atsu\AppData\Local\Temp\ccDwwNoN.s 			page 6


 218              		.loc 1 65 0
 219 0000 024B     		ldr	r3, .L23
 220 0002 4000     		lsl	r0, r0, #1
 221              	.LVL13:
 222 0004 1918     		add	r1, r3, r0
 223 0006 888B     		ldrh	r0, [r1, #28]
  66:.\w5200.c     **** }
 224              		.loc 1 66 0
 225              		@ sp needed for prologue
 226 0008 7047     		bx	lr
 227              	.L24:
 228 000a C046     		.align	2
 229              	.L23:
 230 000c 00000000 		.word	.LANCHOR0
 231              		.cfi_endproc
 232              	.LFE7:
 233              		.size	getIINCHIP_TxMASK, .-getIINCHIP_TxMASK
 234              		.section	.text.getIINCHIP_RxBASE,"ax",%progbits
 235              		.align	1
 236              		.global	getIINCHIP_RxBASE
 237              		.code	16
 238              		.thumb_func
 239              		.type	getIINCHIP_RxBASE, %function
 240              	getIINCHIP_RxBASE:
 241              	.LFB8:
  67:.\w5200.c     **** uint16_t getIINCHIP_RxBASE(uint8_t s)
  68:.\w5200.c     **** {
 242              		.loc 1 68 0
 243              		.cfi_startproc
 244              	.LVL14:
  69:.\w5200.c     ****    return RBUFBASEADDRESS[s];
 245              		.loc 1 69 0
 246 0000 024B     		ldr	r3, .L26
 247 0002 4000     		lsl	r0, r0, #1
 248              	.LVL15:
 249 0004 1918     		add	r1, r3, r0
 250 0006 888C     		ldrh	r0, [r1, #36]
  70:.\w5200.c     **** }
 251              		.loc 1 70 0
 252              		@ sp needed for prologue
 253 0008 7047     		bx	lr
 254              	.L27:
 255 000a C046     		.align	2
 256              	.L26:
 257 000c 00000000 		.word	.LANCHOR0
 258              		.cfi_endproc
 259              	.LFE8:
 260              		.size	getIINCHIP_RxBASE, .-getIINCHIP_RxBASE
 261              		.section	.text.getIINCHIP_TxBASE,"ax",%progbits
 262              		.align	1
 263              		.global	getIINCHIP_TxBASE
 264              		.code	16
 265              		.thumb_func
 266              		.type	getIINCHIP_TxBASE, %function
 267              	getIINCHIP_TxBASE:
 268              	.LFB9:
  71:.\w5200.c     **** uint16_t getIINCHIP_TxBASE(uint8_t s)
ARM GAS  C:\Users\atsu\AppData\Local\Temp\ccDwwNoN.s 			page 7


  72:.\w5200.c     **** {
 269              		.loc 1 72 0
 270              		.cfi_startproc
 271              	.LVL16:
  73:.\w5200.c     ****    return SBUFBASEADDRESS[s];
 272              		.loc 1 73 0
 273 0000 024B     		ldr	r3, .L29
 274 0002 4000     		lsl	r0, r0, #1
 275              	.LVL17:
 276 0004 1918     		add	r1, r3, r0
 277 0006 888D     		ldrh	r0, [r1, #44]
  74:.\w5200.c     **** }
 278              		.loc 1 74 0
 279              		@ sp needed for prologue
 280 0008 7047     		bx	lr
 281              	.L30:
 282 000a C046     		.align	2
 283              	.L29:
 284 000c 00000000 		.word	.LANCHOR0
 285              		.cfi_endproc
 286              	.LFE9:
 287              		.size	getIINCHIP_TxBASE, .-getIINCHIP_TxBASE
 288              		.section	.text.IINCHIP_CSoff,"ax",%progbits
 289              		.align	1
 290              		.global	IINCHIP_CSoff
 291              		.code	16
 292              		.thumb_func
 293              		.type	IINCHIP_CSoff, %function
 294              	IINCHIP_CSoff:
 295              	.LFB10:
  75:.\w5200.c     **** void IINCHIP_CSoff(void)
  76:.\w5200.c     **** {
 296              		.loc 1 76 0
 297              		.cfi_startproc
 298 0000 08B5     		push	{r3, lr}
 299              	.LCFI0:
 300              		.cfi_def_cfa_offset 8
 301              		.cfi_offset 3, -8
 302              		.cfi_offset 14, -4
  77:.\w5200.c     **** 	spi_cs_low();
 303              		.loc 1 77 0
 304 0002 FFF7FEFF 		bl	spi_cs_low
 305              	.LVL18:
  78:.\w5200.c     **** }
 306              		.loc 1 78 0
 307              		@ sp needed for prologue
 308 0006 08BD     		pop	{r3, pc}
 309              		.cfi_endproc
 310              	.LFE10:
 311              		.size	IINCHIP_CSoff, .-IINCHIP_CSoff
 312              		.section	.text.IINCHIP_CSon,"ax",%progbits
 313              		.align	1
 314              		.global	IINCHIP_CSon
 315              		.code	16
 316              		.thumb_func
 317              		.type	IINCHIP_CSon, %function
 318              	IINCHIP_CSon:
ARM GAS  C:\Users\atsu\AppData\Local\Temp\ccDwwNoN.s 			page 8


 319              	.LFB11:
  79:.\w5200.c     **** void IINCHIP_CSon(void)
  80:.\w5200.c     **** {
 320              		.loc 1 80 0
 321              		.cfi_startproc
 322 0000 08B5     		push	{r3, lr}
 323              	.LCFI1:
 324              		.cfi_def_cfa_offset 8
 325              		.cfi_offset 3, -8
 326              		.cfi_offset 14, -4
  81:.\w5200.c     **** 	spi_cs_high();
 327              		.loc 1 81 0
 328 0002 FFF7FEFF 		bl	spi_cs_high
 329              	.LVL19:
  82:.\w5200.c     **** }
 330              		.loc 1 82 0
 331              		@ sp needed for prologue
 332 0006 08BD     		pop	{r3, pc}
 333              		.cfi_endproc
 334              	.LFE11:
 335              		.size	IINCHIP_CSon, .-IINCHIP_CSon
 336              		.section	.text.IINCHIP_SpiSendData,"ax",%progbits
 337              		.align	1
 338              		.global	IINCHIP_SpiSendData
 339              		.code	16
 340              		.thumb_func
 341              		.type	IINCHIP_SpiSendData, %function
 342              	IINCHIP_SpiSendData:
 343              	.LFB12:
  83:.\w5200.c     **** uint8_t IINCHIP_SpiSendData(uint8_t dat)
  84:.\w5200.c     **** {
 344              		.loc 1 84 0
 345              		.cfi_startproc
 346              	.LVL20:
 347 0000 08B5     		push	{r3, lr}
 348              	.LCFI2:
 349              		.cfi_def_cfa_offset 8
 350              		.cfi_offset 3, -8
 351              		.cfi_offset 14, -4
  85:.\w5200.c     **** 	return(spi_master_send(dat));
 352              		.loc 1 85 0
 353 0002 FFF7FEFF 		bl	spi_master_send
 354              	.LVL21:
  86:.\w5200.c     **** }
 355              		.loc 1 86 0
 356              		@ sp needed for prologue
 357 0006 08BD     		pop	{r3, pc}
 358              		.cfi_endproc
 359              	.LFE12:
 360              		.size	IINCHIP_SpiSendData, .-IINCHIP_SpiSendData
 361              		.section	.text.IINCHIP_WRITE,"ax",%progbits
 362              		.align	1
 363              		.global	IINCHIP_WRITE
 364              		.code	16
 365              		.thumb_func
 366              		.type	IINCHIP_WRITE, %function
 367              	IINCHIP_WRITE:
ARM GAS  C:\Users\atsu\AppData\Local\Temp\ccDwwNoN.s 			page 9


 368              	.LFB13:
  87:.\w5200.c     **** 
  88:.\w5200.c     **** 
  89:.\w5200.c     ****  /**
  90:.\w5200.c     **** @brief	This function writes the data into W5200 registers.
  91:.\w5200.c     **** */
  92:.\w5200.c     **** 
  93:.\w5200.c     **** uint8_t IINCHIP_WRITE(uint16_t addr,uint8_t data)
  94:.\w5200.c     **** {
 369              		.loc 1 94 0
 370              		.cfi_startproc
 371              	.LVL22:
 372 0000 38B5     		push	{r3, r4, r5, lr}
 373              	.LCFI3:
 374              		.cfi_def_cfa_offset 16
 375              		.cfi_offset 3, -16
 376              		.cfi_offset 4, -12
 377              		.cfi_offset 5, -8
 378              		.cfi_offset 14, -4
 379              		.loc 1 94 0
 380 0002 041C     		mov	r4, r0
 381 0004 0D1C     		mov	r5, r1
 382              	.LBB46:
 383              	.LBB47:
  77:.\w5200.c     **** 	spi_cs_low();
 384              		.loc 1 77 0
 385 0006 FFF7FEFF 		bl	spi_cs_low
 386              	.LVL23:
 387              	.LBE47:
 388              	.LBE46:
  95:.\w5200.c     ****         IINCHIP_ISR_DISABLE();                      // Interrupt Service Routine Disable
  96:.\w5200.c     **** 
  97:.\w5200.c     **** 	//SPI MODE I/F
  98:.\w5200.c     **** 	IINCHIP_CSoff();                            // CS=0, SPI start
  99:.\w5200.c     **** 
 100:.\w5200.c     **** 	IINCHIP_SpiSendData((addr & 0xFF00) >> 8);  // Address byte 1
 389              		.loc 1 100 0
 390 000a 200A     		lsr	r0, r4, #8
 391 000c FFF7FEFF 		bl	IINCHIP_SpiSendData
 392              	.LVL24:
 101:.\w5200.c     **** 	IINCHIP_SpiSendData(addr & 0x00FF);         // Address byte 2
 393              		.loc 1 101 0
 394 0010 E0B2     		uxtb	r0, r4
 395 0012 FFF7FEFF 		bl	IINCHIP_SpiSendData
 396              	.LVL25:
 102:.\w5200.c     **** 	IINCHIP_SpiSendData(0x80);                  // Data write command and Write data length 1
 397              		.loc 1 102 0
 398 0016 8020     		mov	r0, #128
 399 0018 FFF7FEFF 		bl	IINCHIP_SpiSendData
 400              	.LVL26:
 103:.\w5200.c     **** 	IINCHIP_SpiSendData(0x01);                  // Write data length 2
 401              		.loc 1 103 0
 402 001c 0120     		mov	r0, #1
 403 001e FFF7FEFF 		bl	IINCHIP_SpiSendData
 404              	.LVL27:
 104:.\w5200.c     **** 	IINCHIP_SpiSendData(data);                  // Data write (write 1byte data)
 405              		.loc 1 104 0
ARM GAS  C:\Users\atsu\AppData\Local\Temp\ccDwwNoN.s 			page 10


 406 0022 281C     		mov	r0, r5
 407 0024 FFF7FEFF 		bl	IINCHIP_SpiSendData
 408              	.LVL28:
 105:.\w5200.c     **** 
 106:.\w5200.c     **** 	IINCHIP_CSon();                             // CS=1,  SPI end
 107:.\w5200.c     **** 
 108:.\w5200.c     ****         IINCHIP_ISR_ENABLE();                       // Interrupt Service Routine Enable
 109:.\w5200.c     **** 	return 1;
 110:.\w5200.c     **** }
 409              		.loc 1 110 0
 410              		@ sp needed for prologue
 411              	.LBB48:
 412              	.LBB49:
  81:.\w5200.c     **** 	spi_cs_high();
 413              		.loc 1 81 0
 414 0028 FFF7FEFF 		bl	spi_cs_high
 415              	.LVL29:
 416              	.LBE49:
 417              	.LBE48:
 418              		.loc 1 110 0
 419 002c 0120     		mov	r0, #1
 420 002e 38BD     		pop	{r3, r4, r5, pc}
 421              		.cfi_endproc
 422              	.LFE13:
 423              		.size	IINCHIP_WRITE, .-IINCHIP_WRITE
 424              		.section	.text.IINCHIP_READ,"ax",%progbits
 425              		.align	1
 426              		.global	IINCHIP_READ
 427              		.code	16
 428              		.thumb_func
 429              		.type	IINCHIP_READ, %function
 430              	IINCHIP_READ:
 431              	.LFB14:
 111:.\w5200.c     **** /**
 112:.\w5200.c     **** @brief	This function reads the value from W5200 registers.
 113:.\w5200.c     **** */
 114:.\w5200.c     **** uint8_t IINCHIP_READ(uint16_t addr)
 115:.\w5200.c     **** {
 432              		.loc 1 115 0
 433              		.cfi_startproc
 434              	.LVL30:
 435 0000 10B5     		push	{r4, lr}
 436              	.LCFI4:
 437              		.cfi_def_cfa_offset 8
 438              		.cfi_offset 4, -8
 439              		.cfi_offset 14, -4
 440              		.loc 1 115 0
 441 0002 041C     		mov	r4, r0
 442              	.LBB50:
 443              	.LBB51:
  77:.\w5200.c     **** 	spi_cs_low();
 444              		.loc 1 77 0
 445 0004 FFF7FEFF 		bl	spi_cs_low
 446              	.LVL31:
 447              	.LBE51:
 448              	.LBE50:
 116:.\w5200.c     **** 	uint8_t data;
ARM GAS  C:\Users\atsu\AppData\Local\Temp\ccDwwNoN.s 			page 11


 117:.\w5200.c     ****         
 118:.\w5200.c     **** 	IINCHIP_ISR_DISABLE();                       // Interrupt Service Routine Disable
 119:.\w5200.c     **** 	
 120:.\w5200.c     **** 	IINCHIP_CSoff();                             // CS=0, SPI start
 121:.\w5200.c     **** 	
 122:.\w5200.c     ****         IINCHIP_SpiSendData((addr & 0xFF00) >> 8);   // Address byte 1
 449              		.loc 1 122 0
 450 0008 200A     		lsr	r0, r4, #8
 451 000a FFF7FEFF 		bl	IINCHIP_SpiSendData
 452              	.LVL32:
 123:.\w5200.c     **** 	IINCHIP_SpiSendData(addr & 0x00FF);          // Address byte 2
 453              		.loc 1 123 0
 454 000e E0B2     		uxtb	r0, r4
 455 0010 FFF7FEFF 		bl	IINCHIP_SpiSendData
 456              	.LVL33:
 124:.\w5200.c     **** 	IINCHIP_SpiSendData(0x00);                   // Data read command and Read data length 1
 457              		.loc 1 124 0
 458 0014 0020     		mov	r0, #0
 459 0016 FFF7FEFF 		bl	IINCHIP_SpiSendData
 460              	.LVL34:
 125:.\w5200.c     **** 	IINCHIP_SpiSendData(0x01);                   // Read data length 2   	
 461              		.loc 1 125 0
 462 001a 0120     		mov	r0, #1
 463 001c FFF7FEFF 		bl	IINCHIP_SpiSendData
 464              	.LVL35:
 465              	.LBB52:
 466              	.LBB53:
  85:.\w5200.c     **** 	return(spi_master_send(dat));
 467              		.loc 1 85 0
 468 0020 0020     		mov	r0, #0
 469 0022 FFF7FEFF 		bl	spi_master_send
 470              	.LVL36:
 471 0026 041C     		mov	r4, r0
 472              	.LBE53:
 473              	.LBE52:
 126:.\w5200.c     **** 	data = IINCHIP_SpiSendData(0x00);            // Data read (read 1byte data)
 127:.\w5200.c     **** 	
 128:.\w5200.c     ****         IINCHIP_CSon();                              // CS=1,  SPI end
 129:.\w5200.c     **** 	
 130:.\w5200.c     ****         IINCHIP_ISR_ENABLE();                        // Interrupt Service Routine Enable
 131:.\w5200.c     **** 	return data;
 132:.\w5200.c     **** }
 474              		.loc 1 132 0
 475              		@ sp needed for prologue
 476              	.LBB54:
 477              	.LBB55:
  81:.\w5200.c     **** 	spi_cs_high();
 478              		.loc 1 81 0
 479 0028 FFF7FEFF 		bl	spi_cs_high
 480              	.LVL37:
 481              	.LBE55:
 482              	.LBE54:
 483              		.loc 1 132 0
 484 002c 201C     		mov	r0, r4
 485 002e 10BD     		pop	{r4, pc}
 486              		.cfi_endproc
 487              	.LFE14:
ARM GAS  C:\Users\atsu\AppData\Local\Temp\ccDwwNoN.s 			page 12


 488              		.size	IINCHIP_READ, .-IINCHIP_READ
 489              		.section	.text.wiz_write_buf,"ax",%progbits
 490              		.align	1
 491              		.global	wiz_write_buf
 492              		.code	16
 493              		.thumb_func
 494              		.type	wiz_write_buf, %function
 495              	wiz_write_buf:
 496              	.LFB15:
 133:.\w5200.c     **** 
 134:.\w5200.c     **** /**
 135:.\w5200.c     **** @brief	This function writes into W5200 memory(Buffer)
 136:.\w5200.c     **** */ 
 137:.\w5200.c     **** uint16_t wiz_write_buf(uint16_t addr,uint8_t* buf,uint16_t len)
 138:.\w5200.c     **** {
 497              		.loc 1 138 0
 498              		.cfi_startproc
 499              	.LVL38:
 500 0000 70B5     		push	{r4, r5, r6, lr}
 501              	.LCFI5:
 502              		.cfi_def_cfa_offset 16
 503              		.cfi_offset 4, -16
 504              		.cfi_offset 5, -12
 505              		.cfi_offset 6, -8
 506              		.cfi_offset 14, -4
 507              		.loc 1 138 0
 508 0002 051C     		mov	r5, r0
 509 0004 0E1C     		mov	r6, r1
 510 0006 141E     		sub	r4, r2, #0
 139:.\w5200.c     **** 	uint16_t idx = 0;
 140:.\w5200.c     **** 	
 141:.\w5200.c     **** 	IINCHIP_ISR_DISABLE();
 142:.\w5200.c     ****         
 143:.\w5200.c     ****         if(len == 0)
 511              		.loc 1 143 0
 512 0008 1CD0     		beq	.L37
 513              	.LVL39:
 514              	.LBB62:
 515              	.LBB63:
 516              	.LBB64:
 517              	.LBB65:
  77:.\w5200.c     **** 	spi_cs_low();
 518              		.loc 1 77 0
 519 000a FFF7FEFF 		bl	spi_cs_low
 520              	.LVL40:
 521              	.LBE65:
 522              	.LBE64:
 144:.\w5200.c     ****         {
 145:.\w5200.c     ****           //// printf("len is '0'\r\n");
 146:.\w5200.c     ****           return 0;
 147:.\w5200.c     ****         }
 148:.\w5200.c     ****      
 149:.\w5200.c     **** 	//SPI MODE I/F
 150:.\w5200.c     **** 	IINCHIP_CSoff();                                        // CS=0, SPI start 
 151:.\w5200.c     **** 	
 152:.\w5200.c     ****         IINCHIP_SpiSendData(((addr+idx) & 0xFF00) >> 8);        // Address byte 1
 523              		.loc 1 152 0
ARM GAS  C:\Users\atsu\AppData\Local\Temp\ccDwwNoN.s 			page 13


 524 000e 280A     		lsr	r0, r5, #8
 525 0010 FFF7FEFF 		bl	IINCHIP_SpiSendData
 526              	.LVL41:
 153:.\w5200.c     **** 	IINCHIP_SpiSendData((addr+idx) & 0x00FF);               // Address byte 2
 527              		.loc 1 153 0
 528 0014 E8B2     		uxtb	r0, r5
 529 0016 FFF7FEFF 		bl	IINCHIP_SpiSendData
 530              	.LVL42:
 154:.\w5200.c     **** 	IINCHIP_SpiSendData((0x80 | ((len & 0x7F00) >> 8)));    // Data write command and Write data lengt
 531              		.loc 1 154 0
 532 001a 6004     		lsl	r0, r4, #17
 533              	.LBE63:
 534 001c 8023     		mov	r3, #128
 535              	.LBB68:
 536 001e 400E     		lsr	r0, r0, #25
 537 0020 1843     		orr	r0, r3
 538 0022 FFF7FEFF 		bl	IINCHIP_SpiSendData
 539              	.LVL43:
 155:.\w5200.c     **** 	IINCHIP_SpiSendData((len & 0x00FF));                    // Write data length 2
 540              		.loc 1 155 0
 541 0026 E0B2     		uxtb	r0, r4
 542 0028 FFF7FEFF 		bl	IINCHIP_SpiSendData
 543              	.LVL44:
 544 002c 351C     		mov	r5, r6
 545              	.LVL45:
 546              	.L38:
 156:.\w5200.c     **** 	for(idx = 0; idx < len; idx++)                          // Write data in loop
 547              		.loc 1 156 0
 548 002e A91B     		sub	r1, r5, r6
 549 0030 8AB2     		uxth	r2, r1
 550 0032 A242     		cmp	r2, r4
 551 0034 04D2     		bcs	.L44
 552              	.L39:
 157:.\w5200.c     **** 	{		
 158:.\w5200.c     **** 		IINCHIP_SpiSendData(buf[idx]);
 553              		.loc 1 158 0
 554 0036 2878     		ldrb	r0, [r5]
 555 0038 FFF7FEFF 		bl	IINCHIP_SpiSendData
 556              	.LVL46:
 557 003c 0135     		add	r5, r5, #1
 558 003e F6E7     		b	.L38
 559              	.L44:
 560              	.LBB66:
 561              	.LBB67:
  81:.\w5200.c     **** 	spi_cs_high();
 562              		.loc 1 81 0
 563 0040 FFF7FEFF 		bl	spi_cs_high
 564              	.LVL47:
 565              	.L37:
 566              	.LBE67:
 567              	.LBE66:
 568              	.LBE68:
 569              	.LBE62:
 159:.\w5200.c     **** 	}
 160:.\w5200.c     **** 	
 161:.\w5200.c     ****         IINCHIP_CSon();                                         // CS=1, SPI end 
 162:.\w5200.c     ****         
ARM GAS  C:\Users\atsu\AppData\Local\Temp\ccDwwNoN.s 			page 14


 163:.\w5200.c     ****         IINCHIP_ISR_ENABLE();                                   // Interrupt Service Routine Enable
 164:.\w5200.c     **** 	return len;
 165:.\w5200.c     **** }
 570              		.loc 1 165 0
 571 0044 201C     		mov	r0, r4
 572              		@ sp needed for prologue
 573              	.LVL48:
 574 0046 70BD     		pop	{r4, r5, r6, pc}
 575              		.cfi_endproc
 576              	.LFE15:
 577              		.size	wiz_write_buf, .-wiz_write_buf
 578              		.section	.text.wiz_read_buf,"ax",%progbits
 579              		.align	1
 580              		.global	wiz_read_buf
 581              		.code	16
 582              		.thumb_func
 583              		.type	wiz_read_buf, %function
 584              	wiz_read_buf:
 585              	.LFB16:
 166:.\w5200.c     **** 
 167:.\w5200.c     **** 
 168:.\w5200.c     **** /**
 169:.\w5200.c     **** @brief	This function reads into W5200 memory(Buffer)
 170:.\w5200.c     **** */ 
 171:.\w5200.c     **** uint16_t wiz_read_buf(uint16_t addr, uint8_t* buf,uint16_t len)
 172:.\w5200.c     **** {
 586              		.loc 1 172 0
 587              		.cfi_startproc
 588              	.LVL49:
 589 0000 70B5     		push	{r4, r5, r6, lr}
 590              	.LCFI6:
 591              		.cfi_def_cfa_offset 16
 592              		.cfi_offset 4, -16
 593              		.cfi_offset 5, -12
 594              		.cfi_offset 6, -8
 595              		.cfi_offset 14, -4
 596              		.loc 1 172 0
 597 0002 051C     		mov	r5, r0
 598 0004 141C     		mov	r4, r2
 599 0006 0E1C     		mov	r6, r1
 600              	.LBB69:
 601              	.LBB70:
  77:.\w5200.c     **** 	spi_cs_low();
 602              		.loc 1 77 0
 603 0008 FFF7FEFF 		bl	spi_cs_low
 604              	.LVL50:
 605              	.LBE70:
 606              	.LBE69:
 173:.\w5200.c     **** 	uint16_t idx = 0;
 174:.\w5200.c     ****         
 175:.\w5200.c     **** 	IINCHIP_ISR_DISABLE();                                  // Interrupt Service Routine Disable
 176:.\w5200.c     ****         
 177:.\w5200.c     **** 	IINCHIP_CSoff();                                        // CS=0, SPI start 
 178:.\w5200.c     ****         
 179:.\w5200.c     **** 	IINCHIP_SpiSendData(((addr+idx) & 0xFF00) >> 8);        // Address byte 1
 607              		.loc 1 179 0
 608 000c 280A     		lsr	r0, r5, #8
ARM GAS  C:\Users\atsu\AppData\Local\Temp\ccDwwNoN.s 			page 15


 609 000e FFF7FEFF 		bl	IINCHIP_SpiSendData
 610              	.LVL51:
 180:.\w5200.c     **** 	IINCHIP_SpiSendData((addr+idx) & 0x00FF);               // Address byte 2
 611              		.loc 1 180 0
 612 0012 E8B2     		uxtb	r0, r5
 613 0014 FFF7FEFF 		bl	IINCHIP_SpiSendData
 614              	.LVL52:
 181:.\w5200.c     **** 	IINCHIP_SpiSendData((0x00 | ((len & 0x7F00) >> 8)));    // Data read command
 615              		.loc 1 181 0
 616 0018 6004     		lsl	r0, r4, #17
 617 001a 400E     		lsr	r0, r0, #25
 618 001c FFF7FEFF 		bl	IINCHIP_SpiSendData
 619              	.LVL53:
 182:.\w5200.c     **** 	IINCHIP_SpiSendData((len & 0x00FF));		        
 620              		.loc 1 182 0
 621 0020 E0B2     		uxtb	r0, r4
 622 0022 FFF7FEFF 		bl	IINCHIP_SpiSendData
 623              	.LVL54:
 183:.\w5200.c     **** 
 184:.\w5200.c     **** 	for(idx = 0; idx < len; idx++)                          // Read data in loop
 624              		.loc 1 184 0
 625 0026 351C     		mov	r5, r6
 626              	.LVL55:
 627              	.L46:
 628              		.loc 1 184 0 is_stmt 0 discriminator 1
 629 0028 AB1B     		sub	r3, r5, r6
 630 002a 99B2     		uxth	r1, r3
 631 002c A142     		cmp	r1, r4
 632 002e 05D2     		bcs	.L48
 633              	.L47:
 634              	.LVL56:
 635              	.LBB71:
 636              	.LBB72:
  85:.\w5200.c     **** 	return(spi_master_send(dat));
 637              		.loc 1 85 0 is_stmt 1 discriminator 2
 638 0030 0020     		mov	r0, #0
 639 0032 FFF7FEFF 		bl	spi_master_send
 640              	.LVL57:
 641              	.LBE72:
 642              	.LBE71:
 185:.\w5200.c     **** 	{
 186:.\w5200.c     **** 	 	buf[idx] = IINCHIP_SpiSendData(0x00);
 643              		.loc 1 186 0 discriminator 2
 644 0036 2870     		strb	r0, [r5]
 645 0038 0135     		add	r5, r5, #1
 646 003a F5E7     		b	.L46
 647              	.LVL58:
 648              	.L48:
 649              	.LBB73:
 650              	.LBB74:
  81:.\w5200.c     **** 	spi_cs_high();
 651              		.loc 1 81 0
 652 003c FFF7FEFF 		bl	spi_cs_high
 653              	.LVL59:
 654              	.LBE74:
 655              	.LBE73:
 187:.\w5200.c     **** 		
ARM GAS  C:\Users\atsu\AppData\Local\Temp\ccDwwNoN.s 			page 16


 188:.\w5200.c     **** 	}
 189:.\w5200.c     ****         
 190:.\w5200.c     **** 	IINCHIP_CSon();                                         // CS=0, SPI end 	   	
 191:.\w5200.c     ****         
 192:.\w5200.c     **** 	IINCHIP_ISR_ENABLE();                                   // Interrupt Service Routine Enable
 193:.\w5200.c     **** 	return len;
 194:.\w5200.c     **** }
 656              		.loc 1 194 0
 657              		@ sp needed for prologue
 658 0040 201C     		mov	r0, r4
 659              	.LVL60:
 660 0042 70BD     		pop	{r4, r5, r6, pc}
 661              		.cfi_endproc
 662              	.LFE16:
 663              		.size	wiz_read_buf, .-wiz_read_buf
 664              		.section	.text.sysinit,"ax",%progbits
 665              		.align	1
 666              		.global	sysinit
 667              		.code	16
 668              		.thumb_func
 669              		.type	sysinit, %function
 670              	sysinit:
 671              	.LFB18:
 195:.\w5200.c     **** 
 196:.\w5200.c     **** 
 197:.\w5200.c     **** /**
 198:.\w5200.c     **** @brief	This function is for resetting of the iinchip. Initializes the iinchip to work in whether DI
 199:.\w5200.c     **** */ 
 200:.\w5200.c     **** void iinchip_init(void)
 201:.\w5200.c     **** {	
 202:.\w5200.c     **** 	setMR( MR_RST );
 203:.\w5200.c     **** #ifdef __DEF_IINCHIP_DBG__	
 204:.\w5200.c     **** 	// printf("MR value is %02x \r\n",IINCHIP_READ(MR));
 205:.\w5200.c     **** #endif	
 206:.\w5200.c     **** }
 207:.\w5200.c     **** 
 208:.\w5200.c     **** 
 209:.\w5200.c     **** /**
 210:.\w5200.c     **** @brief	This function set the transmit & receive buffer size as per the channels is used
 211:.\w5200.c     **** Note for TMSR and RMSR bits are as follows\n
 212:.\w5200.c     **** bit 1-0 : memory size of channel #0 \n
 213:.\w5200.c     **** bit 3-2 : memory size of channel #1 \n
 214:.\w5200.c     **** bit 5-4 : memory size of channel #2 \n
 215:.\w5200.c     **** bit 7-6 : memory size of channel #3 \n
 216:.\w5200.c     **** bit 9-8 : memory size of channel #4 \n
 217:.\w5200.c     **** bit 11-10 : memory size of channel #5 \n
 218:.\w5200.c     **** bit 12-12 : memory size of channel #6 \n
 219:.\w5200.c     **** bit 15-14 : memory size of channel #7 \n
 220:.\w5200.c     **** Maximum memory size for Tx, Rx in the W5200 is 16K Bytes,\n
 221:.\w5200.c     **** In the range of 16KBytes, the memory size could be allocated dynamically by each channel.\n
 222:.\w5200.c     **** Be attentive to sum of memory size shouldn't exceed 8Kbytes\n
 223:.\w5200.c     **** and to data transmission and receiption from non-allocated channel may cause some problems.\n
 224:.\w5200.c     **** If the 16KBytes memory is already  assigned to centain channel, \n
 225:.\w5200.c     **** other 3 channels couldn't be used, for there's no available memory.\n
 226:.\w5200.c     **** If two 4KBytes memory are assigned to two each channels, \n
 227:.\w5200.c     **** other 2 channels couldn't be used, for there's no available memory.\n
 228:.\w5200.c     **** */ 
ARM GAS  C:\Users\atsu\AppData\Local\Temp\ccDwwNoN.s 			page 17


 229:.\w5200.c     **** void sysinit( uint8_t * tx_size, uint8_t * rx_size	)
 230:.\w5200.c     **** {
 672              		.loc 1 230 0
 673              		.cfi_startproc
 674              	.LVL61:
 675 0000 F0B5     		push	{r4, r5, r6, r7, lr}
 676              	.LCFI7:
 677              		.cfi_def_cfa_offset 20
 678              		.cfi_offset 4, -20
 679              		.cfi_offset 5, -16
 680              		.cfi_offset 6, -12
 681              		.cfi_offset 7, -8
 682              		.cfi_offset 14, -4
 683 0002 85B0     		sub	sp, sp, #20
 684              	.LCFI8:
 685              		.cfi_def_cfa_offset 40
 231:.\w5200.c     **** 	int16_t i;
 232:.\w5200.c     **** 	int16_t ssum,rsum;
 233:.\w5200.c     **** 
 234:.\w5200.c     **** #ifdef __DEF_IINCHIP_DBG__
 235:.\w5200.c     **** 	// printf("sysinit()\r\n"); 
 236:.\w5200.c     **** #endif
 237:.\w5200.c     **** 
 238:.\w5200.c     **** 	ssum = 0;
 239:.\w5200.c     **** 	rsum = 0;
 240:.\w5200.c     **** 	
 241:.\w5200.c     **** 	SBUFBASEADDRESS[0] = (uint16_t)(__DEF_IINCHIP_MAP_TXBUF__);		/* Set base address of Tx memory for 
 686              		.loc 1 241 0
 687 0004 624B     		ldr	r3, .L72
 230:.\w5200.c     **** {
 688              		.loc 1 230 0
 689 0006 0290     		str	r0, [sp, #8]
 690              		.loc 1 241 0
 691 0008 624A     		ldr	r2, .L72+4
 242:.\w5200.c     **** 	RBUFBASEADDRESS[0] = (uint16_t)(__DEF_IINCHIP_MAP_RXBUF__);		/* Set base address of Rx memory for 
 692              		.loc 1 242 0
 693 000a 6348     		ldr	r0, .L72+8
 694              	.LVL62:
 695 000c 0024     		mov	r4, #0
 230:.\w5200.c     **** {
 696              		.loc 1 230 0
 697 000e 0391     		str	r1, [sp, #12]
 241:.\w5200.c     **** 	SBUFBASEADDRESS[0] = (uint16_t)(__DEF_IINCHIP_MAP_TXBUF__);		/* Set base address of Tx memory for 
 698              		.loc 1 241 0
 699 0010 9A85     		strh	r2, [r3, #44]
 700              		.loc 1 242 0
 701 0012 9884     		strh	r0, [r3, #36]
 702              	.LVL63:
 703 0014 251C     		mov	r5, r4
 239:.\w5200.c     **** 	rsum = 0;
 704              		.loc 1 239 0
 705 0016 0194     		str	r4, [sp, #4]
 238:.\w5200.c     **** 	ssum = 0;
 706              		.loc 1 238 0
 707 0018 261C     		mov	r6, r4
 708              	.LVL64:
 709              	.L65:
ARM GAS  C:\Users\atsu\AppData\Local\Temp\ccDwwNoN.s 			page 18


 229:.\w5200.c     **** void sysinit( uint8_t * tx_size, uint8_t * rx_size	)
 710              		.loc 1 229 0
 711 001a 6049     		ldr	r1, .L72+12
 712 001c 2F02     		lsl	r7, r5, #8
 243:.\w5200.c     **** 
 244:.\w5200.c     ****   for (i = 0 ; i < MAX_SOCK_NUM; i++)       // Set the size, masking and base address of Tx & Rx me
 245:.\w5200.c     **** 	{
 246:.\w5200.c     ****     IINCHIP_WRITE((Sn_TXMEM_SIZE(i)),tx_size[i]);
 713              		.loc 1 246 0
 714 001e 029A     		ldr	r2, [sp, #8]
 229:.\w5200.c     **** void sysinit( uint8_t * tx_size, uint8_t * rx_size	)
 715              		.loc 1 229 0
 716 0020 BFB2     		uxth	r7, r7
 717 0022 7B18     		add	r3, r7, r1
 718              		.loc 1 246 0
 719 0024 98B2     		uxth	r0, r3
 720 0026 515D     		ldrb	r1, [r2, r5]
 721 0028 FFF7FEFF 		bl	IINCHIP_WRITE
 722              	.LVL65:
 229:.\w5200.c     **** void sysinit( uint8_t * tx_size, uint8_t * rx_size	)
 723              		.loc 1 229 0
 724 002c 5C48     		ldr	r0, .L72+16
 247:.\w5200.c     ****     IINCHIP_WRITE((Sn_RXMEM_SIZE(i)),rx_size[i]);
 725              		.loc 1 247 0
 726 002e 0399     		ldr	r1, [sp, #12]
 229:.\w5200.c     **** void sysinit( uint8_t * tx_size, uint8_t * rx_size	)
 727              		.loc 1 229 0
 728 0030 3F18     		add	r7, r7, r0
 729              		.loc 1 247 0
 730 0032 B8B2     		uxth	r0, r7
 731 0034 495D     		ldrb	r1, [r1, r5]
 732 0036 FFF7FEFF 		bl	IINCHIP_WRITE
 733              	.LVL66:
 248:.\w5200.c     **** 
 249:.\w5200.c     **** #ifdef __DEF_IINCHIP_DBG__
 250:.\w5200.c     ****          // printf("Sn_TXMEM_SIZE = %d\r\n",IINCHIP_READ(Sn_TXMEM_SIZE(i)));
 251:.\w5200.c     ****          // printf("Sn_RXMEM_SIZE = %d\r\n",IINCHIP_READ(Sn_RXMEM_SIZE(i)));
 252:.\w5200.c     **** #endif
 253:.\w5200.c     **** 
 254:.\w5200.c     **** 		SSIZE[i] = (int16_t)(0);
 734              		.loc 1 254 0
 735 003a 554B     		ldr	r3, .L72
 736 003c 0022     		mov	r2, #0
 737 003e 181C     		mov	r0, r3
 738 0040 0C30     		add	r0, r0, #12
 739 0042 2252     		strh	r2, [r4, r0]
 255:.\w5200.c     **** 		RSIZE[i] = (int16_t)(0);
 740              		.loc 1 255 0
 741 0044 1F1D     		add	r7, r3, #4
 742 0046 8020     		mov	r0, #128
 256:.\w5200.c     **** 
 257:.\w5200.c     **** 		if (ssum <= 16384)
 743              		.loc 1 257 0
 744 0048 31B2     		sxth	r1, r6
 255:.\w5200.c     **** 		RSIZE[i] = (int16_t)(0);
 745              		.loc 1 255 0
 746 004a E253     		strh	r2, [r4, r7]
ARM GAS  C:\Users\atsu\AppData\Local\Temp\ccDwwNoN.s 			page 19


 747 004c C201     		lsl	r2, r0, #7
 748              		.loc 1 257 0
 749 004e 9142     		cmp	r1, r2
 750 0050 39DC     		bgt	.L50
 258:.\w5200.c     **** 		{
 259:.\w5200.c     ****          switch( tx_size[i] )
 751              		.loc 1 259 0
 752 0052 029F     		ldr	r7, [sp, #8]
 753 0054 785D     		ldrb	r0, [r7, r5]
 754 0056 0138     		sub	r0, r0, #1
 755 0058 0F28     		cmp	r0, #15
 756 005a 34D8     		bhi	.L50
 757 005c FFF7FEFF 		bl	__gnu_thumb1_case_uqi
 758              	.L56:
 759 0060 08       		.byte	(.L51-.L56)/2
 760 0061 11       		.byte	(.L52-.L56)/2
 761 0062 33       		.byte	(.L50-.L56)/2
 762 0063 1A       		.byte	(.L53-.L56)/2
 763 0064 33       		.byte	(.L50-.L56)/2
 764 0065 33       		.byte	(.L50-.L56)/2
 765 0066 33       		.byte	(.L50-.L56)/2
 766 0067 23       		.byte	(.L54-.L56)/2
 767 0068 33       		.byte	(.L50-.L56)/2
 768 0069 33       		.byte	(.L50-.L56)/2
 769 006a 33       		.byte	(.L50-.L56)/2
 770 006b 33       		.byte	(.L50-.L56)/2
 771 006c 33       		.byte	(.L50-.L56)/2
 772 006d 33       		.byte	(.L50-.L56)/2
 773 006e 33       		.byte	(.L50-.L56)/2
 774 006f 2C       		.byte	(.L55-.L56)/2
 775              		.align	1
 776              	.L51:
 260:.\w5200.c     **** 			{
 261:.\w5200.c     **** 			case 1:
 262:.\w5200.c     **** 				SSIZE[i] = (int16_t)(1024);
 777              		.loc 1 262 0
 778 0070 8027     		mov	r7, #128
 779 0072 191C     		mov	r1, r3
 780 0074 F800     		lsl	r0, r7, #3
 781 0076 0C31     		add	r1, r1, #12
 263:.\w5200.c     **** 				SMASK[i] = (uint16_t)(0x03FF);
 782              		.loc 1 263 0
 783 0078 1F1C     		mov	r7, r3
 262:.\w5200.c     **** 				SSIZE[i] = (int16_t)(1024);
 784              		.loc 1 262 0
 785 007a 6052     		strh	r0, [r4, r1]
 786              		.loc 1 263 0
 787 007c 1C37     		add	r7, r7, #28
 788 007e 4948     		ldr	r0, .L72+20
 789 0080 20E0     		b	.L70
 790              	.L52:
 264:.\w5200.c     **** 				break;
 265:.\w5200.c     **** 			case 2:
 266:.\w5200.c     **** 				SSIZE[i] = (int16_t)(2048);
 791              		.loc 1 266 0
 792 0082 8027     		mov	r7, #128
 793 0084 191C     		mov	r1, r3
ARM GAS  C:\Users\atsu\AppData\Local\Temp\ccDwwNoN.s 			page 20


 794 0086 3801     		lsl	r0, r7, #4
 795 0088 0C31     		add	r1, r1, #12
 267:.\w5200.c     **** 				SMASK[i] = (uint16_t)(0x07FF);
 796              		.loc 1 267 0
 797 008a 1F1C     		mov	r7, r3
 266:.\w5200.c     **** 				SSIZE[i] = (int16_t)(2048);
 798              		.loc 1 266 0
 799 008c 6052     		strh	r0, [r4, r1]
 800              		.loc 1 267 0
 801 008e 1C37     		add	r7, r7, #28
 802 0090 4548     		ldr	r0, .L72+24
 803 0092 17E0     		b	.L70
 804              	.L53:
 268:.\w5200.c     **** 				break;
 269:.\w5200.c     **** 			case 4:
 270:.\w5200.c     **** 				SSIZE[i] = (int16_t)(4096);
 805              		.loc 1 270 0
 806 0094 8027     		mov	r7, #128
 807 0096 191C     		mov	r1, r3
 808 0098 7801     		lsl	r0, r7, #5
 809 009a 0C31     		add	r1, r1, #12
 271:.\w5200.c     **** 				SMASK[i] = (uint16_t)(0x0FFF);
 810              		.loc 1 271 0
 811 009c 1F1C     		mov	r7, r3
 270:.\w5200.c     **** 				SSIZE[i] = (int16_t)(4096);
 812              		.loc 1 270 0
 813 009e 6052     		strh	r0, [r4, r1]
 814              		.loc 1 271 0
 815 00a0 1C37     		add	r7, r7, #28
 816 00a2 4248     		ldr	r0, .L72+28
 817 00a4 0EE0     		b	.L70
 818              	.L54:
 272:.\w5200.c     **** 				break;
 273:.\w5200.c     **** 			case 8:
 274:.\w5200.c     **** 				SSIZE[i] = (int16_t)(8192);
 819              		.loc 1 274 0
 820 00a6 8027     		mov	r7, #128
 821 00a8 191C     		mov	r1, r3
 822 00aa B801     		lsl	r0, r7, #6
 823 00ac 0C31     		add	r1, r1, #12
 275:.\w5200.c     **** 				SMASK[i] = (uint16_t)(0x1FFF);
 824              		.loc 1 275 0
 825 00ae 1F1C     		mov	r7, r3
 274:.\w5200.c     **** 				SSIZE[i] = (int16_t)(8192);
 826              		.loc 1 274 0
 827 00b0 6052     		strh	r0, [r4, r1]
 828              		.loc 1 275 0
 829 00b2 1C37     		add	r7, r7, #28
 830 00b4 3E48     		ldr	r0, .L72+32
 831 00b6 05E0     		b	.L70
 832              	.L55:
 276:.\w5200.c     **** 				break;
 277:.\w5200.c     **** 			case 16:
 278:.\w5200.c     **** 				SSIZE[i] = (int16_t)(16384);
 833              		.loc 1 278 0
 834 00b8 191C     		mov	r1, r3
 835 00ba 0C31     		add	r1, r1, #12
ARM GAS  C:\Users\atsu\AppData\Local\Temp\ccDwwNoN.s 			page 21


 279:.\w5200.c     **** 				SMASK[i] = (uint16_t)(0x3FFF);
 836              		.loc 1 279 0
 837 00bc 1F1C     		mov	r7, r3
 838 00be 3D48     		ldr	r0, .L72+36
 278:.\w5200.c     **** 				SSIZE[i] = (int16_t)(16384);
 839              		.loc 1 278 0
 840 00c0 6252     		strh	r2, [r4, r1]
 841              		.loc 1 279 0
 842 00c2 1C37     		add	r7, r7, #28
 843              	.L70:
 844 00c4 E053     		strh	r0, [r4, r7]
 845              	.L50:
 280:.\w5200.c     **** 			break;
 281:.\w5200.c     **** 			}
 282:.\w5200.c     **** 		}
 283:.\w5200.c     **** 
 284:.\w5200.c     **** 		if (rsum <= 16384)
 846              		.loc 1 284 0
 847 00c6 6946     		mov	r1, sp
 848 00c8 0420     		mov	r0, #4
 849 00ca 0F5E     		ldrsh	r7, [r1, r0]
 850 00cc 9742     		cmp	r7, r2
 851 00ce 36DC     		bgt	.L57
 285:.\w5200.c     **** 		{
 286:.\w5200.c     ****          switch( rx_size[i] )
 852              		.loc 1 286 0
 853 00d0 039A     		ldr	r2, [sp, #12]
 854 00d2 505D     		ldrb	r0, [r2, r5]
 855 00d4 0138     		sub	r0, r0, #1
 856 00d6 0F28     		cmp	r0, #15
 857 00d8 31D8     		bhi	.L57
 858 00da FFF7FEFF 		bl	__gnu_thumb1_case_uqi
 859              	.L63:
 860 00de 08       		.byte	(.L58-.L63)/2
 861 00df 10       		.byte	(.L59-.L63)/2
 862 00e0 30       		.byte	(.L57-.L63)/2
 863 00e1 18       		.byte	(.L60-.L63)/2
 864 00e2 30       		.byte	(.L57-.L63)/2
 865 00e3 30       		.byte	(.L57-.L63)/2
 866 00e4 30       		.byte	(.L57-.L63)/2
 867 00e5 20       		.byte	(.L61-.L63)/2
 868 00e6 30       		.byte	(.L57-.L63)/2
 869 00e7 30       		.byte	(.L57-.L63)/2
 870 00e8 30       		.byte	(.L57-.L63)/2
 871 00e9 30       		.byte	(.L57-.L63)/2
 872 00ea 30       		.byte	(.L57-.L63)/2
 873 00eb 30       		.byte	(.L57-.L63)/2
 874 00ec 30       		.byte	(.L57-.L63)/2
 875 00ed 28       		.byte	(.L62-.L63)/2
 876              		.align	1
 877              	.L58:
 287:.\w5200.c     **** 			{
 288:.\w5200.c     **** 			case 1:
 289:.\w5200.c     **** 				RSIZE[i] = (int16_t)(1024);
 878              		.loc 1 289 0
 879 00ee 8021     		mov	r1, #128
 880 00f0 1A1D     		add	r2, r3, #4
ARM GAS  C:\Users\atsu\AppData\Local\Temp\ccDwwNoN.s 			page 22


 881 00f2 C800     		lsl	r0, r1, #3
 882 00f4 A052     		strh	r0, [r4, r2]
 290:.\w5200.c     **** 				RMASK[i] = (uint16_t)(0x03FF);
 883              		.loc 1 290 0
 884 00f6 1A1C     		mov	r2, r3
 885 00f8 1432     		add	r2, r2, #20
 886 00fa 2A48     		ldr	r0, .L72+20
 887 00fc 1EE0     		b	.L71
 888              	.L59:
 291:.\w5200.c     **** 				break;
 292:.\w5200.c     **** 			case 2:
 293:.\w5200.c     **** 				RSIZE[i] = (int16_t)(2048);
 889              		.loc 1 293 0
 890 00fe 8020     		mov	r0, #128
 891 0100 1A1D     		add	r2, r3, #4
 892 0102 0701     		lsl	r7, r0, #4
 893 0104 A752     		strh	r7, [r4, r2]
 294:.\w5200.c     **** 				RMASK[i] = (uint16_t)(0x07FF);
 894              		.loc 1 294 0
 895 0106 1A1C     		mov	r2, r3
 896 0108 1432     		add	r2, r2, #20
 897 010a 2748     		ldr	r0, .L72+24
 898 010c 16E0     		b	.L71
 899              	.L60:
 295:.\w5200.c     **** 				break;
 296:.\w5200.c     **** 			case 4:
 297:.\w5200.c     **** 				RSIZE[i] = (int16_t)(4096);
 900              		.loc 1 297 0
 901 010e 8027     		mov	r7, #128
 902 0110 181D     		add	r0, r3, #4
 903 0112 7901     		lsl	r1, r7, #5
 298:.\w5200.c     **** 				RMASK[i] = (uint16_t)(0x0FFF);
 904              		.loc 1 298 0
 905 0114 1A1C     		mov	r2, r3
 297:.\w5200.c     **** 				RSIZE[i] = (int16_t)(4096);
 906              		.loc 1 297 0
 907 0116 2152     		strh	r1, [r4, r0]
 908              		.loc 1 298 0
 909 0118 1432     		add	r2, r2, #20
 910 011a 2448     		ldr	r0, .L72+28
 911 011c 0EE0     		b	.L71
 912              	.L61:
 299:.\w5200.c     **** 				break;
 300:.\w5200.c     **** 			case 8:
 301:.\w5200.c     **** 				RSIZE[i] = (int16_t)(8192);
 913              		.loc 1 301 0
 914 011e 8021     		mov	r1, #128
 915 0120 8A01     		lsl	r2, r1, #6
 916 0122 1F1D     		add	r7, r3, #4
 917 0124 E253     		strh	r2, [r4, r7]
 302:.\w5200.c     **** 				RMASK[i] = (uint16_t)(0x1FFF);
 918              		.loc 1 302 0
 919 0126 1A1C     		mov	r2, r3
 920 0128 1432     		add	r2, r2, #20
 921 012a 2148     		ldr	r0, .L72+32
 922 012c 06E0     		b	.L71
 923              	.L62:
ARM GAS  C:\Users\atsu\AppData\Local\Temp\ccDwwNoN.s 			page 23


 303:.\w5200.c     **** 				break;
 304:.\w5200.c     **** 			case 16:
 305:.\w5200.c     **** 				RSIZE[i] = (int16_t)(16384);
 924              		.loc 1 305 0
 925 012e 8021     		mov	r1, #128
 926 0130 181D     		add	r0, r3, #4
 927 0132 CF01     		lsl	r7, r1, #7
 928 0134 2752     		strh	r7, [r4, r0]
 306:.\w5200.c     **** 				RMASK[i] = (uint16_t)(0x3FFF);
 929              		.loc 1 306 0
 930 0136 1A1C     		mov	r2, r3
 931 0138 1E48     		ldr	r0, .L72+36
 932 013a 1432     		add	r2, r2, #20
 933              	.L71:
 934 013c A052     		strh	r0, [r4, r2]
 935              	.L57:
 307:.\w5200.c     **** 				break;
 308:.\w5200.c     **** 			}
 309:.\w5200.c     **** 		}
 310:.\w5200.c     **** 		ssum += SSIZE[i];
 936              		.loc 1 310 0
 937 013e 181C     		mov	r0, r3
 938 0140 0C30     		add	r0, r0, #12
 939 0142 275A     		ldrh	r7, [r4, r0]
 311:.\w5200.c     **** 		rsum += RSIZE[i];
 940              		.loc 1 311 0
 941 0144 1A1D     		add	r2, r3, #4
 310:.\w5200.c     **** 		ssum += SSIZE[i];
 942              		.loc 1 310 0
 943 0146 BE19     		add	r6, r7, r6
 944              		.loc 1 311 0
 945 0148 A15A     		ldrh	r1, [r4, r2]
 946 014a 019F     		ldr	r7, [sp, #4]
 310:.\w5200.c     **** 		ssum += SSIZE[i];
 947              		.loc 1 310 0
 948 014c B6B2     		uxth	r6, r6
 949              	.LVL67:
 950              		.loc 1 311 0
 951 014e C919     		add	r1, r1, r7
 952 0150 8FB2     		uxth	r7, r1
 312:.\w5200.c     **** 
 313:.\w5200.c     ****         if (i != 0)             // Sets base address of Tx and Rx memory for channel #1,#2,#3
 953              		.loc 1 313 0
 954 0152 29B2     		sxth	r1, r5
 311:.\w5200.c     **** 		rsum += RSIZE[i];
 955              		.loc 1 311 0
 956 0154 0197     		str	r7, [sp, #4]
 957              	.LVL68:
 958              		.loc 1 313 0
 959 0156 0029     		cmp	r1, #0
 960 0158 12D0     		beq	.L64
 314:.\w5200.c     **** 		{
 315:.\w5200.c     **** 			SBUFBASEADDRESS[i] = SBUFBASEADDRESS[i-1] + SSIZE[i-1];
 961              		.loc 1 315 0
 962 015a 191C     		mov	r1, r3
 963 015c 2C31     		add	r1, r1, #44
 229:.\w5200.c     **** void sysinit( uint8_t * tx_size, uint8_t * rx_size	)
ARM GAS  C:\Users\atsu\AppData\Local\Temp\ccDwwNoN.s 			page 24


 964              		.loc 1 229 0
 965 015e 0019     		add	r0, r0, r4
 966 0160 871E     		sub	r7, r0, #2
 967 0162 0819     		add	r0, r1, r4
 968 0164 0238     		sub	r0, r0, #2
 969              		.loc 1 315 0
 970 0166 0088     		ldrh	r0, [r0]
 971 0168 3F88     		ldrh	r7, [r7]
 316:.\w5200.c     **** 			RBUFBASEADDRESS[i] = RBUFBASEADDRESS[i-1] + RSIZE[i-1];
 972              		.loc 1 316 0
 973 016a 2433     		add	r3, r3, #36
 315:.\w5200.c     **** 			SBUFBASEADDRESS[i] = SBUFBASEADDRESS[i-1] + SSIZE[i-1];
 974              		.loc 1 315 0
 975 016c 3F18     		add	r7, r7, r0
 229:.\w5200.c     **** void sysinit( uint8_t * tx_size, uint8_t * rx_size	)
 976              		.loc 1 229 0
 977 016e 1219     		add	r2, r2, r4
 978 0170 1819     		add	r0, r3, r4
 979 0172 023A     		sub	r2, r2, #2
 980 0174 0238     		sub	r0, r0, #2
 315:.\w5200.c     **** 			SBUFBASEADDRESS[i] = SBUFBASEADDRESS[i-1] + SSIZE[i-1];
 981              		.loc 1 315 0
 982 0176 6752     		strh	r7, [r4, r1]
 983              		.loc 1 316 0
 984 0178 0788     		ldrh	r7, [r0]
 985 017a 1188     		ldrh	r1, [r2]
 986 017c CA19     		add	r2, r1, r7
 987 017e E252     		strh	r2, [r4, r3]
 988              	.L64:
 989 0180 0135     		add	r5, r5, #1
 990 0182 0234     		add	r4, r4, #2
 244:.\w5200.c     ****   for (i = 0 ; i < MAX_SOCK_NUM; i++)       // Set the size, masking and base address of Tx & Rx me
 991              		.loc 1 244 0
 992 0184 042D     		cmp	r5, #4
 993 0186 00D0     		beq	.LCB851
 994 0188 47E7     		b	.L65	@long jump
 995              	.LCB851:
 317:.\w5200.c     **** 		}
 318:.\w5200.c     **** #ifdef __DEF_IINCHIP_DBG__
 319:.\w5200.c     **** 		// printf("ch = %d\r\n",i);
 320:.\w5200.c     **** 		// printf("SBUFBASEADDRESS = %d\r\n",(uint16_t)SBUFBASEADDRESS[i]);
 321:.\w5200.c     **** 		// printf("RBUFBASEADDRESS = %d\r\n",(uint16_t)RBUFBASEADDRESS[i]);
 322:.\w5200.c     **** 		// printf("SSIZE = %d\r\n",SSIZE[i]);
 323:.\w5200.c     **** 		// printf("RSIZE = %d\r\n",RSIZE[i]);		
 324:.\w5200.c     **** #endif
 325:.\w5200.c     **** 	}
 326:.\w5200.c     **** }
 996              		.loc 1 326 0
 997 018a 05B0     		add	sp, sp, #20
 998              		@ sp needed for prologue
 999              	.LVL69:
 1000 018c F0BD     		pop	{r4, r5, r6, r7, pc}
 1001              	.L73:
 1002 018e C046     		.align	2
 1003              	.L72:
 1004 0190 00000000 		.word	.LANCHOR0
 1005 0194 0080FFFF 		.word	-32768
ARM GAS  C:\Users\atsu\AppData\Local\Temp\ccDwwNoN.s 			page 25


 1006 0198 00C0FFFF 		.word	-16384
 1007 019c 1F400000 		.word	16415
 1008 01a0 1E400000 		.word	16414
 1009 01a4 FF030000 		.word	1023
 1010 01a8 FF070000 		.word	2047
 1011 01ac FF0F0000 		.word	4095
 1012 01b0 FF1F0000 		.word	8191
 1013 01b4 FF3F0000 		.word	16383
 1014              		.cfi_endproc
 1015              	.LFE18:
 1016              		.size	sysinit, .-sysinit
 1017              		.section	.text.setGAR,"ax",%progbits
 1018              		.align	1
 1019              		.global	setGAR
 1020              		.code	16
 1021              		.thumb_func
 1022              		.type	setGAR, %function
 1023              	setGAR:
 1024              	.LFB19:
 327:.\w5200.c     **** 
 328:.\w5200.c     **** // added
 329:.\w5200.c     **** 
 330:.\w5200.c     **** /**
 331:.\w5200.c     **** @brief	This function sets up gateway IP address.
 332:.\w5200.c     **** */ 
 333:.\w5200.c     **** void setGAR(
 334:.\w5200.c     **** 	uint8_t * addr	/**< a pointer to a 4 -byte array responsible to set the Gateway IP address. */
 335:.\w5200.c     **** 	)
 336:.\w5200.c     **** {
 1025              		.loc 1 336 0
 1026              		.cfi_startproc
 1027              	.LVL70:
 1028 0000 10B5     		push	{r4, lr}
 1029              	.LCFI9:
 1030              		.cfi_def_cfa_offset 8
 1031              		.cfi_offset 4, -8
 1032              		.cfi_offset 14, -4
 1033              		.loc 1 336 0
 1034 0002 041C     		mov	r4, r0
 337:.\w5200.c     **** 	IINCHIP_WRITE((GAR0 + 0),addr[0]);
 1035              		.loc 1 337 0
 1036 0004 0178     		ldrb	r1, [r0]
 1037 0006 0120     		mov	r0, #1
 1038              	.LVL71:
 1039 0008 FFF7FEFF 		bl	IINCHIP_WRITE
 1040              	.LVL72:
 338:.\w5200.c     **** 	IINCHIP_WRITE((GAR0 + 1),addr[1]);
 1041              		.loc 1 338 0
 1042 000c 6178     		ldrb	r1, [r4, #1]
 1043 000e 0220     		mov	r0, #2
 1044 0010 FFF7FEFF 		bl	IINCHIP_WRITE
 1045              	.LVL73:
 339:.\w5200.c     **** 	IINCHIP_WRITE((GAR0 + 2),addr[2]);
 1046              		.loc 1 339 0
 1047 0014 A178     		ldrb	r1, [r4, #2]
 1048 0016 0320     		mov	r0, #3
 1049 0018 FFF7FEFF 		bl	IINCHIP_WRITE
ARM GAS  C:\Users\atsu\AppData\Local\Temp\ccDwwNoN.s 			page 26


 1050              	.LVL74:
 340:.\w5200.c     **** 	IINCHIP_WRITE((GAR0 + 3),addr[3]);
 1051              		.loc 1 340 0
 1052 001c E178     		ldrb	r1, [r4, #3]
 1053 001e 0420     		mov	r0, #4
 1054 0020 FFF7FEFF 		bl	IINCHIP_WRITE
 1055              	.LVL75:
 341:.\w5200.c     **** }
 1056              		.loc 1 341 0
 1057              		@ sp needed for prologue
 1058              	.LVL76:
 1059 0024 10BD     		pop	{r4, pc}
 1060              		.cfi_endproc
 1061              	.LFE19:
 1062              		.size	setGAR, .-setGAR
 1063              		.section	.text.saveSUBR,"ax",%progbits
 1064              		.align	1
 1065              		.global	saveSUBR
 1066              		.code	16
 1067              		.thumb_func
 1068              		.type	saveSUBR, %function
 1069              	saveSUBR:
 1070              	.LFB20:
 342:.\w5200.c     **** 
 343:.\w5200.c     **** /*
 344:.\w5200.c     **** void getGWIP(uint8_t * addr)
 345:.\w5200.c     **** {
 346:.\w5200.c     **** 	addr[0] = IINCHIP_READ((GAR0 + 0));
 347:.\w5200.c     **** 	addr[1] = IINCHIP_READ((GAR0 + 1));
 348:.\w5200.c     **** 	addr[2] = IINCHIP_READ((GAR0 + 2));
 349:.\w5200.c     **** 	addr[3] = IINCHIP_READ((GAR0 + 3));
 350:.\w5200.c     **** }
 351:.\w5200.c     **** */
 352:.\w5200.c     **** 
 353:.\w5200.c     **** /**
 354:.\w5200.c     **** @brief	It sets up SubnetMask address
 355:.\w5200.c     **** */ 
 356:.\w5200.c     **** void saveSUBR(
 357:.\w5200.c     **** 	uint8_t * addr	/**< a pointer to a 4 -byte array responsible to set the SubnetMask address */
 358:.\w5200.c     **** 	)
 359:.\w5200.c     **** {
 1071              		.loc 1 359 0
 1072              		.cfi_startproc
 1073              	.LVL77:
 360:.\w5200.c     **** 	SUBNET[0] = addr[0];
 1074              		.loc 1 360 0
 1075 0000 084B     		ldr	r3, .L76
 1076 0002 0178     		ldrb	r1, [r0]
 1077 0004 1A1C     		mov	r2, r3
 1078 0006 3432     		add	r2, r2, #52
 1079 0008 1170     		strb	r1, [r2]
 361:.\w5200.c     **** 	SUBNET[1] = addr[1];
 1080              		.loc 1 361 0
 1081 000a 4178     		ldrb	r1, [r0, #1]
 1082 000c 1A1C     		mov	r2, r3
 1083 000e 3532     		add	r2, r2, #53
 1084 0010 1170     		strb	r1, [r2]
ARM GAS  C:\Users\atsu\AppData\Local\Temp\ccDwwNoN.s 			page 27


 362:.\w5200.c     **** 	SUBNET[2] = addr[2];
 1085              		.loc 1 362 0
 1086 0012 8178     		ldrb	r1, [r0, #2]
 1087 0014 1A1C     		mov	r2, r3
 363:.\w5200.c     **** 	SUBNET[3] = addr[3];
 1088              		.loc 1 363 0
 1089 0016 C078     		ldrb	r0, [r0, #3]
 1090              	.LVL78:
 362:.\w5200.c     **** 	SUBNET[2] = addr[2];
 1091              		.loc 1 362 0
 1092 0018 3632     		add	r2, r2, #54
 1093              		.loc 1 363 0
 1094 001a 3733     		add	r3, r3, #55
 362:.\w5200.c     **** 	SUBNET[2] = addr[2];
 1095              		.loc 1 362 0
 1096 001c 1170     		strb	r1, [r2]
 1097              		.loc 1 363 0
 1098 001e 1870     		strb	r0, [r3]
 364:.\w5200.c     **** }
 1099              		.loc 1 364 0
 1100              		@ sp needed for prologue
 1101 0020 7047     		bx	lr
 1102              	.L77:
 1103 0022 C046     		.align	2
 1104              	.L76:
 1105 0024 00000000 		.word	.LANCHOR0
 1106              		.cfi_endproc
 1107              	.LFE20:
 1108              		.size	saveSUBR, .-saveSUBR
 1109              		.section	.text.setSUBR,"ax",%progbits
 1110              		.align	1
 1111              		.global	setSUBR
 1112              		.code	16
 1113              		.thumb_func
 1114              		.type	setSUBR, %function
 1115              	setSUBR:
 1116              	.LFB21:
 365:.\w5200.c     **** 
 366:.\w5200.c     **** void setSUBR(void)
 367:.\w5200.c     **** {   
 1117              		.loc 1 367 0
 1118              		.cfi_startproc
 1119 0000 10B5     		push	{r4, lr}
 1120              	.LCFI10:
 1121              		.cfi_def_cfa_offset 8
 1122              		.cfi_offset 4, -8
 1123              		.cfi_offset 14, -4
 368:.\w5200.c     **** 	IINCHIP_WRITE((SUBR0 + 0), SUBNET[0]);
 1124              		.loc 1 368 0
 1125 0002 0C4C     		ldr	r4, .L79
 1126 0004 0520     		mov	r0, #5
 1127 0006 231C     		mov	r3, r4
 1128 0008 3433     		add	r3, r3, #52
 1129 000a 1978     		ldrb	r1, [r3]
 1130 000c FFF7FEFF 		bl	IINCHIP_WRITE
 1131              	.LVL79:
 369:.\w5200.c     **** 	IINCHIP_WRITE((SUBR0 + 1), SUBNET[1]);
ARM GAS  C:\Users\atsu\AppData\Local\Temp\ccDwwNoN.s 			page 28


 1132              		.loc 1 369 0
 1133 0010 201C     		mov	r0, r4
 1134 0012 3530     		add	r0, r0, #53
 1135 0014 0178     		ldrb	r1, [r0]
 1136 0016 0620     		mov	r0, #6
 1137 0018 FFF7FEFF 		bl	IINCHIP_WRITE
 1138              	.LVL80:
 370:.\w5200.c     **** 	IINCHIP_WRITE((SUBR0 + 2), SUBNET[2]);
 1139              		.loc 1 370 0
 1140 001c 211C     		mov	r1, r4
 1141 001e 3631     		add	r1, r1, #54
 1142 0020 0978     		ldrb	r1, [r1]
 371:.\w5200.c     **** 	IINCHIP_WRITE((SUBR0 + 3), SUBNET[3]);
 1143              		.loc 1 371 0
 1144 0022 3734     		add	r4, r4, #55
 370:.\w5200.c     **** 	IINCHIP_WRITE((SUBR0 + 2), SUBNET[2]);
 1145              		.loc 1 370 0
 1146 0024 0720     		mov	r0, #7
 1147 0026 FFF7FEFF 		bl	IINCHIP_WRITE
 1148              	.LVL81:
 1149              		.loc 1 371 0
 1150 002a 2178     		ldrb	r1, [r4]
 1151 002c 0820     		mov	r0, #8
 1152 002e FFF7FEFF 		bl	IINCHIP_WRITE
 1153              	.LVL82:
 372:.\w5200.c     **** }
 1154              		.loc 1 372 0
 1155              		@ sp needed for prologue
 1156 0032 10BD     		pop	{r4, pc}
 1157              	.L80:
 1158              		.align	2
 1159              	.L79:
 1160 0034 00000000 		.word	.LANCHOR0
 1161              		.cfi_endproc
 1162              	.LFE21:
 1163              		.size	setSUBR, .-setSUBR
 1164              		.section	.text.setSHAR,"ax",%progbits
 1165              		.align	1
 1166              		.global	setSHAR
 1167              		.code	16
 1168              		.thumb_func
 1169              		.type	setSHAR, %function
 1170              	setSHAR:
 1171              	.LFB23:
 373:.\w5200.c     **** 
 374:.\w5200.c     **** void clearSUBR(void)
 375:.\w5200.c     **** {
 376:.\w5200.c     **** 	getSIPR(&IPVAL[0]);
 377:.\w5200.c     **** 	if(IPVAL[0] ==0 &&IPVAL[1] ==0 &&IPVAL[2] ==0&&IPVAL[3] ==0)
 378:.\w5200.c     **** 	{
 379:.\w5200.c     **** 		IINCHIP_WRITE((SUBR0 + 0), 0);
 380:.\w5200.c     **** 		IINCHIP_WRITE((SUBR0 + 1), 0);
 381:.\w5200.c     **** 		IINCHIP_WRITE((SUBR0 + 2), 0);
 382:.\w5200.c     **** 		IINCHIP_WRITE((SUBR0 + 3), 0);
 383:.\w5200.c     **** 	}
 384:.\w5200.c     **** }
 385:.\w5200.c     **** 
ARM GAS  C:\Users\atsu\AppData\Local\Temp\ccDwwNoN.s 			page 29


 386:.\w5200.c     **** 
 387:.\w5200.c     **** /**
 388:.\w5200.c     **** @brief	This function sets up MAC address.
 389:.\w5200.c     **** */ 
 390:.\w5200.c     **** void setSHAR(
 391:.\w5200.c     **** 	uint8_t * addr	/**< a pointer to a 6 -byte array responsible to set the MAC address. */
 392:.\w5200.c     **** 	)
 393:.\w5200.c     **** {
 1172              		.loc 1 393 0
 1173              		.cfi_startproc
 1174              	.LVL83:
 1175 0000 10B5     		push	{r4, lr}
 1176              	.LCFI11:
 1177              		.cfi_def_cfa_offset 8
 1178              		.cfi_offset 4, -8
 1179              		.cfi_offset 14, -4
 1180              		.loc 1 393 0
 1181 0002 041C     		mov	r4, r0
 394:.\w5200.c     **** 	IINCHIP_WRITE((SHAR0 + 0),addr[0]);
 1182              		.loc 1 394 0
 1183 0004 0178     		ldrb	r1, [r0]
 1184 0006 0920     		mov	r0, #9
 1185              	.LVL84:
 1186 0008 FFF7FEFF 		bl	IINCHIP_WRITE
 1187              	.LVL85:
 395:.\w5200.c     **** 	IINCHIP_WRITE((SHAR0 + 1),addr[1]);
 1188              		.loc 1 395 0
 1189 000c 6178     		ldrb	r1, [r4, #1]
 1190 000e 0A20     		mov	r0, #10
 1191 0010 FFF7FEFF 		bl	IINCHIP_WRITE
 1192              	.LVL86:
 396:.\w5200.c     **** 	IINCHIP_WRITE((SHAR0 + 2),addr[2]);
 1193              		.loc 1 396 0
 1194 0014 A178     		ldrb	r1, [r4, #2]
 1195 0016 0B20     		mov	r0, #11
 1196 0018 FFF7FEFF 		bl	IINCHIP_WRITE
 1197              	.LVL87:
 397:.\w5200.c     **** 	IINCHIP_WRITE((SHAR0 + 3),addr[3]);
 1198              		.loc 1 397 0
 1199 001c E178     		ldrb	r1, [r4, #3]
 1200 001e 0C20     		mov	r0, #12
 1201 0020 FFF7FEFF 		bl	IINCHIP_WRITE
 1202              	.LVL88:
 398:.\w5200.c     **** 	IINCHIP_WRITE((SHAR0 + 4),addr[4]);
 1203              		.loc 1 398 0
 1204 0024 2179     		ldrb	r1, [r4, #4]
 1205 0026 0D20     		mov	r0, #13
 1206 0028 FFF7FEFF 		bl	IINCHIP_WRITE
 1207              	.LVL89:
 399:.\w5200.c     **** 	IINCHIP_WRITE((SHAR0 + 5),addr[5]);
 1208              		.loc 1 399 0
 1209 002c 6179     		ldrb	r1, [r4, #5]
 1210 002e 0E20     		mov	r0, #14
 1211 0030 FFF7FEFF 		bl	IINCHIP_WRITE
 1212              	.LVL90:
 400:.\w5200.c     **** }
 1213              		.loc 1 400 0
ARM GAS  C:\Users\atsu\AppData\Local\Temp\ccDwwNoN.s 			page 30


 1214              		@ sp needed for prologue
 1215              	.LVL91:
 1216 0034 10BD     		pop	{r4, pc}
 1217              		.cfi_endproc
 1218              	.LFE23:
 1219              		.size	setSHAR, .-setSHAR
 1220              		.section	.text.setSIPR,"ax",%progbits
 1221              		.align	1
 1222              		.global	setSIPR
 1223              		.code	16
 1224              		.thumb_func
 1225              		.type	setSIPR, %function
 1226              	setSIPR:
 1227              	.LFB24:
 401:.\w5200.c     **** 
 402:.\w5200.c     **** /**
 403:.\w5200.c     **** @brief	This function sets up Source IP address.
 404:.\w5200.c     **** */
 405:.\w5200.c     **** void setSIPR(
 406:.\w5200.c     **** 	uint8_t * addr	/**< a pointer to a 4 -byte array responsible to set the Source IP address. */
 407:.\w5200.c     **** 	)
 408:.\w5200.c     **** {
 1228              		.loc 1 408 0
 1229              		.cfi_startproc
 1230              	.LVL92:
 1231 0000 10B5     		push	{r4, lr}
 1232              	.LCFI12:
 1233              		.cfi_def_cfa_offset 8
 1234              		.cfi_offset 4, -8
 1235              		.cfi_offset 14, -4
 1236              		.loc 1 408 0
 1237 0002 041C     		mov	r4, r0
 409:.\w5200.c     **** 	IINCHIP_WRITE((SIPR0 + 0),addr[0]);
 1238              		.loc 1 409 0
 1239 0004 0178     		ldrb	r1, [r0]
 1240 0006 0F20     		mov	r0, #15
 1241              	.LVL93:
 1242 0008 FFF7FEFF 		bl	IINCHIP_WRITE
 1243              	.LVL94:
 410:.\w5200.c     **** 	IINCHIP_WRITE((SIPR0 + 1),addr[1]);
 1244              		.loc 1 410 0
 1245 000c 6178     		ldrb	r1, [r4, #1]
 1246 000e 1020     		mov	r0, #16
 1247 0010 FFF7FEFF 		bl	IINCHIP_WRITE
 1248              	.LVL95:
 411:.\w5200.c     **** 	IINCHIP_WRITE((SIPR0 + 2),addr[2]);
 1249              		.loc 1 411 0
 1250 0014 A178     		ldrb	r1, [r4, #2]
 1251 0016 1120     		mov	r0, #17
 1252 0018 FFF7FEFF 		bl	IINCHIP_WRITE
 1253              	.LVL96:
 412:.\w5200.c     **** 	IINCHIP_WRITE((SIPR0 + 3),addr[3]);
 1254              		.loc 1 412 0
 1255 001c E178     		ldrb	r1, [r4, #3]
 1256 001e 1220     		mov	r0, #18
 1257 0020 FFF7FEFF 		bl	IINCHIP_WRITE
 1258              	.LVL97:
ARM GAS  C:\Users\atsu\AppData\Local\Temp\ccDwwNoN.s 			page 31


 413:.\w5200.c     **** }
 1259              		.loc 1 413 0
 1260              		@ sp needed for prologue
 1261              	.LVL98:
 1262 0024 10BD     		pop	{r4, pc}
 1263              		.cfi_endproc
 1264              	.LFE24:
 1265              		.size	setSIPR, .-setSIPR
 1266              		.section	.text.getGAR,"ax",%progbits
 1267              		.align	1
 1268              		.global	getGAR
 1269              		.code	16
 1270              		.thumb_func
 1271              		.type	getGAR, %function
 1272              	getGAR:
 1273              	.LFB25:
 414:.\w5200.c     **** 
 415:.\w5200.c     **** /**
 416:.\w5200.c     **** @brief	This function sets up Source IP address.
 417:.\w5200.c     **** */
 418:.\w5200.c     **** void getGAR(uint8_t * addr)
 419:.\w5200.c     **** {
 1274              		.loc 1 419 0
 1275              		.cfi_startproc
 1276              	.LVL99:
 1277 0000 10B5     		push	{r4, lr}
 1278              	.LCFI13:
 1279              		.cfi_def_cfa_offset 8
 1280              		.cfi_offset 4, -8
 1281              		.cfi_offset 14, -4
 1282              		.loc 1 419 0
 1283 0002 041C     		mov	r4, r0
 420:.\w5200.c     **** 	addr[0] = IINCHIP_READ(GAR0);
 1284              		.loc 1 420 0
 1285 0004 0120     		mov	r0, #1
 1286              	.LVL100:
 1287 0006 FFF7FEFF 		bl	IINCHIP_READ
 1288              	.LVL101:
 1289 000a 2070     		strb	r0, [r4]
 421:.\w5200.c     **** 	addr[1] = IINCHIP_READ(GAR0+1);
 1290              		.loc 1 421 0
 1291 000c 0220     		mov	r0, #2
 1292 000e FFF7FEFF 		bl	IINCHIP_READ
 1293              	.LVL102:
 1294 0012 6070     		strb	r0, [r4, #1]
 422:.\w5200.c     **** 	addr[2] = IINCHIP_READ(GAR0+2);
 1295              		.loc 1 422 0
 1296 0014 0320     		mov	r0, #3
 1297 0016 FFF7FEFF 		bl	IINCHIP_READ
 1298              	.LVL103:
 1299 001a A070     		strb	r0, [r4, #2]
 423:.\w5200.c     **** 	addr[3] = IINCHIP_READ(GAR0+3);
 1300              		.loc 1 423 0
 1301 001c 0420     		mov	r0, #4
 1302 001e FFF7FEFF 		bl	IINCHIP_READ
 1303              	.LVL104:
 424:.\w5200.c     **** }
ARM GAS  C:\Users\atsu\AppData\Local\Temp\ccDwwNoN.s 			page 32


 1304              		.loc 1 424 0
 1305              		@ sp needed for prologue
 423:.\w5200.c     **** 	addr[3] = IINCHIP_READ(GAR0+3);
 1306              		.loc 1 423 0
 1307 0022 E070     		strb	r0, [r4, #3]
 1308              	.LVL105:
 1309              		.loc 1 424 0
 1310 0024 10BD     		pop	{r4, pc}
 1311              		.cfi_endproc
 1312              	.LFE25:
 1313              		.size	getGAR, .-getGAR
 1314              		.section	.text.getSUBR,"ax",%progbits
 1315              		.align	1
 1316              		.global	getSUBR
 1317              		.code	16
 1318              		.thumb_func
 1319              		.type	getSUBR, %function
 1320              	getSUBR:
 1321              	.LFB26:
 425:.\w5200.c     **** void getSUBR(uint8_t * addr)
 426:.\w5200.c     **** {
 1322              		.loc 1 426 0
 1323              		.cfi_startproc
 1324              	.LVL106:
 427:.\w5200.c     **** 	addr[0] = SUBNET[0];
 1325              		.loc 1 427 0
 1326 0000 084B     		ldr	r3, .L85
 428:.\w5200.c     **** 	addr[1] = SUBNET[1];
 429:.\w5200.c     **** 	addr[2] = SUBNET[2];
 430:.\w5200.c     **** 	addr[3] = SUBNET[3];
 431:.\w5200.c     **** }
 1327              		.loc 1 431 0
 1328              		@ sp needed for prologue
 427:.\w5200.c     **** 	addr[0] = SUBNET[0];
 1329              		.loc 1 427 0
 1330 0002 1A1C     		mov	r2, r3
 1331 0004 3432     		add	r2, r2, #52
 1332 0006 1178     		ldrb	r1, [r2]
 428:.\w5200.c     **** 	addr[1] = SUBNET[1];
 1333              		.loc 1 428 0
 1334 0008 1A1C     		mov	r2, r3
 427:.\w5200.c     **** 	addr[0] = SUBNET[0];
 1335              		.loc 1 427 0
 1336 000a 0170     		strb	r1, [r0]
 428:.\w5200.c     **** 	addr[1] = SUBNET[1];
 1337              		.loc 1 428 0
 1338 000c 3532     		add	r2, r2, #53
 1339 000e 1178     		ldrb	r1, [r2]
 429:.\w5200.c     **** 	addr[2] = SUBNET[2];
 1340              		.loc 1 429 0
 1341 0010 1A1C     		mov	r2, r3
 428:.\w5200.c     **** 	addr[1] = SUBNET[1];
 1342              		.loc 1 428 0
 1343 0012 4170     		strb	r1, [r0, #1]
 429:.\w5200.c     **** 	addr[2] = SUBNET[2];
 1344              		.loc 1 429 0
 1345 0014 3632     		add	r2, r2, #54
ARM GAS  C:\Users\atsu\AppData\Local\Temp\ccDwwNoN.s 			page 33


 1346 0016 1178     		ldrb	r1, [r2]
 430:.\w5200.c     **** 	addr[3] = SUBNET[3];
 1347              		.loc 1 430 0
 1348 0018 3733     		add	r3, r3, #55
 429:.\w5200.c     **** 	addr[2] = SUBNET[2];
 1349              		.loc 1 429 0
 1350 001a 8170     		strb	r1, [r0, #2]
 430:.\w5200.c     **** 	addr[3] = SUBNET[3];
 1351              		.loc 1 430 0
 1352 001c 1B78     		ldrb	r3, [r3]
 1353 001e C370     		strb	r3, [r0, #3]
 1354              		.loc 1 431 0
 1355 0020 7047     		bx	lr
 1356              	.L86:
 1357 0022 C046     		.align	2
 1358              	.L85:
 1359 0024 00000000 		.word	.LANCHOR0
 1360              		.cfi_endproc
 1361              	.LFE26:
 1362              		.size	getSUBR, .-getSUBR
 1363              		.section	.text.getSHAR,"ax",%progbits
 1364              		.align	1
 1365              		.global	getSHAR
 1366              		.code	16
 1367              		.thumb_func
 1368              		.type	getSHAR, %function
 1369              	getSHAR:
 1370              	.LFB27:
 432:.\w5200.c     **** void getSHAR(uint8_t * addr)
 433:.\w5200.c     **** {
 1371              		.loc 1 433 0
 1372              		.cfi_startproc
 1373              	.LVL107:
 1374 0000 10B5     		push	{r4, lr}
 1375              	.LCFI14:
 1376              		.cfi_def_cfa_offset 8
 1377              		.cfi_offset 4, -8
 1378              		.cfi_offset 14, -4
 1379              		.loc 1 433 0
 1380 0002 041C     		mov	r4, r0
 434:.\w5200.c     **** 	addr[0] = IINCHIP_READ(SHAR0);
 1381              		.loc 1 434 0
 1382 0004 0920     		mov	r0, #9
 1383              	.LVL108:
 1384 0006 FFF7FEFF 		bl	IINCHIP_READ
 1385              	.LVL109:
 1386 000a 2070     		strb	r0, [r4]
 435:.\w5200.c     **** 	addr[1] = IINCHIP_READ(SHAR0+1);
 1387              		.loc 1 435 0
 1388 000c 0A20     		mov	r0, #10
 1389 000e FFF7FEFF 		bl	IINCHIP_READ
 1390              	.LVL110:
 1391 0012 6070     		strb	r0, [r4, #1]
 436:.\w5200.c     **** 	addr[2] = IINCHIP_READ(SHAR0+2);
 1392              		.loc 1 436 0
 1393 0014 0B20     		mov	r0, #11
 1394 0016 FFF7FEFF 		bl	IINCHIP_READ
ARM GAS  C:\Users\atsu\AppData\Local\Temp\ccDwwNoN.s 			page 34


 1395              	.LVL111:
 1396 001a A070     		strb	r0, [r4, #2]
 437:.\w5200.c     **** 	addr[3] = IINCHIP_READ(SHAR0+3);
 1397              		.loc 1 437 0
 1398 001c 0C20     		mov	r0, #12
 1399 001e FFF7FEFF 		bl	IINCHIP_READ
 1400              	.LVL112:
 1401 0022 E070     		strb	r0, [r4, #3]
 438:.\w5200.c     **** 	addr[4] = IINCHIP_READ(SHAR0+4);
 1402              		.loc 1 438 0
 1403 0024 0D20     		mov	r0, #13
 1404 0026 FFF7FEFF 		bl	IINCHIP_READ
 1405              	.LVL113:
 1406 002a 2071     		strb	r0, [r4, #4]
 439:.\w5200.c     **** 	addr[5] = IINCHIP_READ(SHAR0+5);
 1407              		.loc 1 439 0
 1408 002c 0E20     		mov	r0, #14
 1409 002e FFF7FEFF 		bl	IINCHIP_READ
 1410              	.LVL114:
 440:.\w5200.c     **** }
 1411              		.loc 1 440 0
 1412              		@ sp needed for prologue
 439:.\w5200.c     **** 	addr[5] = IINCHIP_READ(SHAR0+5);
 1413              		.loc 1 439 0
 1414 0032 6071     		strb	r0, [r4, #5]
 1415              	.LVL115:
 1416              		.loc 1 440 0
 1417 0034 10BD     		pop	{r4, pc}
 1418              		.cfi_endproc
 1419              	.LFE27:
 1420              		.size	getSHAR, .-getSHAR
 1421              		.section	.text.getSIPR,"ax",%progbits
 1422              		.align	1
 1423              		.global	getSIPR
 1424              		.code	16
 1425              		.thumb_func
 1426              		.type	getSIPR, %function
 1427              	getSIPR:
 1428              	.LFB28:
 441:.\w5200.c     **** void getSIPR(uint8_t * addr)
 442:.\w5200.c     **** {
 1429              		.loc 1 442 0
 1430              		.cfi_startproc
 1431              	.LVL116:
 1432 0000 10B5     		push	{r4, lr}
 1433              	.LCFI15:
 1434              		.cfi_def_cfa_offset 8
 1435              		.cfi_offset 4, -8
 1436              		.cfi_offset 14, -4
 1437              		.loc 1 442 0
 1438 0002 041C     		mov	r4, r0
 443:.\w5200.c     **** 	addr[0] = IINCHIP_READ(SIPR0);
 1439              		.loc 1 443 0
 1440 0004 0F20     		mov	r0, #15
 1441              	.LVL117:
 1442 0006 FFF7FEFF 		bl	IINCHIP_READ
 1443              	.LVL118:
ARM GAS  C:\Users\atsu\AppData\Local\Temp\ccDwwNoN.s 			page 35


 1444 000a 2070     		strb	r0, [r4]
 444:.\w5200.c     **** 	addr[1] = IINCHIP_READ(SIPR0+1);
 1445              		.loc 1 444 0
 1446 000c 1020     		mov	r0, #16
 1447 000e FFF7FEFF 		bl	IINCHIP_READ
 1448              	.LVL119:
 1449 0012 6070     		strb	r0, [r4, #1]
 445:.\w5200.c     **** 	addr[2] = IINCHIP_READ(SIPR0+2);
 1450              		.loc 1 445 0
 1451 0014 1120     		mov	r0, #17
 1452 0016 FFF7FEFF 		bl	IINCHIP_READ
 1453              	.LVL120:
 1454 001a A070     		strb	r0, [r4, #2]
 446:.\w5200.c     **** 	addr[3] = IINCHIP_READ(SIPR0+3);
 1455              		.loc 1 446 0
 1456 001c 1220     		mov	r0, #18
 1457 001e FFF7FEFF 		bl	IINCHIP_READ
 1458              	.LVL121:
 447:.\w5200.c     **** }
 1459              		.loc 1 447 0
 1460              		@ sp needed for prologue
 446:.\w5200.c     **** 	addr[3] = IINCHIP_READ(SIPR0+3);
 1461              		.loc 1 446 0
 1462 0022 E070     		strb	r0, [r4, #3]
 1463              	.LVL122:
 1464              		.loc 1 447 0
 1465 0024 10BD     		pop	{r4, pc}
 1466              		.cfi_endproc
 1467              	.LFE28:
 1468              		.size	getSIPR, .-getSIPR
 1469              		.section	.text.clearSUBR,"ax",%progbits
 1470              		.align	1
 1471              		.global	clearSUBR
 1472              		.code	16
 1473              		.thumb_func
 1474              		.type	clearSUBR, %function
 1475              	clearSUBR:
 1476              	.LFB22:
 375:.\w5200.c     **** {
 1477              		.loc 1 375 0
 1478              		.cfi_startproc
 1479 0000 38B5     		push	{r3, r4, r5, lr}
 1480              	.LCFI16:
 1481              		.cfi_def_cfa_offset 16
 1482              		.cfi_offset 3, -16
 1483              		.cfi_offset 4, -12
 1484              		.cfi_offset 5, -8
 1485              		.cfi_offset 14, -4
 376:.\w5200.c     **** 	getSIPR(&IPVAL[0]);
 1486              		.loc 1 376 0
 1487 0002 144C     		ldr	r4, .L91
 1488 0004 251C     		mov	r5, r4
 1489 0006 3835     		add	r5, r5, #56
 1490 0008 281C     		mov	r0, r5
 1491 000a FFF7FEFF 		bl	getSIPR
 1492              	.LVL123:
 377:.\w5200.c     **** 	if(IPVAL[0] ==0 &&IPVAL[1] ==0 &&IPVAL[2] ==0&&IPVAL[3] ==0)
ARM GAS  C:\Users\atsu\AppData\Local\Temp\ccDwwNoN.s 			page 36


 1493              		.loc 1 377 0
 1494 000e 2B78     		ldrb	r3, [r5]
 1495 0010 002B     		cmp	r3, #0
 1496 0012 1DD1     		bne	.L89
 377:.\w5200.c     **** 	if(IPVAL[0] ==0 &&IPVAL[1] ==0 &&IPVAL[2] ==0&&IPVAL[3] ==0)
 1497              		.loc 1 377 0 is_stmt 0 discriminator 1
 1498 0014 201C     		mov	r0, r4
 1499 0016 3930     		add	r0, r0, #57
 1500 0018 0178     		ldrb	r1, [r0]
 1501 001a 0029     		cmp	r1, #0
 1502 001c 18D1     		bne	.L89
 1503 001e 221C     		mov	r2, r4
 1504 0020 3A32     		add	r2, r2, #58
 1505 0022 1578     		ldrb	r5, [r2]
 1506 0024 002D     		cmp	r5, #0
 1507 0026 13D1     		bne	.L89
 1508 0028 3B34     		add	r4, r4, #59
 1509 002a 2478     		ldrb	r4, [r4]
 1510 002c 002C     		cmp	r4, #0
 1511 002e 0FD1     		bne	.L89
 379:.\w5200.c     **** 		IINCHIP_WRITE((SUBR0 + 0), 0);
 1512              		.loc 1 379 0 is_stmt 1
 1513 0030 211C     		mov	r1, r4
 1514 0032 0520     		mov	r0, #5
 1515 0034 FFF7FEFF 		bl	IINCHIP_WRITE
 1516              	.LVL124:
 380:.\w5200.c     **** 		IINCHIP_WRITE((SUBR0 + 1), 0);
 1517              		.loc 1 380 0
 1518 0038 211C     		mov	r1, r4
 1519 003a 0620     		mov	r0, #6
 1520 003c FFF7FEFF 		bl	IINCHIP_WRITE
 1521              	.LVL125:
 381:.\w5200.c     **** 		IINCHIP_WRITE((SUBR0 + 2), 0);
 1522              		.loc 1 381 0
 1523 0040 211C     		mov	r1, r4
 1524 0042 0720     		mov	r0, #7
 1525 0044 FFF7FEFF 		bl	IINCHIP_WRITE
 1526              	.LVL126:
 382:.\w5200.c     **** 		IINCHIP_WRITE((SUBR0 + 3), 0);
 1527              		.loc 1 382 0
 1528 0048 0820     		mov	r0, #8
 1529 004a 211C     		mov	r1, r4
 1530 004c FFF7FEFF 		bl	IINCHIP_WRITE
 1531              	.LVL127:
 1532              	.L89:
 384:.\w5200.c     **** }
 1533              		.loc 1 384 0
 1534              		@ sp needed for prologue
 1535 0050 38BD     		pop	{r3, r4, r5, pc}
 1536              	.L92:
 1537 0052 C046     		.align	2
 1538              	.L91:
 1539 0054 00000000 		.word	.LANCHOR0
 1540              		.cfi_endproc
 1541              	.LFE22:
 1542              		.size	clearSUBR, .-clearSUBR
 1543              		.section	.text.setMR,"ax",%progbits
ARM GAS  C:\Users\atsu\AppData\Local\Temp\ccDwwNoN.s 			page 37


 1544              		.align	1
 1545              		.global	setMR
 1546              		.code	16
 1547              		.thumb_func
 1548              		.type	setMR, %function
 1549              	setMR:
 1550              	.LFB29:
 448:.\w5200.c     **** 
 449:.\w5200.c     **** void setMR(uint8_t val)
 450:.\w5200.c     **** {
 1551              		.loc 1 450 0
 1552              		.cfi_startproc
 1553              	.LVL128:
 1554 0000 08B5     		push	{r3, lr}
 1555              	.LCFI17:
 1556              		.cfi_def_cfa_offset 8
 1557              		.cfi_offset 3, -8
 1558              		.cfi_offset 14, -4
 1559              		.loc 1 450 0
 1560 0002 011C     		mov	r1, r0
 451:.\w5200.c     **** 	IINCHIP_WRITE(MR,val);
 1561              		.loc 1 451 0
 1562 0004 0020     		mov	r0, #0
 1563              	.LVL129:
 1564 0006 FFF7FEFF 		bl	IINCHIP_WRITE
 1565              	.LVL130:
 452:.\w5200.c     **** }
 1566              		.loc 1 452 0
 1567              		@ sp needed for prologue
 1568 000a 08BD     		pop	{r3, pc}
 1569              		.cfi_endproc
 1570              	.LFE29:
 1571              		.size	setMR, .-setMR
 1572              		.section	.text.iinchip_init,"ax",%progbits
 1573              		.align	1
 1574              		.global	iinchip_init
 1575              		.code	16
 1576              		.thumb_func
 1577              		.type	iinchip_init, %function
 1578              	iinchip_init:
 1579              	.LFB17:
 201:.\w5200.c     **** {	
 1580              		.loc 1 201 0
 1581              		.cfi_startproc
 1582 0000 08B5     		push	{r3, lr}
 1583              	.LCFI18:
 1584              		.cfi_def_cfa_offset 8
 1585              		.cfi_offset 3, -8
 1586              		.cfi_offset 14, -4
 202:.\w5200.c     **** 	setMR( MR_RST );
 1587              		.loc 1 202 0
 1588 0002 8020     		mov	r0, #128
 1589 0004 FFF7FEFF 		bl	setMR
 1590              	.LVL131:
 206:.\w5200.c     **** }
 1591              		.loc 1 206 0
 1592              		@ sp needed for prologue
ARM GAS  C:\Users\atsu\AppData\Local\Temp\ccDwwNoN.s 			page 38


 1593 0008 08BD     		pop	{r3, pc}
 1594              		.cfi_endproc
 1595              	.LFE17:
 1596              		.size	iinchip_init, .-iinchip_init
 1597              		.section	.text.getIR,"ax",%progbits
 1598              		.align	1
 1599              		.global	getIR
 1600              		.code	16
 1601              		.thumb_func
 1602              		.type	getIR, %function
 1603              	getIR:
 1604              	.LFB30:
 453:.\w5200.c     **** 
 454:.\w5200.c     **** /**
 455:.\w5200.c     **** @brief	This function gets Interrupt register in common register.
 456:.\w5200.c     ****  */
 457:.\w5200.c     **** uint8_t getIR( void )
 458:.\w5200.c     **** {
 1605              		.loc 1 458 0
 1606              		.cfi_startproc
 1607 0000 08B5     		push	{r3, lr}
 1608              	.LCFI19:
 1609              		.cfi_def_cfa_offset 8
 1610              		.cfi_offset 3, -8
 1611              		.cfi_offset 14, -4
 459:.\w5200.c     ****    return IINCHIP_READ(IR);
 1612              		.loc 1 459 0
 1613 0002 1520     		mov	r0, #21
 1614 0004 FFF7FEFF 		bl	IINCHIP_READ
 1615              	.LVL132:
 460:.\w5200.c     **** }
 1616              		.loc 1 460 0
 1617              		@ sp needed for prologue
 1618 0008 08BD     		pop	{r3, pc}
 1619              		.cfi_endproc
 1620              	.LFE30:
 1621              		.size	getIR, .-getIR
 1622              		.section	.text.setRTR,"ax",%progbits
 1623              		.align	1
 1624              		.global	setRTR
 1625              		.code	16
 1626              		.thumb_func
 1627              		.type	setRTR, %function
 1628              	setRTR:
 1629              	.LFB31:
 461:.\w5200.c     **** 
 462:.\w5200.c     **** 
 463:.\w5200.c     **** /**
 464:.\w5200.c     ****  Retransmittion 
 465:.\w5200.c     ****  **/
 466:.\w5200.c     ****  
 467:.\w5200.c     **** /**
 468:.\w5200.c     **** @brief	This function sets up Retransmission time.
 469:.\w5200.c     **** 
 470:.\w5200.c     **** If there is no response from the peer or delay in response then retransmission 
 471:.\w5200.c     **** will be there as per RTR (Retry Time-value Register)setting
 472:.\w5200.c     **** */
ARM GAS  C:\Users\atsu\AppData\Local\Temp\ccDwwNoN.s 			page 39


 473:.\w5200.c     **** void setRTR(uint16_t timeout)
 474:.\w5200.c     **** {
 1630              		.loc 1 474 0
 1631              		.cfi_startproc
 1632              	.LVL133:
 1633 0000 10B5     		push	{r4, lr}
 1634              	.LCFI20:
 1635              		.cfi_def_cfa_offset 8
 1636              		.cfi_offset 4, -8
 1637              		.cfi_offset 14, -4
 475:.\w5200.c     **** 	IINCHIP_WRITE(RTR,(uint8_t)((timeout & 0xff00) >> 8));
 1638              		.loc 1 475 0
 1639 0002 010A     		lsr	r1, r0, #8
 474:.\w5200.c     **** {
 1640              		.loc 1 474 0
 1641 0004 041C     		mov	r4, r0
 1642              		.loc 1 475 0
 1643 0006 1720     		mov	r0, #23
 1644              	.LVL134:
 1645 0008 FFF7FEFF 		bl	IINCHIP_WRITE
 1646              	.LVL135:
 476:.\w5200.c     **** 	IINCHIP_WRITE((RTR + 1),(uint8_t)(timeout & 0x00ff));
 1647              		.loc 1 476 0
 1648 000c E1B2     		uxtb	r1, r4
 1649 000e 1820     		mov	r0, #24
 1650 0010 FFF7FEFF 		bl	IINCHIP_WRITE
 1651              	.LVL136:
 477:.\w5200.c     **** }
 1652              		.loc 1 477 0
 1653              		@ sp needed for prologue
 1654 0014 10BD     		pop	{r4, pc}
 1655              		.cfi_endproc
 1656              	.LFE31:
 1657              		.size	setRTR, .-setRTR
 1658              		.section	.text.setRCR,"ax",%progbits
 1659              		.align	1
 1660              		.global	setRCR
 1661              		.code	16
 1662              		.thumb_func
 1663              		.type	setRCR, %function
 1664              	setRCR:
 1665              	.LFB32:
 478:.\w5200.c     **** 
 479:.\w5200.c     **** /**
 480:.\w5200.c     **** @brief	This function set the number of Retransmission.
 481:.\w5200.c     **** 
 482:.\w5200.c     **** If there is no response from the peer or delay in response then recorded time 
 483:.\w5200.c     **** as per RTR & RCR register seeting then time out will occur.
 484:.\w5200.c     **** */
 485:.\w5200.c     **** void setRCR(uint8_t retry)
 486:.\w5200.c     **** {
 1666              		.loc 1 486 0
 1667              		.cfi_startproc
 1668              	.LVL137:
 1669 0000 08B5     		push	{r3, lr}
 1670              	.LCFI21:
 1671              		.cfi_def_cfa_offset 8
ARM GAS  C:\Users\atsu\AppData\Local\Temp\ccDwwNoN.s 			page 40


 1672              		.cfi_offset 3, -8
 1673              		.cfi_offset 14, -4
 1674              		.loc 1 486 0
 1675 0002 011C     		mov	r1, r0
 487:.\w5200.c     **** 	IINCHIP_WRITE(RCR,retry);
 1676              		.loc 1 487 0
 1677 0004 1920     		mov	r0, #25
 1678              	.LVL138:
 1679 0006 FFF7FEFF 		bl	IINCHIP_WRITE
 1680              	.LVL139:
 488:.\w5200.c     **** }
 1681              		.loc 1 488 0
 1682              		@ sp needed for prologue
 1683 000a 08BD     		pop	{r3, pc}
 1684              		.cfi_endproc
 1685              	.LFE32:
 1686              		.size	setRCR, .-setRCR
 1687              		.section	.text.setIMR,"ax",%progbits
 1688              		.align	1
 1689              		.global	setIMR
 1690              		.code	16
 1691              		.thumb_func
 1692              		.type	setIMR, %function
 1693              	setIMR:
 1694              	.LFB33:
 489:.\w5200.c     **** 
 490:.\w5200.c     **** 
 491:.\w5200.c     **** 
 492:.\w5200.c     **** 
 493:.\w5200.c     **** /**
 494:.\w5200.c     **** @brief	This function set the interrupt mask Enable/Disable appropriate Interrupt. ('1' : interrupt 
 495:.\w5200.c     **** 
 496:.\w5200.c     **** If any bit in IMR is set as '0' then there is not interrupt signal though the bit is
 497:.\w5200.c     **** set in IR register.
 498:.\w5200.c     **** */
 499:.\w5200.c     **** void setIMR(uint8_t mask)
 500:.\w5200.c     **** {
 1695              		.loc 1 500 0
 1696              		.cfi_startproc
 1697              	.LVL140:
 1698 0000 08B5     		push	{r3, lr}
 1699              	.LCFI22:
 1700              		.cfi_def_cfa_offset 8
 1701              		.cfi_offset 3, -8
 1702              		.cfi_offset 14, -4
 1703              		.loc 1 500 0
 1704 0002 011C     		mov	r1, r0
 501:.\w5200.c     **** 	IINCHIP_WRITE(IMR,mask); // must be setted 0x10.
 1705              		.loc 1 501 0
 1706 0004 3620     		mov	r0, #54
 1707              	.LVL141:
 1708 0006 FFF7FEFF 		bl	IINCHIP_WRITE
 1709              	.LVL142:
 502:.\w5200.c     **** }
 1710              		.loc 1 502 0
 1711              		@ sp needed for prologue
 1712 000a 08BD     		pop	{r3, pc}
ARM GAS  C:\Users\atsu\AppData\Local\Temp\ccDwwNoN.s 			page 41


 1713              		.cfi_endproc
 1714              	.LFE33:
 1715              		.size	setIMR, .-setIMR
 1716              		.section	.text.setSn_MSS,"ax",%progbits
 1717              		.align	1
 1718              		.global	setSn_MSS
 1719              		.code	16
 1720              		.thumb_func
 1721              		.type	setSn_MSS, %function
 1722              	setSn_MSS:
 1723              	.LFB34:
 503:.\w5200.c     **** 
 504:.\w5200.c     **** /**
 505:.\w5200.c     **** @brief	This sets the maximum segment size of TCP in Active Mode), while in Passive Mode this is set
 506:.\w5200.c     **** */
 507:.\w5200.c     **** void setSn_MSS(SOCKET s, uint16_t Sn_MSSR0)
 508:.\w5200.c     **** {
 1724              		.loc 1 508 0
 1725              		.cfi_startproc
 1726              	.LVL143:
 1727 0000 38B5     		push	{r3, r4, r5, lr}
 1728              	.LCFI23:
 1729              		.cfi_def_cfa_offset 16
 1730              		.cfi_offset 3, -16
 1731              		.cfi_offset 4, -12
 1732              		.cfi_offset 5, -8
 1733              		.cfi_offset 14, -4
 509:.\w5200.c     **** 	IINCHIP_WRITE(Sn_MSSR0(s),(uint8_t)((Sn_MSSR0 & 0xff00) >> 8));
 1734              		.loc 1 509 0
 1735 0002 051C     		mov	r5, r0
 1736 0004 4035     		add	r5, r5, #64
 1737 0006 2802     		lsl	r0, r5, #8
 1738              	.LVL144:
 1739 0008 85B2     		uxth	r5, r0
 508:.\w5200.c     **** {
 1740              		.loc 1 508 0
 1741 000a 0C1C     		mov	r4, r1
 1742              		.loc 1 509 0
 1743 000c 291C     		mov	r1, r5
 1744              	.LVL145:
 1745 000e 1231     		add	r1, r1, #18
 510:.\w5200.c     **** 	IINCHIP_WRITE((Sn_MSSR0(s) + 1),(uint8_t)(Sn_MSSR0 & 0x00ff));
 1746              		.loc 1 510 0
 1747 0010 1335     		add	r5, r5, #19
 509:.\w5200.c     **** 	IINCHIP_WRITE(Sn_MSSR0(s),(uint8_t)((Sn_MSSR0 & 0xff00) >> 8));
 1748              		.loc 1 509 0
 1749 0012 88B2     		uxth	r0, r1
 1750 0014 210A     		lsr	r1, r4, #8
 1751 0016 FFF7FEFF 		bl	IINCHIP_WRITE
 1752              	.LVL146:
 1753              		.loc 1 510 0
 1754 001a A8B2     		uxth	r0, r5
 1755 001c E1B2     		uxtb	r1, r4
 1756 001e FFF7FEFF 		bl	IINCHIP_WRITE
 1757              	.LVL147:
 511:.\w5200.c     **** }
 1758              		.loc 1 511 0
ARM GAS  C:\Users\atsu\AppData\Local\Temp\ccDwwNoN.s 			page 42


 1759              		@ sp needed for prologue
 1760 0022 38BD     		pop	{r3, r4, r5, pc}
 1761              		.cfi_endproc
 1762              	.LFE34:
 1763              		.size	setSn_MSS, .-setSn_MSS
 1764              		.section	.text.setSn_TTL,"ax",%progbits
 1765              		.align	1
 1766              		.global	setSn_TTL
 1767              		.code	16
 1768              		.thumb_func
 1769              		.type	setSn_TTL, %function
 1770              	setSn_TTL:
 1771              	.LFB35:
 512:.\w5200.c     **** 
 513:.\w5200.c     **** void setSn_TTL(SOCKET s, uint8_t ttl)
 514:.\w5200.c     **** {
 1772              		.loc 1 514 0
 1773              		.cfi_startproc
 1774              	.LVL148:
 1775 0000 08B5     		push	{r3, lr}
 1776              	.LCFI24:
 1777              		.cfi_def_cfa_offset 8
 1778              		.cfi_offset 3, -8
 1779              		.cfi_offset 14, -4
 515:.\w5200.c     ****    IINCHIP_WRITE(Sn_TTL(s), ttl);
 1780              		.loc 1 515 0
 1781 0002 034B     		ldr	r3, .L101
 1782 0004 0002     		lsl	r0, r0, #8
 1783              	.LVL149:
 1784 0006 C218     		add	r2, r0, r3
 1785 0008 90B2     		uxth	r0, r2
 1786 000a FFF7FEFF 		bl	IINCHIP_WRITE
 1787              	.LVL150:
 516:.\w5200.c     **** }
 1788              		.loc 1 516 0
 1789              		@ sp needed for prologue
 1790 000e 08BD     		pop	{r3, pc}
 1791              	.L102:
 1792              		.align	2
 1793              	.L101:
 1794 0010 16400000 		.word	16406
 1795              		.cfi_endproc
 1796              	.LFE35:
 1797              		.size	setSn_TTL, .-setSn_TTL
 1798              		.section	.text.setSn_PROTO,"ax",%progbits
 1799              		.align	1
 1800              		.global	setSn_PROTO
 1801              		.code	16
 1802              		.thumb_func
 1803              		.type	setSn_PROTO, %function
 1804              	setSn_PROTO:
 1805              	.LFB36:
 517:.\w5200.c     **** 
 518:.\w5200.c     **** 
 519:.\w5200.c     **** /**
 520:.\w5200.c     **** @brief	These below function is used to setup the Protocol Field of IP Header when
 521:.\w5200.c     **** 		executing the IP Layer RAW mode.
ARM GAS  C:\Users\atsu\AppData\Local\Temp\ccDwwNoN.s 			page 43


 522:.\w5200.c     **** */
 523:.\w5200.c     **** void setSn_PROTO(SOCKET s, uint8_t proto)
 524:.\w5200.c     **** {
 1806              		.loc 1 524 0
 1807              		.cfi_startproc
 1808              	.LVL151:
 1809 0000 08B5     		push	{r3, lr}
 1810              	.LCFI25:
 1811              		.cfi_def_cfa_offset 8
 1812              		.cfi_offset 3, -8
 1813              		.cfi_offset 14, -4
 525:.\w5200.c     **** 	IINCHIP_WRITE(Sn_PROTO(s),proto);
 1814              		.loc 1 525 0
 1815 0002 034B     		ldr	r3, .L104
 1816 0004 0002     		lsl	r0, r0, #8
 1817              	.LVL152:
 1818 0006 C218     		add	r2, r0, r3
 1819 0008 90B2     		uxth	r0, r2
 1820 000a FFF7FEFF 		bl	IINCHIP_WRITE
 1821              	.LVL153:
 526:.\w5200.c     **** }
 1822              		.loc 1 526 0
 1823              		@ sp needed for prologue
 1824 000e 08BD     		pop	{r3, pc}
 1825              	.L105:
 1826              		.align	2
 1827              	.L104:
 1828 0010 14400000 		.word	16404
 1829              		.cfi_endproc
 1830              	.LFE36:
 1831              		.size	setSn_PROTO, .-setSn_PROTO
 1832              		.section	.text.getSn_IR,"ax",%progbits
 1833              		.align	1
 1834              		.global	getSn_IR
 1835              		.code	16
 1836              		.thumb_func
 1837              		.type	getSn_IR, %function
 1838              	getSn_IR:
 1839              	.LFB37:
 527:.\w5200.c     **** 
 528:.\w5200.c     **** 
 529:.\w5200.c     **** /**
 530:.\w5200.c     **** @brief	get socket interrupt status
 531:.\w5200.c     **** 
 532:.\w5200.c     **** These below functions are used to read the Interrupt & Soket Status register
 533:.\w5200.c     **** */
 534:.\w5200.c     **** uint8_t getSn_IR(SOCKET s)
 535:.\w5200.c     **** {
 1840              		.loc 1 535 0
 1841              		.cfi_startproc
 1842              	.LVL154:
 1843 0000 08B5     		push	{r3, lr}
 1844              	.LCFI26:
 1845              		.cfi_def_cfa_offset 8
 1846              		.cfi_offset 3, -8
 1847              		.cfi_offset 14, -4
 536:.\w5200.c     ****    return IINCHIP_READ(Sn_IR(s));
ARM GAS  C:\Users\atsu\AppData\Local\Temp\ccDwwNoN.s 			page 44


 1848              		.loc 1 536 0
 1849 0002 034B     		ldr	r3, .L107
 1850 0004 0002     		lsl	r0, r0, #8
 1851              	.LVL155:
 1852 0006 C118     		add	r1, r0, r3
 1853 0008 88B2     		uxth	r0, r1
 1854 000a FFF7FEFF 		bl	IINCHIP_READ
 1855              	.LVL156:
 537:.\w5200.c     **** }
 1856              		.loc 1 537 0
 1857              		@ sp needed for prologue
 1858 000e 08BD     		pop	{r3, pc}
 1859              	.L108:
 1860              		.align	2
 1861              	.L107:
 1862 0010 02400000 		.word	16386
 1863              		.cfi_endproc
 1864              	.LFE37:
 1865              		.size	getSn_IR, .-getSn_IR
 1866              		.section	.text.getSn_SR,"ax",%progbits
 1867              		.align	1
 1868              		.global	getSn_SR
 1869              		.code	16
 1870              		.thumb_func
 1871              		.type	getSn_SR, %function
 1872              	getSn_SR:
 1873              	.LFB38:
 538:.\w5200.c     **** 
 539:.\w5200.c     **** 
 540:.\w5200.c     **** /**
 541:.\w5200.c     **** @brief	 get socket status
 542:.\w5200.c     **** */
 543:.\w5200.c     **** uint8_t getSn_SR(SOCKET s)
 544:.\w5200.c     **** {
 1874              		.loc 1 544 0
 1875              		.cfi_startproc
 1876              	.LVL157:
 1877 0000 08B5     		push	{r3, lr}
 1878              	.LCFI27:
 1879              		.cfi_def_cfa_offset 8
 1880              		.cfi_offset 3, -8
 1881              		.cfi_offset 14, -4
 545:.\w5200.c     ****    return IINCHIP_READ(Sn_SR(s));
 1882              		.loc 1 545 0
 1883 0002 034B     		ldr	r3, .L110
 1884 0004 0002     		lsl	r0, r0, #8
 1885              	.LVL158:
 1886 0006 C118     		add	r1, r0, r3
 1887 0008 88B2     		uxth	r0, r1
 1888 000a FFF7FEFF 		bl	IINCHIP_READ
 1889              	.LVL159:
 546:.\w5200.c     **** }
 1890              		.loc 1 546 0
 1891              		@ sp needed for prologue
 1892 000e 08BD     		pop	{r3, pc}
 1893              	.L111:
 1894              		.align	2
ARM GAS  C:\Users\atsu\AppData\Local\Temp\ccDwwNoN.s 			page 45


 1895              	.L110:
 1896 0010 03400000 		.word	16387
 1897              		.cfi_endproc
 1898              	.LFE38:
 1899              		.size	getSn_SR, .-getSn_SR
 1900              		.section	.text.getSn_TX_FSR,"ax",%progbits
 1901              		.align	1
 1902              		.global	getSn_TX_FSR
 1903              		.code	16
 1904              		.thumb_func
 1905              		.type	getSn_TX_FSR, %function
 1906              	getSn_TX_FSR:
 1907              	.LFB39:
 547:.\w5200.c     **** 
 548:.\w5200.c     **** 
 549:.\w5200.c     **** /**
 550:.\w5200.c     **** @brief	get socket TX free buf size
 551:.\w5200.c     **** 
 552:.\w5200.c     **** This gives free buffer size of transmit buffer. This is the data size that user can transmit.
 553:.\w5200.c     **** User shuold check this value first and control the size of transmitting data
 554:.\w5200.c     **** */
 555:.\w5200.c     **** uint16_t getSn_TX_FSR(SOCKET s)
 556:.\w5200.c     **** {
 1908              		.loc 1 556 0
 1909              		.cfi_startproc
 1910              	.LVL160:
 1911 0000 F8B5     		push	{r3, r4, r5, r6, r7, lr}
 1912              	.LCFI28:
 1913              		.cfi_def_cfa_offset 24
 1914              		.cfi_offset 3, -24
 1915              		.cfi_offset 4, -20
 1916              		.cfi_offset 5, -16
 1917              		.cfi_offset 6, -12
 1918              		.cfi_offset 7, -8
 1919              		.cfi_offset 14, -4
 557:.\w5200.c     **** 	uint16_t val=0,val1=0;
 558:.\w5200.c     **** 	do
 559:.\w5200.c     **** 	{
 560:.\w5200.c     **** 		val1 = IINCHIP_READ(Sn_TX_FSR0(s));
 1920              		.loc 1 560 0
 1921 0002 071C     		mov	r7, r0
 1922 0004 4037     		add	r7, r7, #64
 1923 0006 3802     		lsl	r0, r7, #8
 1924              	.LVL161:
 1925 0008 81B2     		uxth	r1, r0
 1926 000a 0E1C     		mov	r6, r1
 1927 000c 2036     		add	r6, r6, #32
 561:.\w5200.c     **** 		val1 = (val1 << 8) + IINCHIP_READ(Sn_TX_FSR0(s) + 1);
 1928              		.loc 1 561 0
 1929 000e 2131     		add	r1, r1, #33
 560:.\w5200.c     **** 		val1 = IINCHIP_READ(Sn_TX_FSR0(s));
 1930              		.loc 1 560 0
 1931 0010 B6B2     		uxth	r6, r6
 1932              		.loc 1 561 0
 1933 0012 8FB2     		uxth	r7, r1
 557:.\w5200.c     **** 	uint16_t val=0,val1=0;
 1934              		.loc 1 557 0
ARM GAS  C:\Users\atsu\AppData\Local\Temp\ccDwwNoN.s 			page 46


 1935 0014 0024     		mov	r4, #0
 1936              	.LVL162:
 1937              	.L114:
 560:.\w5200.c     **** 		val1 = IINCHIP_READ(Sn_TX_FSR0(s));
 1938              		.loc 1 560 0
 1939 0016 301C     		mov	r0, r6
 1940 0018 FFF7FEFF 		bl	IINCHIP_READ
 1941              	.LVL163:
 1942              		.loc 1 561 0
 1943 001c 0502     		lsl	r5, r0, #8
 1944 001e 381C     		mov	r0, r7
 1945              	.LVL164:
 1946 0020 FFF7FEFF 		bl	IINCHIP_READ
 1947              	.LVL165:
 1948 0024 ADB2     		uxth	r5, r5
 1949 0026 2A18     		add	r2, r5, r0
 1950 0028 95B2     		uxth	r5, r2
 1951              	.LVL166:
 562:.\w5200.c     ****       if (val1 != 0)
 1952              		.loc 1 562 0
 1953 002a 002D     		cmp	r5, #0
 1954 002c 09D0     		beq	.L113
 563:.\w5200.c     **** 		{
 564:.\w5200.c     ****    			val = IINCHIP_READ(Sn_TX_FSR0(s));
 1955              		.loc 1 564 0
 1956 002e 301C     		mov	r0, r6
 1957 0030 FFF7FEFF 		bl	IINCHIP_READ
 1958              	.LVL167:
 565:.\w5200.c     ****    			val = (val << 8) + IINCHIP_READ(Sn_TX_FSR0(s) + 1);
 1959              		.loc 1 565 0
 1960 0034 0402     		lsl	r4, r0, #8
 1961 0036 381C     		mov	r0, r7
 1962              	.LVL168:
 1963 0038 FFF7FEFF 		bl	IINCHIP_READ
 1964              	.LVL169:
 1965 003c A4B2     		uxth	r4, r4
 1966 003e 2318     		add	r3, r4, r0
 1967 0040 9CB2     		uxth	r4, r3
 1968              	.LVL170:
 1969              	.L113:
 566:.\w5200.c     **** 		}
 567:.\w5200.c     **** 	} while (val != val1);
 1970              		.loc 1 567 0
 1971 0042 AC42     		cmp	r4, r5
 1972 0044 E7D1     		bne	.L114
 568:.\w5200.c     ****    return val;
 569:.\w5200.c     **** }
 1973              		.loc 1 569 0
 1974 0046 201C     		mov	r0, r4
 1975              		@ sp needed for prologue
 1976              	.LVL171:
 1977              	.LVL172:
 1978 0048 F8BD     		pop	{r3, r4, r5, r6, r7, pc}
 1979              		.cfi_endproc
 1980              	.LFE39:
 1981              		.size	getSn_TX_FSR, .-getSn_TX_FSR
 1982              		.section	.text.getSn_RX_RSR,"ax",%progbits
ARM GAS  C:\Users\atsu\AppData\Local\Temp\ccDwwNoN.s 			page 47


 1983              		.align	1
 1984              		.global	getSn_RX_RSR
 1985              		.code	16
 1986              		.thumb_func
 1987              		.type	getSn_RX_RSR, %function
 1988              	getSn_RX_RSR:
 1989              	.LFB40:
 570:.\w5200.c     **** 
 571:.\w5200.c     **** 
 572:.\w5200.c     **** /**
 573:.\w5200.c     **** @brief	 get socket RX recv buf size
 574:.\w5200.c     **** 
 575:.\w5200.c     **** This gives size of received data in receive buffer. 
 576:.\w5200.c     **** */
 577:.\w5200.c     **** uint16_t getSn_RX_RSR(SOCKET s)
 578:.\w5200.c     **** {
 1990              		.loc 1 578 0
 1991              		.cfi_startproc
 1992              	.LVL173:
 1993 0000 F8B5     		push	{r3, r4, r5, r6, r7, lr}
 1994              	.LCFI29:
 1995              		.cfi_def_cfa_offset 24
 1996              		.cfi_offset 3, -24
 1997              		.cfi_offset 4, -20
 1998              		.cfi_offset 5, -16
 1999              		.cfi_offset 6, -12
 2000              		.cfi_offset 7, -8
 2001              		.cfi_offset 14, -4
 579:.\w5200.c     **** 	uint16_t val=0,val1=0;
 580:.\w5200.c     **** 	do
 581:.\w5200.c     **** 	{
 582:.\w5200.c     **** 		val1 = IINCHIP_READ(Sn_RX_RSR0(s));
 2002              		.loc 1 582 0
 2003 0002 071C     		mov	r7, r0
 2004 0004 4037     		add	r7, r7, #64
 2005 0006 3802     		lsl	r0, r7, #8
 2006              	.LVL174:
 2007 0008 81B2     		uxth	r1, r0
 2008 000a 0E1C     		mov	r6, r1
 2009 000c 2636     		add	r6, r6, #38
 583:.\w5200.c     **** 		val1 = (val1 << 8) + IINCHIP_READ(Sn_RX_RSR0(s) + 1);
 2010              		.loc 1 583 0
 2011 000e 2731     		add	r1, r1, #39
 582:.\w5200.c     **** 		val1 = IINCHIP_READ(Sn_RX_RSR0(s));
 2012              		.loc 1 582 0
 2013 0010 B6B2     		uxth	r6, r6
 2014              		.loc 1 583 0
 2015 0012 8FB2     		uxth	r7, r1
 579:.\w5200.c     **** 	uint16_t val=0,val1=0;
 2016              		.loc 1 579 0
 2017 0014 0024     		mov	r4, #0
 2018              	.LVL175:
 2019              	.L121:
 582:.\w5200.c     **** 		val1 = IINCHIP_READ(Sn_RX_RSR0(s));
 2020              		.loc 1 582 0
 2021 0016 301C     		mov	r0, r6
 2022 0018 FFF7FEFF 		bl	IINCHIP_READ
ARM GAS  C:\Users\atsu\AppData\Local\Temp\ccDwwNoN.s 			page 48


 2023              	.LVL176:
 2024              		.loc 1 583 0
 2025 001c 0502     		lsl	r5, r0, #8
 2026 001e 381C     		mov	r0, r7
 2027              	.LVL177:
 2028 0020 FFF7FEFF 		bl	IINCHIP_READ
 2029              	.LVL178:
 2030 0024 ADB2     		uxth	r5, r5
 2031 0026 2A18     		add	r2, r5, r0
 2032 0028 95B2     		uxth	r5, r2
 2033              	.LVL179:
 584:.\w5200.c     ****       if(val1 != 0)
 2034              		.loc 1 584 0
 2035 002a 002D     		cmp	r5, #0
 2036 002c 09D0     		beq	.L120
 585:.\w5200.c     **** 		{
 586:.\w5200.c     ****    			val = IINCHIP_READ(Sn_RX_RSR0(s));
 2037              		.loc 1 586 0
 2038 002e 301C     		mov	r0, r6
 2039 0030 FFF7FEFF 		bl	IINCHIP_READ
 2040              	.LVL180:
 587:.\w5200.c     ****    			val = (val << 8) + IINCHIP_READ(Sn_RX_RSR0(s) + 1);
 2041              		.loc 1 587 0
 2042 0034 0402     		lsl	r4, r0, #8
 2043 0036 381C     		mov	r0, r7
 2044              	.LVL181:
 2045 0038 FFF7FEFF 		bl	IINCHIP_READ
 2046              	.LVL182:
 2047 003c A4B2     		uxth	r4, r4
 2048 003e 2318     		add	r3, r4, r0
 2049 0040 9CB2     		uxth	r4, r3
 2050              	.LVL183:
 2051              	.L120:
 588:.\w5200.c     **** 		}
 589:.\w5200.c     **** 	} while (val != val1);
 2052              		.loc 1 589 0
 2053 0042 AC42     		cmp	r4, r5
 2054 0044 E7D1     		bne	.L121
 590:.\w5200.c     ****    return val;
 591:.\w5200.c     **** }
 2055              		.loc 1 591 0
 2056 0046 201C     		mov	r0, r4
 2057              		@ sp needed for prologue
 2058              	.LVL184:
 2059              	.LVL185:
 2060 0048 F8BD     		pop	{r3, r4, r5, r6, r7, pc}
 2061              		.cfi_endproc
 2062              	.LFE40:
 2063              		.size	getSn_RX_RSR, .-getSn_RX_RSR
 2064              		.section	.text.write_data,"ax",%progbits
 2065              		.align	1
 2066              		.global	write_data
 2067              		.code	16
 2068              		.thumb_func
 2069              		.type	write_data, %function
 2070              	write_data:
 2071              	.LFB43:
ARM GAS  C:\Users\atsu\AppData\Local\Temp\ccDwwNoN.s 			page 49


 592:.\w5200.c     **** 
 593:.\w5200.c     **** 
 594:.\w5200.c     **** /**
 595:.\w5200.c     **** @brief	 This function is being called by send() and sendto() function also. 
 596:.\w5200.c     **** 
 597:.\w5200.c     **** This function read the Tx write pointer register and after copy the data in buffer update the Tx wr
 598:.\w5200.c     **** register. User should read upper byte first and lower byte later to get proper value.
 599:.\w5200.c     **** */
 600:.\w5200.c     **** void send_data_processing(SOCKET s, uint8_t *data, uint16_t len)
 601:.\w5200.c     **** {
 602:.\w5200.c     **** 	
 603:.\w5200.c     **** 	uint16_t ptr;
 604:.\w5200.c     **** 	ptr = IINCHIP_READ(Sn_TX_WR0(s));
 605:.\w5200.c     **** 	ptr = (ptr << 8) + IINCHIP_READ(Sn_TX_WR0(s) + 1);
 606:.\w5200.c     **** 	write_data(s, data, (uint8_t *)(ptr), len);
 607:.\w5200.c     **** 	ptr += len;
 608:.\w5200.c     **** 
 609:.\w5200.c     **** 	IINCHIP_WRITE(Sn_TX_WR0(s),(uint8_t)((ptr & 0xff00) >> 8));
 610:.\w5200.c     **** 	IINCHIP_WRITE((Sn_TX_WR0(s) + 1),(uint8_t)(ptr & 0x00ff));
 611:.\w5200.c     **** 	
 612:.\w5200.c     **** }
 613:.\w5200.c     **** 
 614:.\w5200.c     **** 
 615:.\w5200.c     **** /**
 616:.\w5200.c     **** @brief	This function is being called by recv() also.
 617:.\w5200.c     **** 
 618:.\w5200.c     **** This function read the Rx read pointer register
 619:.\w5200.c     **** and after copy the data from receive buffer update the Rx write pointer register.
 620:.\w5200.c     **** User should read upper byte first and lower byte later to get proper value.
 621:.\w5200.c     **** */
 622:.\w5200.c     **** void recv_data_processing(SOCKET s, uint8_t *data, uint16_t len)
 623:.\w5200.c     **** {
 624:.\w5200.c     **** 	uint16_t ptr;
 625:.\w5200.c     **** 	ptr = IINCHIP_READ(Sn_RX_RD0(s));
 626:.\w5200.c     **** 	ptr = ((ptr & 0x00ff) << 8) + IINCHIP_READ(Sn_RX_RD0(s) + 1);
 627:.\w5200.c     **** 	
 628:.\w5200.c     **** #ifdef __DEF_IINCHIP_DBG__
 629:.\w5200.c     **** 	// printf(" ISR_RX: rd_ptr : %.4x\r\n", ptr);
 630:.\w5200.c     **** #endif
 631:.\w5200.c     **** 
 632:.\w5200.c     **** 	read_data(s, (uint8_t *)ptr, data, len); // read data
 633:.\w5200.c     **** 	ptr += len;
 634:.\w5200.c     **** 	IINCHIP_WRITE(Sn_RX_RD0(s),(uint8_t)((ptr & 0xff00) >> 8));
 635:.\w5200.c     **** 	IINCHIP_WRITE((Sn_RX_RD0(s) + 1),(uint8_t)(ptr & 0x00ff));
 636:.\w5200.c     **** }
 637:.\w5200.c     **** 
 638:.\w5200.c     **** 
 639:.\w5200.c     **** /**
 640:.\w5200.c     **** @brief	for copy the data form application buffer to Transmite buffer of the chip.
 641:.\w5200.c     **** 
 642:.\w5200.c     **** This function is being used for copy the data form application buffer to Transmite
 643:.\w5200.c     **** buffer of the chip. It calculate the actual physical address where one has to write
 644:.\w5200.c     **** the data in transmite buffer. Here also take care of the condition while it exceed
 645:.\w5200.c     **** the Tx memory uper-bound of socket.
 646:.\w5200.c     **** */
 647:.\w5200.c     **** void write_data(SOCKET s, vuint8_t * src, vuint8_t * dst, uint16_t len)
 648:.\w5200.c     **** {
ARM GAS  C:\Users\atsu\AppData\Local\Temp\ccDwwNoN.s 			page 50


 2072              		.loc 1 648 0
 2073              		.cfi_startproc
 2074              	.LVL186:
 2075 0000 F8B5     		push	{r3, r4, r5, r6, r7, lr}
 2076              	.LCFI30:
 2077              		.cfi_def_cfa_offset 24
 2078              		.cfi_offset 3, -24
 2079              		.cfi_offset 4, -20
 2080              		.cfi_offset 5, -16
 2081              		.cfi_offset 6, -12
 2082              		.cfi_offset 7, -8
 2083              		.cfi_offset 14, -4
 2084              	.LBB75:
 2085              	.LBB76:
  65:.\w5200.c     ****    return SMASK[s];
 2086              		.loc 1 65 0
 2087 0002 0F4C     		ldr	r4, .L130
 2088 0004 4000     		lsl	r0, r0, #1
 2089              	.LVL187:
 2090 0006 2418     		add	r4, r4, r0
 2091              	.LBE76:
 2092              	.LBE75:
 649:.\w5200.c     **** 	uint16_t size;
 650:.\w5200.c     **** 	uint16_t dst_mask;
 651:.\w5200.c     **** 	uint8_t * dst_ptr;
 652:.\w5200.c     **** 
 653:.\w5200.c     **** 	dst_mask = (uint32_t)dst & getIINCHIP_TxMASK(s);
 2093              		.loc 1 653 0
 2094 0008 A78B     		ldrh	r7, [r4, #28]
 648:.\w5200.c     **** {
 2095              		.loc 1 648 0
 2096 000a 0E1C     		mov	r6, r1
 654:.\w5200.c     **** 	dst_ptr = (uint8_t *)(getIINCHIP_TxBASE(s) + dst_mask);
 2097              		.loc 1 654 0
 2098 000c A18D     		ldrh	r1, [r4, #44]
 2099              	.LVL188:
 653:.\w5200.c     **** 	dst_mask = (uint32_t)dst & getIINCHIP_TxMASK(s);
 2100              		.loc 1 653 0
 2101 000e 3A40     		and	r2, r7
 2102              	.LVL189:
 2103              	.LBB77:
 2104              	.LBB78:
  57:.\w5200.c     ****    return SSIZE[s];
 2105              		.loc 1 57 0
 2106 0010 A789     		ldrh	r7, [r4, #12]
 2107              	.LBE78:
 2108              	.LBE77:
 648:.\w5200.c     **** {
 2109              		.loc 1 648 0
 2110 0012 1D1C     		mov	r5, r3
 2111              		.loc 1 654 0
 2112 0014 8818     		add	r0, r1, r2
 2113              	.LVL190:
 655:.\w5200.c     **** 	
 656:.\w5200.c     **** 	if (dst_mask + len > getIINCHIP_TxMAX(s)) 
 2114              		.loc 1 656 0
 2115 0016 D318     		add	r3, r2, r3
ARM GAS  C:\Users\atsu\AppData\Local\Temp\ccDwwNoN.s 			page 51


 2116              	.LVL191:
 2117 0018 80B2     		uxth	r0, r0
 2118              	.LVL192:
 2119 001a BB42     		cmp	r3, r7
 2120 001c 0ADD     		ble	.L127
 657:.\w5200.c     **** 	{
 658:.\w5200.c     **** 		size = getIINCHIP_TxMAX(s) - dst_mask;
 2121              		.loc 1 658 0
 2122 001e BA1A     		sub	r2, r7, r2
 2123              	.LVL193:
 2124 0020 97B2     		uxth	r7, r2
 2125              	.LVL194:
 659:.\w5200.c     **** 		wiz_write_buf((uint32_t)dst_ptr, (uint8_t*)src, size);
 2126              		.loc 1 659 0
 2127 0022 311C     		mov	r1, r6
 2128              	.LVL195:
 2129 0024 3A1C     		mov	r2, r7
 2130 0026 FFF7FEFF 		bl	wiz_write_buf
 2131              	.LVL196:
 660:.\w5200.c     **** 		src += size;
 2132              		.loc 1 660 0
 2133 002a F119     		add	r1, r6, r7
 661:.\w5200.c     **** 		size = len - size;
 2134              		.loc 1 661 0
 2135 002c EE1B     		sub	r6, r5, r7
 2136              	.LVL197:
 662:.\w5200.c     **** 		dst_ptr = (uint8_t *)(getIINCHIP_TxBASE(s));
 663:.\w5200.c     **** 		wiz_write_buf((uint32_t)dst_ptr, (uint8_t*)src, size);
 2137              		.loc 1 663 0
 2138 002e A08D     		ldrh	r0, [r4, #44]
 2139 0030 B2B2     		uxth	r2, r6
 2140 0032 01E0     		b	.L129
 2141              	.LVL198:
 2142              	.L127:
 664:.\w5200.c     **** 	} 
 665:.\w5200.c     **** 	else
 666:.\w5200.c     **** 	{
 667:.\w5200.c     **** 		wiz_write_buf((uint32_t)dst_ptr, (uint8_t*)src, len);
 2143              		.loc 1 667 0
 2144 0034 311C     		mov	r1, r6
 2145              	.LVL199:
 2146 0036 2A1C     		mov	r2, r5
 2147              	.LVL200:
 2148              	.L129:
 2149 0038 FFF7FEFF 		bl	wiz_write_buf
 2150              	.LVL201:
 668:.\w5200.c     **** 	}
 669:.\w5200.c     **** }
 2151              		.loc 1 669 0
 2152              		@ sp needed for prologue
 2153 003c F8BD     		pop	{r3, r4, r5, r6, r7, pc}
 2154              	.L131:
 2155 003e C046     		.align	2
 2156              	.L130:
 2157 0040 00000000 		.word	.LANCHOR0
 2158              		.cfi_endproc
 2159              	.LFE43:
ARM GAS  C:\Users\atsu\AppData\Local\Temp\ccDwwNoN.s 			page 52


 2160              		.size	write_data, .-write_data
 2161              		.section	.text.send_data_processing,"ax",%progbits
 2162              		.align	1
 2163              		.global	send_data_processing
 2164              		.code	16
 2165              		.thumb_func
 2166              		.type	send_data_processing, %function
 2167              	send_data_processing:
 2168              	.LFB41:
 601:.\w5200.c     **** {
 2169              		.loc 1 601 0
 2170              		.cfi_startproc
 2171              	.LVL202:
 2172 0000 F7B5     		push	{r0, r1, r2, r4, r5, r6, r7, lr}
 2173              	.LCFI31:
 2174              		.cfi_def_cfa_offset 32
 2175              		.cfi_offset 0, -32
 2176              		.cfi_offset 1, -28
 2177              		.cfi_offset 2, -24
 2178              		.cfi_offset 4, -20
 2179              		.cfi_offset 5, -16
 2180              		.cfi_offset 6, -12
 2181              		.cfi_offset 7, -8
 2182              		.cfi_offset 14, -4
 604:.\w5200.c     **** 	ptr = IINCHIP_READ(Sn_TX_WR0(s));
 2183              		.loc 1 604 0
 2184 0002 041C     		mov	r4, r0
 2185 0004 4034     		add	r4, r4, #64
 601:.\w5200.c     **** {
 2186              		.loc 1 601 0
 2187 0006 071C     		mov	r7, r0
 604:.\w5200.c     **** 	ptr = IINCHIP_READ(Sn_TX_WR0(s));
 2188              		.loc 1 604 0
 2189 0008 2002     		lsl	r0, r4, #8
 2190              	.LVL203:
 2191 000a 84B2     		uxth	r4, r0
 2192 000c 251C     		mov	r5, r4
 2193 000e 2435     		add	r5, r5, #36
 2194 0010 ADB2     		uxth	r5, r5
 2195 0012 281C     		mov	r0, r5
 601:.\w5200.c     **** {
 2196              		.loc 1 601 0
 2197 0014 0191     		str	r1, [sp, #4]
 2198 0016 0092     		str	r2, [sp]
 604:.\w5200.c     **** 	ptr = IINCHIP_READ(Sn_TX_WR0(s));
 2199              		.loc 1 604 0
 2200 0018 FFF7FEFF 		bl	IINCHIP_READ
 2201              	.LVL204:
 605:.\w5200.c     **** 	ptr = (ptr << 8) + IINCHIP_READ(Sn_TX_WR0(s) + 1);
 2202              		.loc 1 605 0
 2203 001c 2534     		add	r4, r4, #37
 2204 001e A4B2     		uxth	r4, r4
 2205 0020 0602     		lsl	r6, r0, #8
 2206 0022 201C     		mov	r0, r4
 2207              	.LVL205:
 2208 0024 FFF7FEFF 		bl	IINCHIP_READ
 2209              	.LVL206:
ARM GAS  C:\Users\atsu\AppData\Local\Temp\ccDwwNoN.s 			page 53


 2210 0028 B6B2     		uxth	r6, r6
 2211 002a 3118     		add	r1, r6, r0
 2212 002c 8EB2     		uxth	r6, r1
 2213              	.LVL207:
 606:.\w5200.c     **** 	write_data(s, data, (uint8_t *)(ptr), len);
 2214              		.loc 1 606 0
 2215 002e 321C     		mov	r2, r6
 2216 0030 381C     		mov	r0, r7
 2217 0032 0199     		ldr	r1, [sp, #4]
 2218              	.LVL208:
 2219 0034 009B     		ldr	r3, [sp]
 2220 0036 FFF7FEFF 		bl	write_data
 2221              	.LVL209:
 607:.\w5200.c     **** 	ptr += len;
 2222              		.loc 1 607 0
 2223 003a 009B     		ldr	r3, [sp]
 609:.\w5200.c     **** 	IINCHIP_WRITE(Sn_TX_WR0(s),(uint8_t)((ptr & 0xff00) >> 8));
 2224              		.loc 1 609 0
 2225 003c 281C     		mov	r0, r5
 607:.\w5200.c     **** 	ptr += len;
 2226              		.loc 1 607 0
 2227 003e F218     		add	r2, r6, r3
 2228 0040 97B2     		uxth	r7, r2
 2229              	.LVL210:
 609:.\w5200.c     **** 	IINCHIP_WRITE(Sn_TX_WR0(s),(uint8_t)((ptr & 0xff00) >> 8));
 2230              		.loc 1 609 0
 2231 0042 390A     		lsr	r1, r7, #8
 2232 0044 FFF7FEFF 		bl	IINCHIP_WRITE
 2233              	.LVL211:
 610:.\w5200.c     **** 	IINCHIP_WRITE((Sn_TX_WR0(s) + 1),(uint8_t)(ptr & 0x00ff));
 2234              		.loc 1 610 0
 2235 0048 F9B2     		uxtb	r1, r7
 2236 004a 201C     		mov	r0, r4
 2237 004c FFF7FEFF 		bl	IINCHIP_WRITE
 2238              	.LVL212:
 612:.\w5200.c     **** }
 2239              		.loc 1 612 0
 2240              		@ sp needed for prologue
 2241              	.LVL213:
 2242 0050 F7BD     		pop	{r0, r1, r2, r4, r5, r6, r7, pc}
 2243              		.cfi_endproc
 2244              	.LFE41:
 2245              		.size	send_data_processing, .-send_data_processing
 2246              		.section	.text.read_data,"ax",%progbits
 2247              		.align	1
 2248              		.global	read_data
 2249              		.code	16
 2250              		.thumb_func
 2251              		.type	read_data, %function
 2252              	read_data:
 2253              	.LFB44:
 670:.\w5200.c     **** 
 671:.\w5200.c     **** 
 672:.\w5200.c     **** /**
 673:.\w5200.c     **** @brief	This function is being used for copy the data form Receive buffer of the chip to application
 674:.\w5200.c     **** 
 675:.\w5200.c     **** It calculate the actual physical address where one has to read
ARM GAS  C:\Users\atsu\AppData\Local\Temp\ccDwwNoN.s 			page 54


 676:.\w5200.c     **** the data from Receive buffer. Here also take care of the condition while it exceed
 677:.\w5200.c     **** the Rx memory uper-bound of socket.
 678:.\w5200.c     **** */
 679:.\w5200.c     **** void read_data(SOCKET s, vuint8_t * src, vuint8_t * dst, uint16_t len)
 680:.\w5200.c     **** {
 2254              		.loc 1 680 0
 2255              		.cfi_startproc
 2256              	.LVL214:
 2257 0000 F8B5     		push	{r3, r4, r5, r6, r7, lr}
 2258              	.LCFI32:
 2259              		.cfi_def_cfa_offset 24
 2260              		.cfi_offset 3, -24
 2261              		.cfi_offset 4, -20
 2262              		.cfi_offset 5, -16
 2263              		.cfi_offset 6, -12
 2264              		.cfi_offset 7, -8
 2265              		.cfi_offset 14, -4
 2266              	.LBB79:
 2267              	.LBB80:
  61:.\w5200.c     ****    return RMASK[s];
 2268              		.loc 1 61 0
 2269 0002 0F4C     		ldr	r4, .L137
 2270 0004 4000     		lsl	r0, r0, #1
 2271              	.LVL215:
 2272 0006 2418     		add	r4, r4, r0
 2273              	.LBE80:
 2274              	.LBE79:
 681:.\w5200.c     **** 	uint16_t size;
 682:.\w5200.c     **** 	uint16_t src_mask;
 683:.\w5200.c     **** 	uint8_t * src_ptr;
 684:.\w5200.c     **** 
 685:.\w5200.c     **** 	src_mask = (uint32_t)src & getIINCHIP_RxMASK(s);
 2275              		.loc 1 685 0
 2276 0008 A78A     		ldrh	r7, [r4, #20]
 680:.\w5200.c     **** {
 2277              		.loc 1 680 0
 2278 000a 161C     		mov	r6, r2
 686:.\w5200.c     **** 	src_ptr = (uint8_t *)(getIINCHIP_RxBASE(s) + src_mask);
 2279              		.loc 1 686 0
 2280 000c A28C     		ldrh	r2, [r4, #36]
 2281              	.LVL216:
 685:.\w5200.c     **** 	src_mask = (uint32_t)src & getIINCHIP_RxMASK(s);
 2282              		.loc 1 685 0
 2283 000e 3940     		and	r1, r7
 2284              	.LVL217:
 2285              	.LBB81:
 2286              	.LBB82:
  53:.\w5200.c     ****    return RSIZE[s];
 2287              		.loc 1 53 0
 2288 0010 A788     		ldrh	r7, [r4, #4]
 2289              	.LBE82:
 2290              	.LBE81:
 680:.\w5200.c     **** {
 2291              		.loc 1 680 0
 2292 0012 1D1C     		mov	r5, r3
 2293              		.loc 1 686 0
 2294 0014 5018     		add	r0, r2, r1
ARM GAS  C:\Users\atsu\AppData\Local\Temp\ccDwwNoN.s 			page 55


 2295              	.LVL218:
 687:.\w5200.c     **** 	
 688:.\w5200.c     **** 	if( (src_mask + len) > getIINCHIP_RxMAX(s) ) 
 2296              		.loc 1 688 0
 2297 0016 CB18     		add	r3, r1, r3
 2298              	.LVL219:
 2299 0018 80B2     		uxth	r0, r0
 2300              	.LVL220:
 2301 001a BB42     		cmp	r3, r7
 2302 001c 0ADD     		ble	.L134
 689:.\w5200.c     **** 	{
 690:.\w5200.c     **** 		size = getIINCHIP_RxMAX(s) - src_mask;
 2303              		.loc 1 690 0
 2304 001e 791A     		sub	r1, r7, r1
 2305              	.LVL221:
 2306 0020 8FB2     		uxth	r7, r1
 2307              	.LVL222:
 691:.\w5200.c     **** 		wiz_read_buf((uint32_t)src_ptr, (uint8_t*)dst,size);
 2308              		.loc 1 691 0
 2309 0022 3A1C     		mov	r2, r7
 2310              	.LVL223:
 2311 0024 311C     		mov	r1, r6
 2312              	.LVL224:
 2313 0026 FFF7FEFF 		bl	wiz_read_buf
 2314              	.LVL225:
 692:.\w5200.c     **** 		dst += size;
 2315              		.loc 1 692 0
 2316 002a F119     		add	r1, r6, r7
 693:.\w5200.c     **** 		size = len - size;
 2317              		.loc 1 693 0
 2318 002c EE1B     		sub	r6, r5, r7
 2319              	.LVL226:
 694:.\w5200.c     **** 		src_ptr = (uint8_t *)(getIINCHIP_RxBASE(s));
 695:.\w5200.c     **** 		wiz_read_buf((uint32_t)src_ptr, (uint8_t*) dst,size);
 2320              		.loc 1 695 0
 2321 002e A08C     		ldrh	r0, [r4, #36]
 2322 0030 B2B2     		uxth	r2, r6
 2323 0032 01E0     		b	.L136
 2324              	.LVL227:
 2325              	.L134:
 696:.\w5200.c     **** 	} 
 697:.\w5200.c     **** 	else
 698:.\w5200.c     **** 	{
 699:.\w5200.c     **** 		wiz_read_buf((uint32_t)src_ptr, (uint8_t*) dst,len);
 2326              		.loc 1 699 0
 2327 0034 311C     		mov	r1, r6
 2328              	.LVL228:
 2329 0036 2A1C     		mov	r2, r5
 2330              	.LVL229:
 2331              	.L136:
 2332 0038 FFF7FEFF 		bl	wiz_read_buf
 2333              	.LVL230:
 700:.\w5200.c     **** 	}
 701:.\w5200.c     **** }
 2334              		.loc 1 701 0
 2335              		@ sp needed for prologue
 2336 003c F8BD     		pop	{r3, r4, r5, r6, r7, pc}
ARM GAS  C:\Users\atsu\AppData\Local\Temp\ccDwwNoN.s 			page 56


 2337              	.L138:
 2338 003e C046     		.align	2
 2339              	.L137:
 2340 0040 00000000 		.word	.LANCHOR0
 2341              		.cfi_endproc
 2342              	.LFE44:
 2343              		.size	read_data, .-read_data
 2344              		.section	.text.recv_data_processing,"ax",%progbits
 2345              		.align	1
 2346              		.global	recv_data_processing
 2347              		.code	16
 2348              		.thumb_func
 2349              		.type	recv_data_processing, %function
 2350              	recv_data_processing:
 2351              	.LFB42:
 623:.\w5200.c     **** {
 2352              		.loc 1 623 0
 2353              		.cfi_startproc
 2354              	.LVL231:
 2355 0000 F7B5     		push	{r0, r1, r2, r4, r5, r6, r7, lr}
 2356              	.LCFI33:
 2357              		.cfi_def_cfa_offset 32
 2358              		.cfi_offset 0, -32
 2359              		.cfi_offset 1, -28
 2360              		.cfi_offset 2, -24
 2361              		.cfi_offset 4, -20
 2362              		.cfi_offset 5, -16
 2363              		.cfi_offset 6, -12
 2364              		.cfi_offset 7, -8
 2365              		.cfi_offset 14, -4
 625:.\w5200.c     **** 	ptr = IINCHIP_READ(Sn_RX_RD0(s));
 2366              		.loc 1 625 0
 2367 0002 041C     		mov	r4, r0
 2368 0004 4034     		add	r4, r4, #64
 623:.\w5200.c     **** {
 2369              		.loc 1 623 0
 2370 0006 071C     		mov	r7, r0
 625:.\w5200.c     **** 	ptr = IINCHIP_READ(Sn_RX_RD0(s));
 2371              		.loc 1 625 0
 2372 0008 2002     		lsl	r0, r4, #8
 2373              	.LVL232:
 2374 000a 84B2     		uxth	r4, r0
 2375 000c 251C     		mov	r5, r4
 2376 000e 2835     		add	r5, r5, #40
 2377 0010 ADB2     		uxth	r5, r5
 2378 0012 281C     		mov	r0, r5
 623:.\w5200.c     **** {
 2379              		.loc 1 623 0
 2380 0014 0191     		str	r1, [sp, #4]
 2381 0016 0092     		str	r2, [sp]
 625:.\w5200.c     **** 	ptr = IINCHIP_READ(Sn_RX_RD0(s));
 2382              		.loc 1 625 0
 2383 0018 FFF7FEFF 		bl	IINCHIP_READ
 2384              	.LVL233:
 626:.\w5200.c     **** 	ptr = ((ptr & 0x00ff) << 8) + IINCHIP_READ(Sn_RX_RD0(s) + 1);
 2385              		.loc 1 626 0
 2386 001c 2934     		add	r4, r4, #41
ARM GAS  C:\Users\atsu\AppData\Local\Temp\ccDwwNoN.s 			page 57


 2387 001e A4B2     		uxth	r4, r4
 625:.\w5200.c     **** 	ptr = IINCHIP_READ(Sn_RX_RD0(s));
 2388              		.loc 1 625 0
 2389 0020 061C     		mov	r6, r0
 2390              	.LVL234:
 626:.\w5200.c     **** 	ptr = ((ptr & 0x00ff) << 8) + IINCHIP_READ(Sn_RX_RD0(s) + 1);
 2391              		.loc 1 626 0
 2392 0022 201C     		mov	r0, r4
 2393              	.LVL235:
 2394 0024 FFF7FEFF 		bl	IINCHIP_READ
 2395              	.LVL236:
 2396 0028 3102     		lsl	r1, r6, #8
 2397 002a 4218     		add	r2, r0, r1
 2398 002c 96B2     		uxth	r6, r2
 2399              	.LVL237:
 632:.\w5200.c     **** 	read_data(s, (uint8_t *)ptr, data, len); // read data
 2400              		.loc 1 632 0
 2401 002e 381C     		mov	r0, r7
 2402 0030 019A     		ldr	r2, [sp, #4]
 2403              	.LVL238:
 2404 0032 311C     		mov	r1, r6
 2405 0034 009B     		ldr	r3, [sp]
 2406 0036 FFF7FEFF 		bl	read_data
 2407              	.LVL239:
 633:.\w5200.c     **** 	ptr += len;
 2408              		.loc 1 633 0
 2409 003a 009B     		ldr	r3, [sp]
 634:.\w5200.c     **** 	IINCHIP_WRITE(Sn_RX_RD0(s),(uint8_t)((ptr & 0xff00) >> 8));
 2410              		.loc 1 634 0
 2411 003c 281C     		mov	r0, r5
 633:.\w5200.c     **** 	ptr += len;
 2412              		.loc 1 633 0
 2413 003e F718     		add	r7, r6, r3
 2414 0040 BEB2     		uxth	r6, r7
 2415              	.LVL240:
 634:.\w5200.c     **** 	IINCHIP_WRITE(Sn_RX_RD0(s),(uint8_t)((ptr & 0xff00) >> 8));
 2416              		.loc 1 634 0
 2417 0042 310A     		lsr	r1, r6, #8
 2418 0044 FFF7FEFF 		bl	IINCHIP_WRITE
 2419              	.LVL241:
 635:.\w5200.c     **** 	IINCHIP_WRITE((Sn_RX_RD0(s) + 1),(uint8_t)(ptr & 0x00ff));
 2420              		.loc 1 635 0
 2421 0048 F1B2     		uxtb	r1, r6
 2422 004a 201C     		mov	r0, r4
 2423 004c FFF7FEFF 		bl	IINCHIP_WRITE
 2424              	.LVL242:
 636:.\w5200.c     **** }
 2425              		.loc 1 636 0
 2426              		@ sp needed for prologue
 2427              	.LVL243:
 2428 0050 F7BD     		pop	{r0, r1, r2, r4, r5, r6, r7, pc}
 2429              		.cfi_endproc
 2430              	.LFE42:
 2431              		.size	recv_data_processing, .-recv_data_processing
 2432              		.comm	sent_ptr,2,2
 2433              		.comm	pre_sent_ptr,2,2
 2434              		.comm	windowfull_retry_cnt,4,1
ARM GAS  C:\Users\atsu\AppData\Local\Temp\ccDwwNoN.s 			page 58


 2435              		.bss
 2436              		.align	1
 2437              		.set	.LANCHOR0,. + 0
 2438              		.type	I_STATUS, %object
 2439              		.size	I_STATUS, 4
 2440              	I_STATUS:
 2441 0000 00000000 		.space	4
 2442              		.type	RSIZE, %object
 2443              		.size	RSIZE, 8
 2444              	RSIZE:
 2445 0004 00000000 		.space	8
 2445      00000000 
 2446              		.type	SSIZE, %object
 2447              		.size	SSIZE, 8
 2448              	SSIZE:
 2449 000c 00000000 		.space	8
 2449      00000000 
 2450              		.type	RMASK, %object
 2451              		.size	RMASK, 8
 2452              	RMASK:
 2453 0014 00000000 		.space	8
 2453      00000000 
 2454              		.type	SMASK, %object
 2455              		.size	SMASK, 8
 2456              	SMASK:
 2457 001c 00000000 		.space	8
 2457      00000000 
 2458              		.type	RBUFBASEADDRESS, %object
 2459              		.size	RBUFBASEADDRESS, 8
 2460              	RBUFBASEADDRESS:
 2461 0024 00000000 		.space	8
 2461      00000000 
 2462              		.type	SBUFBASEADDRESS, %object
 2463              		.size	SBUFBASEADDRESS, 8
 2464              	SBUFBASEADDRESS:
 2465 002c 00000000 		.space	8
 2465      00000000 
 2466              		.type	SUBNET, %object
 2467              		.size	SUBNET, 4
 2468              	SUBNET:
 2469 0034 00000000 		.space	4
 2470              		.type	IPVAL, %object
 2471              		.size	IPVAL, 4
 2472              	IPVAL:
 2473 0038 00000000 		.space	4
 2474              		.text
 2475              	.Letext0:
 2476              		.file 2 "c:\\program files (x86)\\cypress\\psoc creator\\3.0\\psoc creator\\import\\gnu_cs\\arm\\4
 2477              		.file 3 ".\\util.h"
 2478              		.file 4 ".\\device_depend.h"
 2479              		.section	.debug_info,"",%progbits
 2480              	.Ldebug_info0:
 2481 0000 12150000 		.4byte	0x1512
 2482 0004 0200     		.2byte	0x2
 2483 0006 00000000 		.4byte	.Ldebug_abbrev0
 2484 000a 04       		.byte	0x4
 2485 000b 01       		.uleb128 0x1
ARM GAS  C:\Users\atsu\AppData\Local\Temp\ccDwwNoN.s 			page 59


 2486 000c 8D020000 		.4byte	.LASF95
 2487 0010 01       		.byte	0x1
 2488 0011 FF030000 		.4byte	.LASF96
 2489 0015 1E040000 		.4byte	.LASF97
 2490 0019 18000000 		.4byte	.Ldebug_ranges0+0x18
 2491 001d 00000000 		.4byte	0
 2492 0021 00000000 		.4byte	0
 2493 0025 00000000 		.4byte	.Ldebug_line0
 2494 0029 02       		.uleb128 0x2
 2495 002a 04       		.byte	0x4
 2496 002b 07       		.byte	0x7
 2497 002c 51010000 		.4byte	.LASF0
 2498 0030 02       		.uleb128 0x2
 2499 0031 01       		.byte	0x1
 2500 0032 06       		.byte	0x6
 2501 0033 AC000000 		.4byte	.LASF1
 2502 0037 02       		.uleb128 0x2
 2503 0038 01       		.byte	0x1
 2504 0039 08       		.byte	0x8
 2505 003a D6020000 		.4byte	.LASF2
 2506 003e 02       		.uleb128 0x2
 2507 003f 02       		.byte	0x2
 2508 0040 05       		.byte	0x5
 2509 0041 F6020000 		.4byte	.LASF3
 2510 0045 02       		.uleb128 0x2
 2511 0046 02       		.byte	0x2
 2512 0047 07       		.byte	0x7
 2513 0048 AF010000 		.4byte	.LASF4
 2514 004c 03       		.uleb128 0x3
 2515 004d 04       		.byte	0x4
 2516 004e 05       		.byte	0x5
 2517 004f 696E7400 		.ascii	"int\000"
 2518 0053 02       		.uleb128 0x2
 2519 0054 08       		.byte	0x8
 2520 0055 05       		.byte	0x5
 2521 0056 9E000000 		.4byte	.LASF5
 2522 005a 02       		.uleb128 0x2
 2523 005b 08       		.byte	0x8
 2524 005c 07       		.byte	0x7
 2525 005d 42000000 		.4byte	.LASF6
 2526 0061 02       		.uleb128 0x2
 2527 0062 04       		.byte	0x4
 2528 0063 05       		.byte	0x5
 2529 0064 C5000000 		.4byte	.LASF7
 2530 0068 02       		.uleb128 0x2
 2531 0069 04       		.byte	0x4
 2532 006a 07       		.byte	0x7
 2533 006b 0F020000 		.4byte	.LASF8
 2534 006f 02       		.uleb128 0x2
 2535 0070 04       		.byte	0x4
 2536 0071 07       		.byte	0x7
 2537 0072 74010000 		.4byte	.LASF9
 2538 0076 02       		.uleb128 0x2
 2539 0077 01       		.byte	0x1
 2540 0078 08       		.byte	0x8
 2541 0079 46030000 		.4byte	.LASF10
 2542 007d 04       		.uleb128 0x4
ARM GAS  C:\Users\atsu\AppData\Local\Temp\ccDwwNoN.s 			page 60


 2543 007e CF030000 		.4byte	.LASF11
 2544 0082 02       		.byte	0x2
 2545 0083 2A       		.byte	0x2a
 2546 0084 37000000 		.4byte	0x37
 2547 0088 04       		.uleb128 0x4
 2548 0089 8A000000 		.4byte	.LASF12
 2549 008d 02       		.byte	0x2
 2550 008e 35       		.byte	0x35
 2551 008f 3E000000 		.4byte	0x3e
 2552 0093 04       		.uleb128 0x4
 2553 0094 0B010000 		.4byte	.LASF13
 2554 0098 02       		.byte	0x2
 2555 0099 36       		.byte	0x36
 2556 009a 45000000 		.4byte	0x45
 2557 009e 04       		.uleb128 0x4
 2558 009f 3D030000 		.4byte	.LASF14
 2559 00a3 02       		.byte	0x2
 2560 00a4 50       		.byte	0x50
 2561 00a5 6F000000 		.4byte	0x6f
 2562 00a9 02       		.uleb128 0x2
 2563 00aa 04       		.byte	0x4
 2564 00ab 04       		.byte	0x4
 2565 00ac 6D020000 		.4byte	.LASF15
 2566 00b0 02       		.uleb128 0x2
 2567 00b1 08       		.byte	0x8
 2568 00b2 04       		.byte	0x4
 2569 00b3 14010000 		.4byte	.LASF16
 2570 00b7 04       		.uleb128 0x4
 2571 00b8 06030000 		.4byte	.LASF17
 2572 00bc 03       		.byte	0x3
 2573 00bd 27       		.byte	0x27
 2574 00be C2000000 		.4byte	0xc2
 2575 00c2 05       		.uleb128 0x5
 2576 00c3 37000000 		.4byte	0x37
 2577 00c7 04       		.uleb128 0x4
 2578 00c8 09000000 		.4byte	.LASF18
 2579 00cc 03       		.byte	0x3
 2580 00cd 29       		.byte	0x29
 2581 00ce 7D000000 		.4byte	0x7d
 2582 00d2 06       		.uleb128 0x6
 2583 00d3 7D000000 		.4byte	0x7d
 2584 00d7 E2000000 		.4byte	0xe2
 2585 00db 07       		.uleb128 0x7
 2586 00dc 68000000 		.4byte	0x68
 2587 00e0 03       		.byte	0x3
 2588 00e1 00       		.byte	0
 2589 00e2 08       		.uleb128 0x8
 2590 00e3 01       		.byte	0x1
 2591 00e4 79030000 		.4byte	.LASF19
 2592 00e8 01       		.byte	0x1
 2593 00e9 4B       		.byte	0x4b
 2594 00ea 01       		.byte	0x1
 2595 00eb 01       		.byte	0x1
 2596 00ec 08       		.uleb128 0x8
 2597 00ed 01       		.byte	0x1
 2598 00ee 6D000000 		.4byte	.LASF20
 2599 00f2 01       		.byte	0x1
ARM GAS  C:\Users\atsu\AppData\Local\Temp\ccDwwNoN.s 			page 61


 2600 00f3 4F       		.byte	0x4f
 2601 00f4 01       		.byte	0x1
 2602 00f5 01       		.byte	0x1
 2603 00f6 09       		.uleb128 0x9
 2604 00f7 01       		.byte	0x1
 2605 00f8 73020000 		.4byte	.LASF21
 2606 00fc 01       		.byte	0x1
 2607 00fd 53       		.byte	0x53
 2608 00fe 01       		.byte	0x1
 2609 00ff 7D000000 		.4byte	0x7d
 2610 0103 01       		.byte	0x1
 2611 0104 14010000 		.4byte	0x114
 2612 0108 0A       		.uleb128 0xa
 2613 0109 64617400 		.ascii	"dat\000"
 2614 010d 01       		.byte	0x1
 2615 010e 53       		.byte	0x53
 2616 010f 7D000000 		.4byte	0x7d
 2617 0113 00       		.byte	0
 2618 0114 09       		.uleb128 0x9
 2619 0115 01       		.byte	0x1
 2620 0116 E9010000 		.4byte	.LASF22
 2621 011a 01       		.byte	0x1
 2622 011b 89       		.byte	0x89
 2623 011c 01       		.byte	0x1
 2624 011d 93000000 		.4byte	0x93
 2625 0121 01       		.byte	0x1
 2626 0122 53010000 		.4byte	0x153
 2627 0126 0B       		.uleb128 0xb
 2628 0127 68000000 		.4byte	.LASF23
 2629 012b 01       		.byte	0x1
 2630 012c 89       		.byte	0x89
 2631 012d 93000000 		.4byte	0x93
 2632 0131 0A       		.uleb128 0xa
 2633 0132 62756600 		.ascii	"buf\000"
 2634 0136 01       		.byte	0x1
 2635 0137 89       		.byte	0x89
 2636 0138 53010000 		.4byte	0x153
 2637 013c 0A       		.uleb128 0xa
 2638 013d 6C656E00 		.ascii	"len\000"
 2639 0141 01       		.byte	0x1
 2640 0142 89       		.byte	0x89
 2641 0143 93000000 		.4byte	0x93
 2642 0147 0C       		.uleb128 0xc
 2643 0148 69647800 		.ascii	"idx\000"
 2644 014c 01       		.byte	0x1
 2645 014d 8B       		.byte	0x8b
 2646 014e 93000000 		.4byte	0x93
 2647 0152 00       		.byte	0
 2648 0153 0D       		.uleb128 0xd
 2649 0154 04       		.byte	0x4
 2650 0155 7D000000 		.4byte	0x7d
 2651 0159 09       		.uleb128 0x9
 2652 015a 01       		.byte	0x1
 2653 015b FD010000 		.4byte	.LASF24
 2654 015f 01       		.byte	0x1
 2655 0160 3F       		.byte	0x3f
 2656 0161 01       		.byte	0x1
ARM GAS  C:\Users\atsu\AppData\Local\Temp\ccDwwNoN.s 			page 62


 2657 0162 93000000 		.4byte	0x93
 2658 0166 01       		.byte	0x1
 2659 0167 75010000 		.4byte	0x175
 2660 016b 0A       		.uleb128 0xa
 2661 016c 7300     		.ascii	"s\000"
 2662 016e 01       		.byte	0x1
 2663 016f 3F       		.byte	0x3f
 2664 0170 7D000000 		.4byte	0x7d
 2665 0174 00       		.byte	0
 2666 0175 09       		.uleb128 0x9
 2667 0176 01       		.byte	0x1
 2668 0177 E4020000 		.4byte	.LASF25
 2669 017b 01       		.byte	0x1
 2670 017c 47       		.byte	0x47
 2671 017d 01       		.byte	0x1
 2672 017e 93000000 		.4byte	0x93
 2673 0182 01       		.byte	0x1
 2674 0183 91010000 		.4byte	0x191
 2675 0187 0A       		.uleb128 0xa
 2676 0188 7300     		.ascii	"s\000"
 2677 018a 01       		.byte	0x1
 2678 018b 47       		.byte	0x47
 2679 018c 7D000000 		.4byte	0x7d
 2680 0190 00       		.byte	0
 2681 0191 09       		.uleb128 0x9
 2682 0192 01       		.byte	0x1
 2683 0193 18020000 		.4byte	.LASF26
 2684 0197 01       		.byte	0x1
 2685 0198 37       		.byte	0x37
 2686 0199 01       		.byte	0x1
 2687 019a 93000000 		.4byte	0x93
 2688 019e 01       		.byte	0x1
 2689 019f AD010000 		.4byte	0x1ad
 2690 01a3 0A       		.uleb128 0xa
 2691 01a4 7300     		.ascii	"s\000"
 2692 01a6 01       		.byte	0x1
 2693 01a7 37       		.byte	0x37
 2694 01a8 7D000000 		.4byte	0x7d
 2695 01ac 00       		.byte	0
 2696 01ad 09       		.uleb128 0x9
 2697 01ae 01       		.byte	0x1
 2698 01af E1000000 		.4byte	.LASF27
 2699 01b3 01       		.byte	0x1
 2700 01b4 3B       		.byte	0x3b
 2701 01b5 01       		.byte	0x1
 2702 01b6 93000000 		.4byte	0x93
 2703 01ba 01       		.byte	0x1
 2704 01bb C9010000 		.4byte	0x1c9
 2705 01bf 0A       		.uleb128 0xa
 2706 01c0 7300     		.ascii	"s\000"
 2707 01c2 01       		.byte	0x1
 2708 01c3 3B       		.byte	0x3b
 2709 01c4 7D000000 		.4byte	0x7d
 2710 01c8 00       		.byte	0
 2711 01c9 09       		.uleb128 0x9
 2712 01ca 01       		.byte	0x1
 2713 01cb D7010000 		.4byte	.LASF28
ARM GAS  C:\Users\atsu\AppData\Local\Temp\ccDwwNoN.s 			page 63


 2714 01cf 01       		.byte	0x1
 2715 01d0 43       		.byte	0x43
 2716 01d1 01       		.byte	0x1
 2717 01d2 93000000 		.4byte	0x93
 2718 01d6 01       		.byte	0x1
 2719 01d7 E5010000 		.4byte	0x1e5
 2720 01db 0A       		.uleb128 0xa
 2721 01dc 7300     		.ascii	"s\000"
 2722 01de 01       		.byte	0x1
 2723 01df 43       		.byte	0x43
 2724 01e0 7D000000 		.4byte	0x7d
 2725 01e4 00       		.byte	0
 2726 01e5 09       		.uleb128 0x9
 2727 01e6 01       		.byte	0x1
 2728 01e7 29010000 		.4byte	.LASF29
 2729 01eb 01       		.byte	0x1
 2730 01ec 33       		.byte	0x33
 2731 01ed 01       		.byte	0x1
 2732 01ee 93000000 		.4byte	0x93
 2733 01f2 01       		.byte	0x1
 2734 01f3 01020000 		.4byte	0x201
 2735 01f7 0A       		.uleb128 0xa
 2736 01f8 7300     		.ascii	"s\000"
 2737 01fa 01       		.byte	0x1
 2738 01fb 33       		.byte	0x33
 2739 01fc 7D000000 		.4byte	0x7d
 2740 0200 00       		.byte	0
 2741 0201 0E       		.uleb128 0xe
 2742 0202 01       		.byte	0x1
 2743 0203 29020000 		.4byte	.LASF30
 2744 0207 01       		.byte	0x1
 2745 0208 1F       		.byte	0x1f
 2746 0209 01       		.byte	0x1
 2747 020a 7D000000 		.4byte	0x7d
 2748 020e 00000000 		.4byte	.LFB0
 2749 0212 10000000 		.4byte	.LFE0
 2750 0216 02       		.byte	0x2
 2751 0217 7D       		.byte	0x7d
 2752 0218 00       		.sleb128 0
 2753 0219 01       		.byte	0x1
 2754 021a 2C020000 		.4byte	0x22c
 2755 021e 0F       		.uleb128 0xf
 2756 021f 7300     		.ascii	"s\000"
 2757 0221 01       		.byte	0x1
 2758 0222 1F       		.byte	0x1f
 2759 0223 7D000000 		.4byte	0x7d
 2760 0227 00000000 		.4byte	.LLST0
 2761 022b 00       		.byte	0
 2762 022c 10       		.uleb128 0x10
 2763 022d 01       		.byte	0x1
 2764 022e D7030000 		.4byte	.LASF32
 2765 0232 01       		.byte	0x1
 2766 0233 24       		.byte	0x24
 2767 0234 01       		.byte	0x1
 2768 0235 00000000 		.4byte	.LFB1
 2769 0239 0C000000 		.4byte	.LFE1
 2770 023d 02       		.byte	0x2
ARM GAS  C:\Users\atsu\AppData\Local\Temp\ccDwwNoN.s 			page 64


 2771 023e 7D       		.byte	0x7d
 2772 023f 00       		.sleb128 0
 2773 0240 01       		.byte	0x1
 2774 0241 51020000 		.4byte	0x251
 2775 0245 11       		.uleb128 0x11
 2776 0246 7300     		.ascii	"s\000"
 2777 0248 01       		.byte	0x1
 2778 0249 24       		.byte	0x24
 2779 024a 7D000000 		.4byte	0x7d
 2780 024e 01       		.byte	0x1
 2781 024f 50       		.byte	0x50
 2782 0250 00       		.byte	0
 2783 0251 0E       		.uleb128 0xe
 2784 0252 01       		.byte	0x1
 2785 0253 F8030000 		.4byte	.LASF31
 2786 0257 01       		.byte	0x1
 2787 0258 2B       		.byte	0x2b
 2788 0259 01       		.byte	0x1
 2789 025a 7D000000 		.4byte	0x7d
 2790 025e 00000000 		.4byte	.LFB2
 2791 0262 0C000000 		.4byte	.LFE2
 2792 0266 02       		.byte	0x2
 2793 0267 7D       		.byte	0x7d
 2794 0268 00       		.sleb128 0
 2795 0269 01       		.byte	0x1
 2796 026a 7C020000 		.4byte	0x27c
 2797 026e 0F       		.uleb128 0xf
 2798 026f 7300     		.ascii	"s\000"
 2799 0271 01       		.byte	0x1
 2800 0272 2B       		.byte	0x2b
 2801 0273 7D000000 		.4byte	0x7d
 2802 0277 21000000 		.4byte	.LLST1
 2803 027b 00       		.byte	0
 2804 027c 10       		.uleb128 0x10
 2805 027d 01       		.byte	0x1
 2806 027e 84040000 		.4byte	.LASF33
 2807 0282 01       		.byte	0x1
 2808 0283 2F       		.byte	0x2f
 2809 0284 01       		.byte	0x1
 2810 0285 00000000 		.4byte	.LFB3
 2811 0289 0C000000 		.4byte	.LFE3
 2812 028d 02       		.byte	0x2
 2813 028e 7D       		.byte	0x7d
 2814 028f 00       		.sleb128 0
 2815 0290 01       		.byte	0x1
 2816 0291 AE020000 		.4byte	0x2ae
 2817 0295 11       		.uleb128 0x11
 2818 0296 7300     		.ascii	"s\000"
 2819 0298 01       		.byte	0x1
 2820 0299 2F       		.byte	0x2f
 2821 029a 7D000000 		.4byte	0x7d
 2822 029e 01       		.byte	0x1
 2823 029f 50       		.byte	0x50
 2824 02a0 11       		.uleb128 0x11
 2825 02a1 76616C00 		.ascii	"val\000"
 2826 02a5 01       		.byte	0x1
 2827 02a6 2F       		.byte	0x2f
ARM GAS  C:\Users\atsu\AppData\Local\Temp\ccDwwNoN.s 			page 65


 2828 02a7 7D000000 		.4byte	0x7d
 2829 02ab 01       		.byte	0x1
 2830 02ac 51       		.byte	0x51
 2831 02ad 00       		.byte	0
 2832 02ae 12       		.uleb128 0x12
 2833 02af E5010000 		.4byte	0x1e5
 2834 02b3 00000000 		.4byte	.LFB4
 2835 02b7 10000000 		.4byte	.LFE4
 2836 02bb 02       		.byte	0x2
 2837 02bc 7D       		.byte	0x7d
 2838 02bd 00       		.sleb128 0
 2839 02be 01       		.byte	0x1
 2840 02bf CD020000 		.4byte	0x2cd
 2841 02c3 13       		.uleb128 0x13
 2842 02c4 F7010000 		.4byte	0x1f7
 2843 02c8 42000000 		.4byte	.LLST2
 2844 02cc 00       		.byte	0
 2845 02cd 12       		.uleb128 0x12
 2846 02ce 91010000 		.4byte	0x191
 2847 02d2 00000000 		.4byte	.LFB5
 2848 02d6 10000000 		.4byte	.LFE5
 2849 02da 02       		.byte	0x2
 2850 02db 7D       		.byte	0x7d
 2851 02dc 00       		.sleb128 0
 2852 02dd 01       		.byte	0x1
 2853 02de EC020000 		.4byte	0x2ec
 2854 02e2 13       		.uleb128 0x13
 2855 02e3 A3010000 		.4byte	0x1a3
 2856 02e7 63000000 		.4byte	.LLST3
 2857 02eb 00       		.byte	0
 2858 02ec 12       		.uleb128 0x12
 2859 02ed AD010000 		.4byte	0x1ad
 2860 02f1 00000000 		.4byte	.LFB6
 2861 02f5 10000000 		.4byte	.LFE6
 2862 02f9 02       		.byte	0x2
 2863 02fa 7D       		.byte	0x7d
 2864 02fb 00       		.sleb128 0
 2865 02fc 01       		.byte	0x1
 2866 02fd 0B030000 		.4byte	0x30b
 2867 0301 13       		.uleb128 0x13
 2868 0302 BF010000 		.4byte	0x1bf
 2869 0306 84000000 		.4byte	.LLST4
 2870 030a 00       		.byte	0
 2871 030b 12       		.uleb128 0x12
 2872 030c 59010000 		.4byte	0x159
 2873 0310 00000000 		.4byte	.LFB7
 2874 0314 10000000 		.4byte	.LFE7
 2875 0318 02       		.byte	0x2
 2876 0319 7D       		.byte	0x7d
 2877 031a 00       		.sleb128 0
 2878 031b 01       		.byte	0x1
 2879 031c 2A030000 		.4byte	0x32a
 2880 0320 13       		.uleb128 0x13
 2881 0321 6B010000 		.4byte	0x16b
 2882 0325 A5000000 		.4byte	.LLST5
 2883 0329 00       		.byte	0
 2884 032a 12       		.uleb128 0x12
ARM GAS  C:\Users\atsu\AppData\Local\Temp\ccDwwNoN.s 			page 66


 2885 032b C9010000 		.4byte	0x1c9
 2886 032f 00000000 		.4byte	.LFB8
 2887 0333 10000000 		.4byte	.LFE8
 2888 0337 02       		.byte	0x2
 2889 0338 7D       		.byte	0x7d
 2890 0339 00       		.sleb128 0
 2891 033a 01       		.byte	0x1
 2892 033b 49030000 		.4byte	0x349
 2893 033f 13       		.uleb128 0x13
 2894 0340 DB010000 		.4byte	0x1db
 2895 0344 C6000000 		.4byte	.LLST6
 2896 0348 00       		.byte	0
 2897 0349 12       		.uleb128 0x12
 2898 034a 75010000 		.4byte	0x175
 2899 034e 00000000 		.4byte	.LFB9
 2900 0352 10000000 		.4byte	.LFE9
 2901 0356 02       		.byte	0x2
 2902 0357 7D       		.byte	0x7d
 2903 0358 00       		.sleb128 0
 2904 0359 01       		.byte	0x1
 2905 035a 68030000 		.4byte	0x368
 2906 035e 13       		.uleb128 0x13
 2907 035f 87010000 		.4byte	0x187
 2908 0363 E7000000 		.4byte	.LLST7
 2909 0367 00       		.byte	0
 2910 0368 14       		.uleb128 0x14
 2911 0369 E2000000 		.4byte	0xe2
 2912 036d 00000000 		.4byte	.LFB10
 2913 0371 08000000 		.4byte	.LFE10
 2914 0375 08010000 		.4byte	.LLST8
 2915 0379 01       		.byte	0x1
 2916 037a 88030000 		.4byte	0x388
 2917 037e 15       		.uleb128 0x15
 2918 037f 06000000 		.4byte	.LVL18
 2919 0383 ED140000 		.4byte	0x14ed
 2920 0387 00       		.byte	0
 2921 0388 14       		.uleb128 0x14
 2922 0389 EC000000 		.4byte	0xec
 2923 038d 00000000 		.4byte	.LFB11
 2924 0391 08000000 		.4byte	.LFE11
 2925 0395 28010000 		.4byte	.LLST9
 2926 0399 01       		.byte	0x1
 2927 039a A8030000 		.4byte	0x3a8
 2928 039e 15       		.uleb128 0x15
 2929 039f 06000000 		.4byte	.LVL19
 2930 03a3 F7140000 		.4byte	0x14f7
 2931 03a7 00       		.byte	0
 2932 03a8 14       		.uleb128 0x14
 2933 03a9 F6000000 		.4byte	0xf6
 2934 03ad 00000000 		.4byte	.LFB12
 2935 03b1 08000000 		.4byte	.LFE12
 2936 03b5 48010000 		.4byte	.LLST10
 2937 03b9 01       		.byte	0x1
 2938 03ba D1030000 		.4byte	0x3d1
 2939 03be 13       		.uleb128 0x13
 2940 03bf 08010000 		.4byte	0x108
 2941 03c3 68010000 		.4byte	.LLST11
ARM GAS  C:\Users\atsu\AppData\Local\Temp\ccDwwNoN.s 			page 67


 2942 03c7 15       		.uleb128 0x15
 2943 03c8 06000000 		.4byte	.LVL21
 2944 03cc 01150000 		.4byte	0x1501
 2945 03d0 00       		.byte	0
 2946 03d1 16       		.uleb128 0x16
 2947 03d2 01       		.byte	0x1
 2948 03d3 6D040000 		.4byte	.LASF34
 2949 03d7 01       		.byte	0x1
 2950 03d8 5D       		.byte	0x5d
 2951 03d9 01       		.byte	0x1
 2952 03da 7D000000 		.4byte	0x7d
 2953 03de 00000000 		.4byte	.LFB13
 2954 03e2 30000000 		.4byte	.LFE13
 2955 03e6 89010000 		.4byte	.LLST12
 2956 03ea 01       		.byte	0x1
 2957 03eb A9040000 		.4byte	0x4a9
 2958 03ef 17       		.uleb128 0x17
 2959 03f0 68000000 		.4byte	.LASF23
 2960 03f4 01       		.byte	0x1
 2961 03f5 5D       		.byte	0x5d
 2962 03f6 93000000 		.4byte	0x93
 2963 03fa A9010000 		.4byte	.LLST13
 2964 03fe 17       		.uleb128 0x17
 2965 03ff A5010000 		.4byte	.LASF35
 2966 0403 01       		.byte	0x1
 2967 0404 5D       		.byte	0x5d
 2968 0405 7D000000 		.4byte	0x7d
 2969 0409 CA010000 		.4byte	.LLST14
 2970 040d 18       		.uleb128 0x18
 2971 040e E2000000 		.4byte	0xe2
 2972 0412 06000000 		.4byte	.LBB46
 2973 0416 0A000000 		.4byte	.LBE46
 2974 041a 01       		.byte	0x1
 2975 041b 62       		.byte	0x62
 2976 041c 2A040000 		.4byte	0x42a
 2977 0420 15       		.uleb128 0x15
 2978 0421 0A000000 		.4byte	.LVL23
 2979 0425 ED140000 		.4byte	0x14ed
 2980 0429 00       		.byte	0
 2981 042a 18       		.uleb128 0x18
 2982 042b EC000000 		.4byte	0xec
 2983 042f 28000000 		.4byte	.LBB48
 2984 0433 2C000000 		.4byte	.LBE48
 2985 0437 01       		.byte	0x1
 2986 0438 6A       		.byte	0x6a
 2987 0439 47040000 		.4byte	0x447
 2988 043d 15       		.uleb128 0x15
 2989 043e 2C000000 		.4byte	.LVL29
 2990 0442 F7140000 		.4byte	0x14f7
 2991 0446 00       		.byte	0
 2992 0447 19       		.uleb128 0x19
 2993 0448 10000000 		.4byte	.LVL24
 2994 044c F6000000 		.4byte	0xf6
 2995 0450 5D040000 		.4byte	0x45d
 2996 0454 1A       		.uleb128 0x1a
 2997 0455 01       		.byte	0x1
 2998 0456 50       		.byte	0x50
ARM GAS  C:\Users\atsu\AppData\Local\Temp\ccDwwNoN.s 			page 68


 2999 0457 04       		.byte	0x4
 3000 0458 74       		.byte	0x74
 3001 0459 00       		.sleb128 0
 3002 045a 38       		.byte	0x38
 3003 045b 25       		.byte	0x25
 3004 045c 00       		.byte	0
 3005 045d 19       		.uleb128 0x19
 3006 045e 16000000 		.4byte	.LVL25
 3007 0462 F6000000 		.4byte	0xf6
 3008 0466 71040000 		.4byte	0x471
 3009 046a 1A       		.uleb128 0x1a
 3010 046b 01       		.byte	0x1
 3011 046c 50       		.byte	0x50
 3012 046d 02       		.byte	0x2
 3013 046e 74       		.byte	0x74
 3014 046f 00       		.sleb128 0
 3015 0470 00       		.byte	0
 3016 0471 19       		.uleb128 0x19
 3017 0472 1C000000 		.4byte	.LVL26
 3018 0476 F6000000 		.4byte	0xf6
 3019 047a 85040000 		.4byte	0x485
 3020 047e 1A       		.uleb128 0x1a
 3021 047f 01       		.byte	0x1
 3022 0480 50       		.byte	0x50
 3023 0481 02       		.byte	0x2
 3024 0482 09       		.byte	0x9
 3025 0483 80       		.byte	0x80
 3026 0484 00       		.byte	0
 3027 0485 19       		.uleb128 0x19
 3028 0486 22000000 		.4byte	.LVL27
 3029 048a F6000000 		.4byte	0xf6
 3030 048e 98040000 		.4byte	0x498
 3031 0492 1A       		.uleb128 0x1a
 3032 0493 01       		.byte	0x1
 3033 0494 50       		.byte	0x50
 3034 0495 01       		.byte	0x1
 3035 0496 31       		.byte	0x31
 3036 0497 00       		.byte	0
 3037 0498 1B       		.uleb128 0x1b
 3038 0499 28000000 		.4byte	.LVL28
 3039 049d F6000000 		.4byte	0xf6
 3040 04a1 1A       		.uleb128 0x1a
 3041 04a2 01       		.byte	0x1
 3042 04a3 50       		.byte	0x50
 3043 04a4 02       		.byte	0x2
 3044 04a5 75       		.byte	0x75
 3045 04a6 00       		.sleb128 0
 3046 04a7 00       		.byte	0
 3047 04a8 00       		.byte	0
 3048 04a9 16       		.uleb128 0x16
 3049 04aa 01       		.byte	0x1
 3050 04ab 87030000 		.4byte	.LASF36
 3051 04af 01       		.byte	0x1
 3052 04b0 72       		.byte	0x72
 3053 04b1 01       		.byte	0x1
 3054 04b2 7D000000 		.4byte	0x7d
 3055 04b6 00000000 		.4byte	.LFB14
ARM GAS  C:\Users\atsu\AppData\Local\Temp\ccDwwNoN.s 			page 69


 3056 04ba 30000000 		.4byte	.LFE14
 3057 04be EB010000 		.4byte	.LLST15
 3058 04c2 01       		.byte	0x1
 3059 04c3 91050000 		.4byte	0x591
 3060 04c7 17       		.uleb128 0x17
 3061 04c8 68000000 		.4byte	.LASF23
 3062 04cc 01       		.byte	0x1
 3063 04cd 72       		.byte	0x72
 3064 04ce 93000000 		.4byte	0x93
 3065 04d2 0B020000 		.4byte	.LLST16
 3066 04d6 1C       		.uleb128 0x1c
 3067 04d7 A5010000 		.4byte	.LASF35
 3068 04db 01       		.byte	0x1
 3069 04dc 74       		.byte	0x74
 3070 04dd 7D000000 		.4byte	0x7d
 3071 04e1 18       		.uleb128 0x18
 3072 04e2 E2000000 		.4byte	0xe2
 3073 04e6 04000000 		.4byte	.LBB50
 3074 04ea 08000000 		.4byte	.LBE50
 3075 04ee 01       		.byte	0x1
 3076 04ef 78       		.byte	0x78
 3077 04f0 FE040000 		.4byte	0x4fe
 3078 04f4 15       		.uleb128 0x15
 3079 04f5 08000000 		.4byte	.LVL31
 3080 04f9 ED140000 		.4byte	0x14ed
 3081 04fd 00       		.byte	0
 3082 04fe 18       		.uleb128 0x18
 3083 04ff F6000000 		.4byte	0xf6
 3084 0503 20000000 		.4byte	.LBB52
 3085 0507 28000000 		.4byte	.LBE52
 3086 050b 01       		.byte	0x1
 3087 050c 7E       		.byte	0x7e
 3088 050d 27050000 		.4byte	0x527
 3089 0511 1D       		.uleb128 0x1d
 3090 0512 08010000 		.4byte	0x108
 3091 0516 00       		.byte	0
 3092 0517 1B       		.uleb128 0x1b
 3093 0518 26000000 		.4byte	.LVL36
 3094 051c 01150000 		.4byte	0x1501
 3095 0520 1A       		.uleb128 0x1a
 3096 0521 01       		.byte	0x1
 3097 0522 50       		.byte	0x50
 3098 0523 01       		.byte	0x1
 3099 0524 30       		.byte	0x30
 3100 0525 00       		.byte	0
 3101 0526 00       		.byte	0
 3102 0527 18       		.uleb128 0x18
 3103 0528 EC000000 		.4byte	0xec
 3104 052c 28000000 		.4byte	.LBB54
 3105 0530 2C000000 		.4byte	.LBE54
 3106 0534 01       		.byte	0x1
 3107 0535 80       		.byte	0x80
 3108 0536 44050000 		.4byte	0x544
 3109 053a 15       		.uleb128 0x15
 3110 053b 2C000000 		.4byte	.LVL37
 3111 053f F7140000 		.4byte	0x14f7
 3112 0543 00       		.byte	0
ARM GAS  C:\Users\atsu\AppData\Local\Temp\ccDwwNoN.s 			page 70


 3113 0544 19       		.uleb128 0x19
 3114 0545 0E000000 		.4byte	.LVL32
 3115 0549 F6000000 		.4byte	0xf6
 3116 054d 5A050000 		.4byte	0x55a
 3117 0551 1A       		.uleb128 0x1a
 3118 0552 01       		.byte	0x1
 3119 0553 50       		.byte	0x50
 3120 0554 04       		.byte	0x4
 3121 0555 74       		.byte	0x74
 3122 0556 00       		.sleb128 0
 3123 0557 38       		.byte	0x38
 3124 0558 25       		.byte	0x25
 3125 0559 00       		.byte	0
 3126 055a 19       		.uleb128 0x19
 3127 055b 14000000 		.4byte	.LVL33
 3128 055f F6000000 		.4byte	0xf6
 3129 0563 6E050000 		.4byte	0x56e
 3130 0567 1A       		.uleb128 0x1a
 3131 0568 01       		.byte	0x1
 3132 0569 50       		.byte	0x50
 3133 056a 02       		.byte	0x2
 3134 056b 74       		.byte	0x74
 3135 056c 00       		.sleb128 0
 3136 056d 00       		.byte	0
 3137 056e 19       		.uleb128 0x19
 3138 056f 1A000000 		.4byte	.LVL34
 3139 0573 F6000000 		.4byte	0xf6
 3140 0577 81050000 		.4byte	0x581
 3141 057b 1A       		.uleb128 0x1a
 3142 057c 01       		.byte	0x1
 3143 057d 50       		.byte	0x50
 3144 057e 01       		.byte	0x1
 3145 057f 30       		.byte	0x30
 3146 0580 00       		.byte	0
 3147 0581 1B       		.uleb128 0x1b
 3148 0582 20000000 		.4byte	.LVL35
 3149 0586 F6000000 		.4byte	0xf6
 3150 058a 1A       		.uleb128 0x1a
 3151 058b 01       		.byte	0x1
 3152 058c 50       		.byte	0x50
 3153 058d 01       		.byte	0x1
 3154 058e 31       		.byte	0x31
 3155 058f 00       		.byte	0
 3156 0590 00       		.byte	0
 3157 0591 14       		.uleb128 0x14
 3158 0592 14010000 		.4byte	0x114
 3159 0596 00000000 		.4byte	.LFB15
 3160 059a 48000000 		.4byte	.LFE15
 3161 059e 2C020000 		.4byte	.LLST17
 3162 05a2 01       		.byte	0x1
 3163 05a3 9F060000 		.4byte	0x69f
 3164 05a7 13       		.uleb128 0x13
 3165 05a8 26010000 		.4byte	0x126
 3166 05ac 4C020000 		.4byte	.LLST18
 3167 05b0 13       		.uleb128 0x13
 3168 05b1 31010000 		.4byte	0x131
 3169 05b5 6D020000 		.4byte	.LLST19
ARM GAS  C:\Users\atsu\AppData\Local\Temp\ccDwwNoN.s 			page 71


 3170 05b9 13       		.uleb128 0x13
 3171 05ba 3C010000 		.4byte	0x13c
 3172 05be 99020000 		.4byte	.LLST20
 3173 05c2 1E       		.uleb128 0x1e
 3174 05c3 47010000 		.4byte	0x147
 3175 05c7 00       		.byte	0
 3176 05c8 1F       		.uleb128 0x1f
 3177 05c9 14010000 		.4byte	0x114
 3178 05cd 0A000000 		.4byte	.LBB62
 3179 05d1 44000000 		.4byte	.LBE62
 3180 05d5 01       		.byte	0x1
 3181 05d6 89       		.byte	0x89
 3182 05d7 13       		.uleb128 0x13
 3183 05d8 3C010000 		.4byte	0x13c
 3184 05dc BA020000 		.4byte	.LLST21
 3185 05e0 13       		.uleb128 0x13
 3186 05e1 31010000 		.4byte	0x131
 3187 05e5 D8020000 		.4byte	.LLST22
 3188 05e9 13       		.uleb128 0x13
 3189 05ea 26010000 		.4byte	0x126
 3190 05ee F6020000 		.4byte	.LLST23
 3191 05f2 20       		.uleb128 0x20
 3192 05f3 00000000 		.4byte	.Ldebug_ranges0+0
 3193 05f7 21       		.uleb128 0x21
 3194 05f8 47010000 		.4byte	0x147
 3195 05fc 14030000 		.4byte	.LLST24
 3196 0600 18       		.uleb128 0x18
 3197 0601 E2000000 		.4byte	0xe2
 3198 0605 0A000000 		.4byte	.LBB64
 3199 0609 0E000000 		.4byte	.LBE64
 3200 060d 01       		.byte	0x1
 3201 060e 96       		.byte	0x96
 3202 060f 1D060000 		.4byte	0x61d
 3203 0613 15       		.uleb128 0x15
 3204 0614 0E000000 		.4byte	.LVL40
 3205 0618 ED140000 		.4byte	0x14ed
 3206 061c 00       		.byte	0
 3207 061d 18       		.uleb128 0x18
 3208 061e EC000000 		.4byte	0xec
 3209 0622 40000000 		.4byte	.LBB66
 3210 0626 44000000 		.4byte	.LBE66
 3211 062a 01       		.byte	0x1
 3212 062b A1       		.byte	0xa1
 3213 062c 3A060000 		.4byte	0x63a
 3214 0630 15       		.uleb128 0x15
 3215 0631 44000000 		.4byte	.LVL47
 3216 0635 F7140000 		.4byte	0x14f7
 3217 0639 00       		.byte	0
 3218 063a 19       		.uleb128 0x19
 3219 063b 14000000 		.4byte	.LVL41
 3220 063f F6000000 		.4byte	0xf6
 3221 0643 50060000 		.4byte	0x650
 3222 0647 1A       		.uleb128 0x1a
 3223 0648 01       		.byte	0x1
 3224 0649 50       		.byte	0x50
 3225 064a 04       		.byte	0x4
 3226 064b 75       		.byte	0x75
ARM GAS  C:\Users\atsu\AppData\Local\Temp\ccDwwNoN.s 			page 72


 3227 064c 00       		.sleb128 0
 3228 064d 38       		.byte	0x38
 3229 064e 25       		.byte	0x25
 3230 064f 00       		.byte	0
 3231 0650 19       		.uleb128 0x19
 3232 0651 1A000000 		.4byte	.LVL42
 3233 0655 F6000000 		.4byte	0xf6
 3234 0659 64060000 		.4byte	0x664
 3235 065d 1A       		.uleb128 0x1a
 3236 065e 01       		.byte	0x1
 3237 065f 50       		.byte	0x50
 3238 0660 02       		.byte	0x2
 3239 0661 75       		.byte	0x75
 3240 0662 00       		.sleb128 0
 3241 0663 00       		.byte	0
 3242 0664 19       		.uleb128 0x19
 3243 0665 26000000 		.4byte	.LVL43
 3244 0669 F6000000 		.4byte	0xf6
 3245 066d 7F060000 		.4byte	0x67f
 3246 0671 1A       		.uleb128 0x1a
 3247 0672 01       		.byte	0x1
 3248 0673 50       		.byte	0x50
 3249 0674 09       		.byte	0x9
 3250 0675 74       		.byte	0x74
 3251 0676 00       		.sleb128 0
 3252 0677 41       		.byte	0x41
 3253 0678 24       		.byte	0x24
 3254 0679 49       		.byte	0x49
 3255 067a 25       		.byte	0x25
 3256 067b 08       		.byte	0x8
 3257 067c 80       		.byte	0x80
 3258 067d 21       		.byte	0x21
 3259 067e 00       		.byte	0
 3260 067f 19       		.uleb128 0x19
 3261 0680 2C000000 		.4byte	.LVL44
 3262 0684 F6000000 		.4byte	0xf6
 3263 0688 93060000 		.4byte	0x693
 3264 068c 1A       		.uleb128 0x1a
 3265 068d 01       		.byte	0x1
 3266 068e 50       		.byte	0x50
 3267 068f 02       		.byte	0x2
 3268 0690 74       		.byte	0x74
 3269 0691 00       		.sleb128 0
 3270 0692 00       		.byte	0
 3271 0693 15       		.uleb128 0x15
 3272 0694 3C000000 		.4byte	.LVL46
 3273 0698 F6000000 		.4byte	0xf6
 3274 069c 00       		.byte	0
 3275 069d 00       		.byte	0
 3276 069e 00       		.byte	0
 3277 069f 16       		.uleb128 0x16
 3278 06a0 01       		.byte	0x1
 3279 06a1 F3000000 		.4byte	.LASF37
 3280 06a5 01       		.byte	0x1
 3281 06a6 AB       		.byte	0xab
 3282 06a7 01       		.byte	0x1
 3283 06a8 93000000 		.4byte	0x93
ARM GAS  C:\Users\atsu\AppData\Local\Temp\ccDwwNoN.s 			page 73


 3284 06ac 00000000 		.4byte	.LFB16
 3285 06b0 44000000 		.4byte	.LFE16
 3286 06b4 28030000 		.4byte	.LLST25
 3287 06b8 01       		.byte	0x1
 3288 06b9 B2070000 		.4byte	0x7b2
 3289 06bd 17       		.uleb128 0x17
 3290 06be 68000000 		.4byte	.LASF23
 3291 06c2 01       		.byte	0x1
 3292 06c3 AB       		.byte	0xab
 3293 06c4 93000000 		.4byte	0x93
 3294 06c8 48030000 		.4byte	.LLST26
 3295 06cc 0F       		.uleb128 0xf
 3296 06cd 62756600 		.ascii	"buf\000"
 3297 06d1 01       		.byte	0x1
 3298 06d2 AB       		.byte	0xab
 3299 06d3 53010000 		.4byte	0x153
 3300 06d7 69030000 		.4byte	.LLST27
 3301 06db 0F       		.uleb128 0xf
 3302 06dc 6C656E00 		.ascii	"len\000"
 3303 06e0 01       		.byte	0x1
 3304 06e1 AB       		.byte	0xab
 3305 06e2 93000000 		.4byte	0x93
 3306 06e6 95030000 		.4byte	.LLST28
 3307 06ea 22       		.uleb128 0x22
 3308 06eb 69647800 		.ascii	"idx\000"
 3309 06ef 01       		.byte	0x1
 3310 06f0 AD       		.byte	0xad
 3311 06f1 93000000 		.4byte	0x93
 3312 06f5 B6030000 		.4byte	.LLST29
 3313 06f9 18       		.uleb128 0x18
 3314 06fa E2000000 		.4byte	0xe2
 3315 06fe 08000000 		.4byte	.LBB69
 3316 0702 0C000000 		.4byte	.LBE69
 3317 0706 01       		.byte	0x1
 3318 0707 B1       		.byte	0xb1
 3319 0708 16070000 		.4byte	0x716
 3320 070c 15       		.uleb128 0x15
 3321 070d 0C000000 		.4byte	.LVL50
 3322 0711 ED140000 		.4byte	0x14ed
 3323 0715 00       		.byte	0
 3324 0716 18       		.uleb128 0x18
 3325 0717 F6000000 		.4byte	0xf6
 3326 071b 30000000 		.4byte	.LBB71
 3327 071f 36000000 		.4byte	.LBE71
 3328 0723 01       		.byte	0x1
 3329 0724 BA       		.byte	0xba
 3330 0725 42070000 		.4byte	0x742
 3331 0729 13       		.uleb128 0x13
 3332 072a 08010000 		.4byte	0x108
 3333 072e CA030000 		.4byte	.LLST30
 3334 0732 1B       		.uleb128 0x1b
 3335 0733 36000000 		.4byte	.LVL57
 3336 0737 01150000 		.4byte	0x1501
 3337 073b 1A       		.uleb128 0x1a
 3338 073c 01       		.byte	0x1
 3339 073d 50       		.byte	0x50
 3340 073e 01       		.byte	0x1
ARM GAS  C:\Users\atsu\AppData\Local\Temp\ccDwwNoN.s 			page 74


 3341 073f 30       		.byte	0x30
 3342 0740 00       		.byte	0
 3343 0741 00       		.byte	0
 3344 0742 18       		.uleb128 0x18
 3345 0743 EC000000 		.4byte	0xec
 3346 0747 3C000000 		.4byte	.LBB73
 3347 074b 40000000 		.4byte	.LBE73
 3348 074f 01       		.byte	0x1
 3349 0750 BE       		.byte	0xbe
 3350 0751 5F070000 		.4byte	0x75f
 3351 0755 15       		.uleb128 0x15
 3352 0756 40000000 		.4byte	.LVL59
 3353 075a F7140000 		.4byte	0x14f7
 3354 075e 00       		.byte	0
 3355 075f 19       		.uleb128 0x19
 3356 0760 12000000 		.4byte	.LVL51
 3357 0764 F6000000 		.4byte	0xf6
 3358 0768 75070000 		.4byte	0x775
 3359 076c 1A       		.uleb128 0x1a
 3360 076d 01       		.byte	0x1
 3361 076e 50       		.byte	0x50
 3362 076f 04       		.byte	0x4
 3363 0770 75       		.byte	0x75
 3364 0771 00       		.sleb128 0
 3365 0772 38       		.byte	0x38
 3366 0773 25       		.byte	0x25
 3367 0774 00       		.byte	0
 3368 0775 19       		.uleb128 0x19
 3369 0776 18000000 		.4byte	.LVL52
 3370 077a F6000000 		.4byte	0xf6
 3371 077e 89070000 		.4byte	0x789
 3372 0782 1A       		.uleb128 0x1a
 3373 0783 01       		.byte	0x1
 3374 0784 50       		.byte	0x50
 3375 0785 02       		.byte	0x2
 3376 0786 75       		.byte	0x75
 3377 0787 00       		.sleb128 0
 3378 0788 00       		.byte	0
 3379 0789 19       		.uleb128 0x19
 3380 078a 20000000 		.4byte	.LVL53
 3381 078e F6000000 		.4byte	0xf6
 3382 0792 A1070000 		.4byte	0x7a1
 3383 0796 1A       		.uleb128 0x1a
 3384 0797 01       		.byte	0x1
 3385 0798 50       		.byte	0x50
 3386 0799 06       		.byte	0x6
 3387 079a 74       		.byte	0x74
 3388 079b 00       		.sleb128 0
 3389 079c 41       		.byte	0x41
 3390 079d 24       		.byte	0x24
 3391 079e 49       		.byte	0x49
 3392 079f 25       		.byte	0x25
 3393 07a0 00       		.byte	0
 3394 07a1 1B       		.uleb128 0x1b
 3395 07a2 26000000 		.4byte	.LVL54
 3396 07a6 F6000000 		.4byte	0xf6
 3397 07aa 1A       		.uleb128 0x1a
ARM GAS  C:\Users\atsu\AppData\Local\Temp\ccDwwNoN.s 			page 75


 3398 07ab 01       		.byte	0x1
 3399 07ac 50       		.byte	0x50
 3400 07ad 02       		.byte	0x2
 3401 07ae 74       		.byte	0x74
 3402 07af 00       		.sleb128 0
 3403 07b0 00       		.byte	0
 3404 07b1 00       		.byte	0
 3405 07b2 23       		.uleb128 0x23
 3406 07b3 01       		.byte	0x1
 3407 07b4 1B010000 		.4byte	.LASF38
 3408 07b8 01       		.byte	0x1
 3409 07b9 E5       		.byte	0xe5
 3410 07ba 01       		.byte	0x1
 3411 07bb 00000000 		.4byte	.LFB18
 3412 07bf B8010000 		.4byte	.LFE18
 3413 07c3 DE030000 		.4byte	.LLST31
 3414 07c7 01       		.byte	0x1
 3415 07c8 3C080000 		.4byte	0x83c
 3416 07cc 17       		.uleb128 0x17
 3417 07cd 25000000 		.4byte	.LASF39
 3418 07d1 01       		.byte	0x1
 3419 07d2 E5       		.byte	0xe5
 3420 07d3 53010000 		.4byte	0x153
 3421 07d7 0A040000 		.4byte	.LLST32
 3422 07db 17       		.uleb128 0x17
 3423 07dc 18000000 		.4byte	.LASF40
 3424 07e0 01       		.byte	0x1
 3425 07e1 E5       		.byte	0xe5
 3426 07e2 53010000 		.4byte	0x153
 3427 07e6 29040000 		.4byte	.LLST33
 3428 07ea 22       		.uleb128 0x22
 3429 07eb 6900     		.ascii	"i\000"
 3430 07ed 01       		.byte	0x1
 3431 07ee E7       		.byte	0xe7
 3432 07ef 88000000 		.4byte	0x88
 3433 07f3 48040000 		.4byte	.LLST34
 3434 07f7 24       		.uleb128 0x24
 3435 07f8 19040000 		.4byte	.LASF41
 3436 07fc 01       		.byte	0x1
 3437 07fd E8       		.byte	0xe8
 3438 07fe 88000000 		.4byte	0x88
 3439 0802 5C040000 		.4byte	.LLST35
 3440 0806 24       		.uleb128 0x24
 3441 0807 20000000 		.4byte	.LASF42
 3442 080b 01       		.byte	0x1
 3443 080c E8       		.byte	0xe8
 3444 080d 88000000 		.4byte	0x88
 3445 0811 7B040000 		.4byte	.LLST36
 3446 0815 19       		.uleb128 0x19
 3447 0816 2C000000 		.4byte	.LVL65
 3448 081a D1030000 		.4byte	0x3d1
 3449 081e 2B080000 		.4byte	0x82b
 3450 0822 1A       		.uleb128 0x1a
 3451 0823 01       		.byte	0x1
 3452 0824 50       		.byte	0x50
 3453 0825 04       		.byte	0x4
 3454 0826 77       		.byte	0x77
ARM GAS  C:\Users\atsu\AppData\Local\Temp\ccDwwNoN.s 			page 76


 3455 0827 9F8001   		.sleb128 16415
 3456 082a 00       		.byte	0
 3457 082b 1B       		.uleb128 0x1b
 3458 082c 3A000000 		.4byte	.LVL66
 3459 0830 D1030000 		.4byte	0x3d1
 3460 0834 1A       		.uleb128 0x1a
 3461 0835 01       		.byte	0x1
 3462 0836 50       		.byte	0x50
 3463 0837 02       		.byte	0x2
 3464 0838 77       		.byte	0x77
 3465 0839 00       		.sleb128 0
 3466 083a 00       		.byte	0
 3467 083b 00       		.byte	0
 3468 083c 25       		.uleb128 0x25
 3469 083d 01       		.byte	0x1
 3470 083e 56020000 		.4byte	.LASF43
 3471 0842 01       		.byte	0x1
 3472 0843 4D01     		.2byte	0x14d
 3473 0845 01       		.byte	0x1
 3474 0846 00000000 		.4byte	.LFB19
 3475 084a 26000000 		.4byte	.LFE19
 3476 084e 9B040000 		.4byte	.LLST37
 3477 0852 01       		.byte	0x1
 3478 0853 B0080000 		.4byte	0x8b0
 3479 0857 26       		.uleb128 0x26
 3480 0858 68000000 		.4byte	.LASF23
 3481 085c 01       		.byte	0x1
 3482 085d 4E01     		.2byte	0x14e
 3483 085f 53010000 		.4byte	0x153
 3484 0863 BB040000 		.4byte	.LLST38
 3485 0867 19       		.uleb128 0x19
 3486 0868 0C000000 		.4byte	.LVL72
 3487 086c D1030000 		.4byte	0x3d1
 3488 0870 7A080000 		.4byte	0x87a
 3489 0874 1A       		.uleb128 0x1a
 3490 0875 01       		.byte	0x1
 3491 0876 50       		.byte	0x50
 3492 0877 01       		.byte	0x1
 3493 0878 31       		.byte	0x31
 3494 0879 00       		.byte	0
 3495 087a 19       		.uleb128 0x19
 3496 087b 14000000 		.4byte	.LVL73
 3497 087f D1030000 		.4byte	0x3d1
 3498 0883 8D080000 		.4byte	0x88d
 3499 0887 1A       		.uleb128 0x1a
 3500 0888 01       		.byte	0x1
 3501 0889 50       		.byte	0x50
 3502 088a 01       		.byte	0x1
 3503 088b 32       		.byte	0x32
 3504 088c 00       		.byte	0
 3505 088d 19       		.uleb128 0x19
 3506 088e 1C000000 		.4byte	.LVL74
 3507 0892 D1030000 		.4byte	0x3d1
 3508 0896 A0080000 		.4byte	0x8a0
 3509 089a 1A       		.uleb128 0x1a
 3510 089b 01       		.byte	0x1
 3511 089c 50       		.byte	0x50
ARM GAS  C:\Users\atsu\AppData\Local\Temp\ccDwwNoN.s 			page 77


 3512 089d 01       		.byte	0x1
 3513 089e 33       		.byte	0x33
 3514 089f 00       		.byte	0
 3515 08a0 1B       		.uleb128 0x1b
 3516 08a1 24000000 		.4byte	.LVL75
 3517 08a5 D1030000 		.4byte	0x3d1
 3518 08a9 1A       		.uleb128 0x1a
 3519 08aa 01       		.byte	0x1
 3520 08ab 50       		.byte	0x50
 3521 08ac 01       		.byte	0x1
 3522 08ad 34       		.byte	0x34
 3523 08ae 00       		.byte	0
 3524 08af 00       		.byte	0
 3525 08b0 27       		.uleb128 0x27
 3526 08b1 01       		.byte	0x1
 3527 08b2 5E010000 		.4byte	.LASF44
 3528 08b6 01       		.byte	0x1
 3529 08b7 6401     		.2byte	0x164
 3530 08b9 01       		.byte	0x1
 3531 08ba 00000000 		.4byte	.LFB20
 3532 08be 28000000 		.4byte	.LFE20
 3533 08c2 02       		.byte	0x2
 3534 08c3 7D       		.byte	0x7d
 3535 08c4 00       		.sleb128 0
 3536 08c5 01       		.byte	0x1
 3537 08c6 DB080000 		.4byte	0x8db
 3538 08ca 26       		.uleb128 0x26
 3539 08cb 68000000 		.4byte	.LASF23
 3540 08cf 01       		.byte	0x1
 3541 08d0 6501     		.2byte	0x165
 3542 08d2 53010000 		.4byte	0x153
 3543 08d6 E7040000 		.4byte	.LLST39
 3544 08da 00       		.byte	0
 3545 08db 25       		.uleb128 0x25
 3546 08dc 01       		.byte	0x1
 3547 08dd 86010000 		.4byte	.LASF45
 3548 08e1 01       		.byte	0x1
 3549 08e2 6E01     		.2byte	0x16e
 3550 08e4 01       		.byte	0x1
 3551 08e5 00000000 		.4byte	.LFB21
 3552 08e9 38000000 		.4byte	.LFE21
 3553 08ed 08050000 		.4byte	.LLST40
 3554 08f1 01       		.byte	0x1
 3555 08f2 3F090000 		.4byte	0x93f
 3556 08f6 19       		.uleb128 0x19
 3557 08f7 10000000 		.4byte	.LVL79
 3558 08fb D1030000 		.4byte	0x3d1
 3559 08ff 09090000 		.4byte	0x909
 3560 0903 1A       		.uleb128 0x1a
 3561 0904 01       		.byte	0x1
 3562 0905 50       		.byte	0x50
 3563 0906 01       		.byte	0x1
 3564 0907 35       		.byte	0x35
 3565 0908 00       		.byte	0
 3566 0909 19       		.uleb128 0x19
 3567 090a 1C000000 		.4byte	.LVL80
 3568 090e D1030000 		.4byte	0x3d1
ARM GAS  C:\Users\atsu\AppData\Local\Temp\ccDwwNoN.s 			page 78


 3569 0912 1C090000 		.4byte	0x91c
 3570 0916 1A       		.uleb128 0x1a
 3571 0917 01       		.byte	0x1
 3572 0918 50       		.byte	0x50
 3573 0919 01       		.byte	0x1
 3574 091a 36       		.byte	0x36
 3575 091b 00       		.byte	0
 3576 091c 19       		.uleb128 0x19
 3577 091d 2A000000 		.4byte	.LVL81
 3578 0921 D1030000 		.4byte	0x3d1
 3579 0925 2F090000 		.4byte	0x92f
 3580 0929 1A       		.uleb128 0x1a
 3581 092a 01       		.byte	0x1
 3582 092b 50       		.byte	0x50
 3583 092c 01       		.byte	0x1
 3584 092d 37       		.byte	0x37
 3585 092e 00       		.byte	0
 3586 092f 1B       		.uleb128 0x1b
 3587 0930 32000000 		.4byte	.LVL82
 3588 0934 D1030000 		.4byte	0x3d1
 3589 0938 1A       		.uleb128 0x1a
 3590 0939 01       		.byte	0x1
 3591 093a 50       		.byte	0x50
 3592 093b 01       		.byte	0x1
 3593 093c 38       		.byte	0x38
 3594 093d 00       		.byte	0
 3595 093e 00       		.byte	0
 3596 093f 25       		.uleb128 0x25
 3597 0940 01       		.byte	0x1
 3598 0941 4E020000 		.4byte	.LASF46
 3599 0945 01       		.byte	0x1
 3600 0946 8601     		.2byte	0x186
 3601 0948 01       		.byte	0x1
 3602 0949 00000000 		.4byte	.LFB23
 3603 094d 36000000 		.4byte	.LFE23
 3604 0951 28050000 		.4byte	.LLST41
 3605 0955 01       		.byte	0x1
 3606 0956 D9090000 		.4byte	0x9d9
 3607 095a 26       		.uleb128 0x26
 3608 095b 68000000 		.4byte	.LASF23
 3609 095f 01       		.byte	0x1
 3610 0960 8701     		.2byte	0x187
 3611 0962 53010000 		.4byte	0x153
 3612 0966 48050000 		.4byte	.LLST42
 3613 096a 19       		.uleb128 0x19
 3614 096b 0C000000 		.4byte	.LVL85
 3615 096f D1030000 		.4byte	0x3d1
 3616 0973 7D090000 		.4byte	0x97d
 3617 0977 1A       		.uleb128 0x1a
 3618 0978 01       		.byte	0x1
 3619 0979 50       		.byte	0x50
 3620 097a 01       		.byte	0x1
 3621 097b 39       		.byte	0x39
 3622 097c 00       		.byte	0
 3623 097d 19       		.uleb128 0x19
 3624 097e 14000000 		.4byte	.LVL86
 3625 0982 D1030000 		.4byte	0x3d1
ARM GAS  C:\Users\atsu\AppData\Local\Temp\ccDwwNoN.s 			page 79


 3626 0986 90090000 		.4byte	0x990
 3627 098a 1A       		.uleb128 0x1a
 3628 098b 01       		.byte	0x1
 3629 098c 50       		.byte	0x50
 3630 098d 01       		.byte	0x1
 3631 098e 3A       		.byte	0x3a
 3632 098f 00       		.byte	0
 3633 0990 19       		.uleb128 0x19
 3634 0991 1C000000 		.4byte	.LVL87
 3635 0995 D1030000 		.4byte	0x3d1
 3636 0999 A3090000 		.4byte	0x9a3
 3637 099d 1A       		.uleb128 0x1a
 3638 099e 01       		.byte	0x1
 3639 099f 50       		.byte	0x50
 3640 09a0 01       		.byte	0x1
 3641 09a1 3B       		.byte	0x3b
 3642 09a2 00       		.byte	0
 3643 09a3 19       		.uleb128 0x19
 3644 09a4 24000000 		.4byte	.LVL88
 3645 09a8 D1030000 		.4byte	0x3d1
 3646 09ac B6090000 		.4byte	0x9b6
 3647 09b0 1A       		.uleb128 0x1a
 3648 09b1 01       		.byte	0x1
 3649 09b2 50       		.byte	0x50
 3650 09b3 01       		.byte	0x1
 3651 09b4 3C       		.byte	0x3c
 3652 09b5 00       		.byte	0
 3653 09b6 19       		.uleb128 0x19
 3654 09b7 2C000000 		.4byte	.LVL89
 3655 09bb D1030000 		.4byte	0x3d1
 3656 09bf C9090000 		.4byte	0x9c9
 3657 09c3 1A       		.uleb128 0x1a
 3658 09c4 01       		.byte	0x1
 3659 09c5 50       		.byte	0x50
 3660 09c6 01       		.byte	0x1
 3661 09c7 3D       		.byte	0x3d
 3662 09c8 00       		.byte	0
 3663 09c9 1B       		.uleb128 0x1b
 3664 09ca 34000000 		.4byte	.LVL90
 3665 09ce D1030000 		.4byte	0x3d1
 3666 09d2 1A       		.uleb128 0x1a
 3667 09d3 01       		.byte	0x1
 3668 09d4 50       		.byte	0x50
 3669 09d5 01       		.byte	0x1
 3670 09d6 3E       		.byte	0x3e
 3671 09d7 00       		.byte	0
 3672 09d8 00       		.byte	0
 3673 09d9 25       		.uleb128 0x25
 3674 09da 01       		.byte	0x1
 3675 09db 9D010000 		.4byte	.LASF47
 3676 09df 01       		.byte	0x1
 3677 09e0 9501     		.2byte	0x195
 3678 09e2 01       		.byte	0x1
 3679 09e3 00000000 		.4byte	.LFB24
 3680 09e7 26000000 		.4byte	.LFE24
 3681 09eb 74050000 		.4byte	.LLST43
 3682 09ef 01       		.byte	0x1
ARM GAS  C:\Users\atsu\AppData\Local\Temp\ccDwwNoN.s 			page 80


 3683 09f0 4D0A0000 		.4byte	0xa4d
 3684 09f4 26       		.uleb128 0x26
 3685 09f5 68000000 		.4byte	.LASF23
 3686 09f9 01       		.byte	0x1
 3687 09fa 9601     		.2byte	0x196
 3688 09fc 53010000 		.4byte	0x153
 3689 0a00 94050000 		.4byte	.LLST44
 3690 0a04 19       		.uleb128 0x19
 3691 0a05 0C000000 		.4byte	.LVL94
 3692 0a09 D1030000 		.4byte	0x3d1
 3693 0a0d 170A0000 		.4byte	0xa17
 3694 0a11 1A       		.uleb128 0x1a
 3695 0a12 01       		.byte	0x1
 3696 0a13 50       		.byte	0x50
 3697 0a14 01       		.byte	0x1
 3698 0a15 3F       		.byte	0x3f
 3699 0a16 00       		.byte	0
 3700 0a17 19       		.uleb128 0x19
 3701 0a18 14000000 		.4byte	.LVL95
 3702 0a1c D1030000 		.4byte	0x3d1
 3703 0a20 2A0A0000 		.4byte	0xa2a
 3704 0a24 1A       		.uleb128 0x1a
 3705 0a25 01       		.byte	0x1
 3706 0a26 50       		.byte	0x50
 3707 0a27 01       		.byte	0x1
 3708 0a28 40       		.byte	0x40
 3709 0a29 00       		.byte	0
 3710 0a2a 19       		.uleb128 0x19
 3711 0a2b 1C000000 		.4byte	.LVL96
 3712 0a2f D1030000 		.4byte	0x3d1
 3713 0a33 3D0A0000 		.4byte	0xa3d
 3714 0a37 1A       		.uleb128 0x1a
 3715 0a38 01       		.byte	0x1
 3716 0a39 50       		.byte	0x50
 3717 0a3a 01       		.byte	0x1
 3718 0a3b 41       		.byte	0x41
 3719 0a3c 00       		.byte	0
 3720 0a3d 1B       		.uleb128 0x1b
 3721 0a3e 24000000 		.4byte	.LVL97
 3722 0a42 D1030000 		.4byte	0x3d1
 3723 0a46 1A       		.uleb128 0x1a
 3724 0a47 01       		.byte	0x1
 3725 0a48 50       		.byte	0x50
 3726 0a49 01       		.byte	0x1
 3727 0a4a 42       		.byte	0x42
 3728 0a4b 00       		.byte	0
 3729 0a4c 00       		.byte	0
 3730 0a4d 25       		.uleb128 0x25
 3731 0a4e 01       		.byte	0x1
 3732 0a4f F1030000 		.4byte	.LASF48
 3733 0a53 01       		.byte	0x1
 3734 0a54 A201     		.2byte	0x1a2
 3735 0a56 01       		.byte	0x1
 3736 0a57 00000000 		.4byte	.LFB25
 3737 0a5b 26000000 		.4byte	.LFE25
 3738 0a5f C0050000 		.4byte	.LLST45
 3739 0a63 01       		.byte	0x1
ARM GAS  C:\Users\atsu\AppData\Local\Temp\ccDwwNoN.s 			page 81


 3740 0a64 C10A0000 		.4byte	0xac1
 3741 0a68 26       		.uleb128 0x26
 3742 0a69 68000000 		.4byte	.LASF23
 3743 0a6d 01       		.byte	0x1
 3744 0a6e A201     		.2byte	0x1a2
 3745 0a70 53010000 		.4byte	0x153
 3746 0a74 E0050000 		.4byte	.LLST46
 3747 0a78 19       		.uleb128 0x19
 3748 0a79 0A000000 		.4byte	.LVL101
 3749 0a7d A9040000 		.4byte	0x4a9
 3750 0a81 8B0A0000 		.4byte	0xa8b
 3751 0a85 1A       		.uleb128 0x1a
 3752 0a86 01       		.byte	0x1
 3753 0a87 50       		.byte	0x50
 3754 0a88 01       		.byte	0x1
 3755 0a89 31       		.byte	0x31
 3756 0a8a 00       		.byte	0
 3757 0a8b 19       		.uleb128 0x19
 3758 0a8c 12000000 		.4byte	.LVL102
 3759 0a90 A9040000 		.4byte	0x4a9
 3760 0a94 9E0A0000 		.4byte	0xa9e
 3761 0a98 1A       		.uleb128 0x1a
 3762 0a99 01       		.byte	0x1
 3763 0a9a 50       		.byte	0x50
 3764 0a9b 01       		.byte	0x1
 3765 0a9c 32       		.byte	0x32
 3766 0a9d 00       		.byte	0
 3767 0a9e 19       		.uleb128 0x19
 3768 0a9f 1A000000 		.4byte	.LVL103
 3769 0aa3 A9040000 		.4byte	0x4a9
 3770 0aa7 B10A0000 		.4byte	0xab1
 3771 0aab 1A       		.uleb128 0x1a
 3772 0aac 01       		.byte	0x1
 3773 0aad 50       		.byte	0x50
 3774 0aae 01       		.byte	0x1
 3775 0aaf 33       		.byte	0x33
 3776 0ab0 00       		.byte	0
 3777 0ab1 1B       		.uleb128 0x1b
 3778 0ab2 22000000 		.4byte	.LVL104
 3779 0ab6 A9040000 		.4byte	0x4a9
 3780 0aba 1A       		.uleb128 0x1a
 3781 0abb 01       		.byte	0x1
 3782 0abc 50       		.byte	0x50
 3783 0abd 01       		.byte	0x1
 3784 0abe 34       		.byte	0x34
 3785 0abf 00       		.byte	0
 3786 0ac0 00       		.byte	0
 3787 0ac1 27       		.uleb128 0x27
 3788 0ac2 01       		.byte	0x1
 3789 0ac3 B6030000 		.4byte	.LASF49
 3790 0ac7 01       		.byte	0x1
 3791 0ac8 A901     		.2byte	0x1a9
 3792 0aca 01       		.byte	0x1
 3793 0acb 00000000 		.4byte	.LFB26
 3794 0acf 28000000 		.4byte	.LFE26
 3795 0ad3 02       		.byte	0x2
 3796 0ad4 7D       		.byte	0x7d
ARM GAS  C:\Users\atsu\AppData\Local\Temp\ccDwwNoN.s 			page 82


 3797 0ad5 00       		.sleb128 0
 3798 0ad6 01       		.byte	0x1
 3799 0ad7 EA0A0000 		.4byte	0xaea
 3800 0adb 28       		.uleb128 0x28
 3801 0adc 68000000 		.4byte	.LASF23
 3802 0ae0 01       		.byte	0x1
 3803 0ae1 A901     		.2byte	0x1a9
 3804 0ae3 53010000 		.4byte	0x153
 3805 0ae7 01       		.byte	0x1
 3806 0ae8 50       		.byte	0x50
 3807 0ae9 00       		.byte	0
 3808 0aea 25       		.uleb128 0x25
 3809 0aeb 01       		.byte	0x1
 3810 0aec 60000000 		.4byte	.LASF50
 3811 0af0 01       		.byte	0x1
 3812 0af1 B001     		.2byte	0x1b0
 3813 0af3 01       		.byte	0x1
 3814 0af4 00000000 		.4byte	.LFB27
 3815 0af8 36000000 		.4byte	.LFE27
 3816 0afc 0C060000 		.4byte	.LLST47
 3817 0b00 01       		.byte	0x1
 3818 0b01 840B0000 		.4byte	0xb84
 3819 0b05 26       		.uleb128 0x26
 3820 0b06 68000000 		.4byte	.LASF23
 3821 0b0a 01       		.byte	0x1
 3822 0b0b B001     		.2byte	0x1b0
 3823 0b0d 53010000 		.4byte	0x153
 3824 0b11 2C060000 		.4byte	.LLST48
 3825 0b15 19       		.uleb128 0x19
 3826 0b16 0A000000 		.4byte	.LVL109
 3827 0b1a A9040000 		.4byte	0x4a9
 3828 0b1e 280B0000 		.4byte	0xb28
 3829 0b22 1A       		.uleb128 0x1a
 3830 0b23 01       		.byte	0x1
 3831 0b24 50       		.byte	0x50
 3832 0b25 01       		.byte	0x1
 3833 0b26 39       		.byte	0x39
 3834 0b27 00       		.byte	0
 3835 0b28 19       		.uleb128 0x19
 3836 0b29 12000000 		.4byte	.LVL110
 3837 0b2d A9040000 		.4byte	0x4a9
 3838 0b31 3B0B0000 		.4byte	0xb3b
 3839 0b35 1A       		.uleb128 0x1a
 3840 0b36 01       		.byte	0x1
 3841 0b37 50       		.byte	0x50
 3842 0b38 01       		.byte	0x1
 3843 0b39 3A       		.byte	0x3a
 3844 0b3a 00       		.byte	0
 3845 0b3b 19       		.uleb128 0x19
 3846 0b3c 1A000000 		.4byte	.LVL111
 3847 0b40 A9040000 		.4byte	0x4a9
 3848 0b44 4E0B0000 		.4byte	0xb4e
 3849 0b48 1A       		.uleb128 0x1a
 3850 0b49 01       		.byte	0x1
 3851 0b4a 50       		.byte	0x50
 3852 0b4b 01       		.byte	0x1
 3853 0b4c 3B       		.byte	0x3b
ARM GAS  C:\Users\atsu\AppData\Local\Temp\ccDwwNoN.s 			page 83


 3854 0b4d 00       		.byte	0
 3855 0b4e 19       		.uleb128 0x19
 3856 0b4f 22000000 		.4byte	.LVL112
 3857 0b53 A9040000 		.4byte	0x4a9
 3858 0b57 610B0000 		.4byte	0xb61
 3859 0b5b 1A       		.uleb128 0x1a
 3860 0b5c 01       		.byte	0x1
 3861 0b5d 50       		.byte	0x50
 3862 0b5e 01       		.byte	0x1
 3863 0b5f 3C       		.byte	0x3c
 3864 0b60 00       		.byte	0
 3865 0b61 19       		.uleb128 0x19
 3866 0b62 2A000000 		.4byte	.LVL113
 3867 0b66 A9040000 		.4byte	0x4a9
 3868 0b6a 740B0000 		.4byte	0xb74
 3869 0b6e 1A       		.uleb128 0x1a
 3870 0b6f 01       		.byte	0x1
 3871 0b70 50       		.byte	0x50
 3872 0b71 01       		.byte	0x1
 3873 0b72 3D       		.byte	0x3d
 3874 0b73 00       		.byte	0
 3875 0b74 1B       		.uleb128 0x1b
 3876 0b75 32000000 		.4byte	.LVL114
 3877 0b79 A9040000 		.4byte	0x4a9
 3878 0b7d 1A       		.uleb128 0x1a
 3879 0b7e 01       		.byte	0x1
 3880 0b7f 50       		.byte	0x50
 3881 0b80 01       		.byte	0x1
 3882 0b81 3E       		.byte	0x3e
 3883 0b82 00       		.byte	0
 3884 0b83 00       		.byte	0
 3885 0b84 25       		.uleb128 0x25
 3886 0b85 01       		.byte	0x1
 3887 0b86 C7030000 		.4byte	.LASF51
 3888 0b8a 01       		.byte	0x1
 3889 0b8b B901     		.2byte	0x1b9
 3890 0b8d 01       		.byte	0x1
 3891 0b8e 00000000 		.4byte	.LFB28
 3892 0b92 26000000 		.4byte	.LFE28
 3893 0b96 58060000 		.4byte	.LLST49
 3894 0b9a 01       		.byte	0x1
 3895 0b9b F80B0000 		.4byte	0xbf8
 3896 0b9f 26       		.uleb128 0x26
 3897 0ba0 68000000 		.4byte	.LASF23
 3898 0ba4 01       		.byte	0x1
 3899 0ba5 B901     		.2byte	0x1b9
 3900 0ba7 53010000 		.4byte	0x153
 3901 0bab 78060000 		.4byte	.LLST50
 3902 0baf 19       		.uleb128 0x19
 3903 0bb0 0A000000 		.4byte	.LVL118
 3904 0bb4 A9040000 		.4byte	0x4a9
 3905 0bb8 C20B0000 		.4byte	0xbc2
 3906 0bbc 1A       		.uleb128 0x1a
 3907 0bbd 01       		.byte	0x1
 3908 0bbe 50       		.byte	0x50
 3909 0bbf 01       		.byte	0x1
 3910 0bc0 3F       		.byte	0x3f
ARM GAS  C:\Users\atsu\AppData\Local\Temp\ccDwwNoN.s 			page 84


 3911 0bc1 00       		.byte	0
 3912 0bc2 19       		.uleb128 0x19
 3913 0bc3 12000000 		.4byte	.LVL119
 3914 0bc7 A9040000 		.4byte	0x4a9
 3915 0bcb D50B0000 		.4byte	0xbd5
 3916 0bcf 1A       		.uleb128 0x1a
 3917 0bd0 01       		.byte	0x1
 3918 0bd1 50       		.byte	0x50
 3919 0bd2 01       		.byte	0x1
 3920 0bd3 40       		.byte	0x40
 3921 0bd4 00       		.byte	0
 3922 0bd5 19       		.uleb128 0x19
 3923 0bd6 1A000000 		.4byte	.LVL120
 3924 0bda A9040000 		.4byte	0x4a9
 3925 0bde E80B0000 		.4byte	0xbe8
 3926 0be2 1A       		.uleb128 0x1a
 3927 0be3 01       		.byte	0x1
 3928 0be4 50       		.byte	0x50
 3929 0be5 01       		.byte	0x1
 3930 0be6 41       		.byte	0x41
 3931 0be7 00       		.byte	0
 3932 0be8 1B       		.uleb128 0x1b
 3933 0be9 22000000 		.4byte	.LVL121
 3934 0bed A9040000 		.4byte	0x4a9
 3935 0bf1 1A       		.uleb128 0x1a
 3936 0bf2 01       		.byte	0x1
 3937 0bf3 50       		.byte	0x50
 3938 0bf4 01       		.byte	0x1
 3939 0bf5 42       		.byte	0x42
 3940 0bf6 00       		.byte	0
 3941 0bf7 00       		.byte	0
 3942 0bf8 25       		.uleb128 0x25
 3943 0bf9 01       		.byte	0x1
 3944 0bfa 09040000 		.4byte	.LASF52
 3945 0bfe 01       		.byte	0x1
 3946 0bff 7601     		.2byte	0x176
 3947 0c01 01       		.byte	0x1
 3948 0c02 00000000 		.4byte	.LFB22
 3949 0c06 58000000 		.4byte	.LFE22
 3950 0c0a A4060000 		.4byte	.LLST51
 3951 0c0e 01       		.byte	0x1
 3952 0c0f 880C0000 		.4byte	0xc88
 3953 0c13 19       		.uleb128 0x19
 3954 0c14 0E000000 		.4byte	.LVL123
 3955 0c18 840B0000 		.4byte	0xb84
 3956 0c1c 270C0000 		.4byte	0xc27
 3957 0c20 1A       		.uleb128 0x1a
 3958 0c21 01       		.byte	0x1
 3959 0c22 50       		.byte	0x50
 3960 0c23 02       		.byte	0x2
 3961 0c24 75       		.byte	0x75
 3962 0c25 00       		.sleb128 0
 3963 0c26 00       		.byte	0
 3964 0c27 19       		.uleb128 0x19
 3965 0c28 38000000 		.4byte	.LVL124
 3966 0c2c D1030000 		.4byte	0x3d1
 3967 0c30 400C0000 		.4byte	0xc40
ARM GAS  C:\Users\atsu\AppData\Local\Temp\ccDwwNoN.s 			page 85


 3968 0c34 1A       		.uleb128 0x1a
 3969 0c35 01       		.byte	0x1
 3970 0c36 51       		.byte	0x51
 3971 0c37 02       		.byte	0x2
 3972 0c38 74       		.byte	0x74
 3973 0c39 00       		.sleb128 0
 3974 0c3a 1A       		.uleb128 0x1a
 3975 0c3b 01       		.byte	0x1
 3976 0c3c 50       		.byte	0x50
 3977 0c3d 01       		.byte	0x1
 3978 0c3e 35       		.byte	0x35
 3979 0c3f 00       		.byte	0
 3980 0c40 19       		.uleb128 0x19
 3981 0c41 40000000 		.4byte	.LVL125
 3982 0c45 D1030000 		.4byte	0x3d1
 3983 0c49 590C0000 		.4byte	0xc59
 3984 0c4d 1A       		.uleb128 0x1a
 3985 0c4e 01       		.byte	0x1
 3986 0c4f 51       		.byte	0x51
 3987 0c50 02       		.byte	0x2
 3988 0c51 74       		.byte	0x74
 3989 0c52 00       		.sleb128 0
 3990 0c53 1A       		.uleb128 0x1a
 3991 0c54 01       		.byte	0x1
 3992 0c55 50       		.byte	0x50
 3993 0c56 01       		.byte	0x1
 3994 0c57 36       		.byte	0x36
 3995 0c58 00       		.byte	0
 3996 0c59 19       		.uleb128 0x19
 3997 0c5a 48000000 		.4byte	.LVL126
 3998 0c5e D1030000 		.4byte	0x3d1
 3999 0c62 720C0000 		.4byte	0xc72
 4000 0c66 1A       		.uleb128 0x1a
 4001 0c67 01       		.byte	0x1
 4002 0c68 51       		.byte	0x51
 4003 0c69 02       		.byte	0x2
 4004 0c6a 74       		.byte	0x74
 4005 0c6b 00       		.sleb128 0
 4006 0c6c 1A       		.uleb128 0x1a
 4007 0c6d 01       		.byte	0x1
 4008 0c6e 50       		.byte	0x50
 4009 0c6f 01       		.byte	0x1
 4010 0c70 37       		.byte	0x37
 4011 0c71 00       		.byte	0
 4012 0c72 1B       		.uleb128 0x1b
 4013 0c73 50000000 		.4byte	.LVL127
 4014 0c77 D1030000 		.4byte	0x3d1
 4015 0c7b 1A       		.uleb128 0x1a
 4016 0c7c 01       		.byte	0x1
 4017 0c7d 51       		.byte	0x51
 4018 0c7e 02       		.byte	0x2
 4019 0c7f 74       		.byte	0x74
 4020 0c80 00       		.sleb128 0
 4021 0c81 1A       		.uleb128 0x1a
 4022 0c82 01       		.byte	0x1
 4023 0c83 50       		.byte	0x50
 4024 0c84 01       		.byte	0x1
ARM GAS  C:\Users\atsu\AppData\Local\Temp\ccDwwNoN.s 			page 86


 4025 0c85 38       		.byte	0x38
 4026 0c86 00       		.byte	0
 4027 0c87 00       		.byte	0
 4028 0c88 25       		.uleb128 0x25
 4029 0c89 01       		.byte	0x1
 4030 0c8a 13040000 		.4byte	.LASF53
 4031 0c8e 01       		.byte	0x1
 4032 0c8f C101     		.2byte	0x1c1
 4033 0c91 01       		.byte	0x1
 4034 0c92 00000000 		.4byte	.LFB29
 4035 0c96 0C000000 		.4byte	.LFE29
 4036 0c9a C4060000 		.4byte	.LLST52
 4037 0c9e 01       		.byte	0x1
 4038 0c9f C30C0000 		.4byte	0xcc3
 4039 0ca3 29       		.uleb128 0x29
 4040 0ca4 76616C00 		.ascii	"val\000"
 4041 0ca8 01       		.byte	0x1
 4042 0ca9 C101     		.2byte	0x1c1
 4043 0cab 7D000000 		.4byte	0x7d
 4044 0caf E4060000 		.4byte	.LLST53
 4045 0cb3 1B       		.uleb128 0x1b
 4046 0cb4 0A000000 		.4byte	.LVL130
 4047 0cb8 D1030000 		.4byte	0x3d1
 4048 0cbc 1A       		.uleb128 0x1a
 4049 0cbd 01       		.byte	0x1
 4050 0cbe 50       		.byte	0x50
 4051 0cbf 01       		.byte	0x1
 4052 0cc0 30       		.byte	0x30
 4053 0cc1 00       		.byte	0
 4054 0cc2 00       		.byte	0
 4055 0cc3 23       		.uleb128 0x23
 4056 0cc4 01       		.byte	0x1
 4057 0cc5 67010000 		.4byte	.LASF54
 4058 0cc9 01       		.byte	0x1
 4059 0cca C8       		.byte	0xc8
 4060 0ccb 01       		.byte	0x1
 4061 0ccc 00000000 		.4byte	.LFB17
 4062 0cd0 0A000000 		.4byte	.LFE17
 4063 0cd4 05070000 		.4byte	.LLST54
 4064 0cd8 01       		.byte	0x1
 4065 0cd9 EE0C0000 		.4byte	0xcee
 4066 0cdd 1B       		.uleb128 0x1b
 4067 0cde 08000000 		.4byte	.LVL131
 4068 0ce2 880C0000 		.4byte	0xc88
 4069 0ce6 1A       		.uleb128 0x1a
 4070 0ce7 01       		.byte	0x1
 4071 0ce8 50       		.byte	0x50
 4072 0ce9 02       		.byte	0x2
 4073 0cea 09       		.byte	0x9
 4074 0ceb 80       		.byte	0x80
 4075 0cec 00       		.byte	0
 4076 0ced 00       		.byte	0
 4077 0cee 2A       		.uleb128 0x2a
 4078 0cef 01       		.byte	0x1
 4079 0cf0 9B030000 		.4byte	.LASF55
 4080 0cf4 01       		.byte	0x1
 4081 0cf5 C901     		.2byte	0x1c9
ARM GAS  C:\Users\atsu\AppData\Local\Temp\ccDwwNoN.s 			page 87


 4082 0cf7 01       		.byte	0x1
 4083 0cf8 7D000000 		.4byte	0x7d
 4084 0cfc 00000000 		.4byte	.LFB30
 4085 0d00 0A000000 		.4byte	.LFE30
 4086 0d04 25070000 		.4byte	.LLST55
 4087 0d08 01       		.byte	0x1
 4088 0d09 1D0D0000 		.4byte	0xd1d
 4089 0d0d 1B       		.uleb128 0x1b
 4090 0d0e 08000000 		.4byte	.LVL132
 4091 0d12 A9040000 		.4byte	0x4a9
 4092 0d16 1A       		.uleb128 0x1a
 4093 0d17 01       		.byte	0x1
 4094 0d18 50       		.byte	0x50
 4095 0d19 01       		.byte	0x1
 4096 0d1a 45       		.byte	0x45
 4097 0d1b 00       		.byte	0
 4098 0d1c 00       		.byte	0
 4099 0d1d 25       		.uleb128 0x25
 4100 0d1e 01       		.byte	0x1
 4101 0d1f 59000000 		.4byte	.LASF56
 4102 0d23 01       		.byte	0x1
 4103 0d24 D901     		.2byte	0x1d9
 4104 0d26 01       		.byte	0x1
 4105 0d27 00000000 		.4byte	.LFB31
 4106 0d2b 16000000 		.4byte	.LFE31
 4107 0d2f 45070000 		.4byte	.LLST56
 4108 0d33 01       		.byte	0x1
 4109 0d34 790D0000 		.4byte	0xd79
 4110 0d38 26       		.uleb128 0x26
 4111 0d39 8E010000 		.4byte	.LASF57
 4112 0d3d 01       		.byte	0x1
 4113 0d3e D901     		.2byte	0x1d9
 4114 0d40 93000000 		.4byte	0x93
 4115 0d44 65070000 		.4byte	.LLST57
 4116 0d48 19       		.uleb128 0x19
 4117 0d49 0C000000 		.4byte	.LVL135
 4118 0d4d D1030000 		.4byte	0x3d1
 4119 0d51 630D0000 		.4byte	0xd63
 4120 0d55 1A       		.uleb128 0x1a
 4121 0d56 01       		.byte	0x1
 4122 0d57 51       		.byte	0x51
 4123 0d58 04       		.byte	0x4
 4124 0d59 74       		.byte	0x74
 4125 0d5a 00       		.sleb128 0
 4126 0d5b 38       		.byte	0x38
 4127 0d5c 25       		.byte	0x25
 4128 0d5d 1A       		.uleb128 0x1a
 4129 0d5e 01       		.byte	0x1
 4130 0d5f 50       		.byte	0x50
 4131 0d60 01       		.byte	0x1
 4132 0d61 47       		.byte	0x47
 4133 0d62 00       		.byte	0
 4134 0d63 1B       		.uleb128 0x1b
 4135 0d64 14000000 		.4byte	.LVL136
 4136 0d68 D1030000 		.4byte	0x3d1
 4137 0d6c 1A       		.uleb128 0x1a
 4138 0d6d 01       		.byte	0x1
ARM GAS  C:\Users\atsu\AppData\Local\Temp\ccDwwNoN.s 			page 88


 4139 0d6e 51       		.byte	0x51
 4140 0d6f 02       		.byte	0x2
 4141 0d70 74       		.byte	0x74
 4142 0d71 00       		.sleb128 0
 4143 0d72 1A       		.uleb128 0x1a
 4144 0d73 01       		.byte	0x1
 4145 0d74 50       		.byte	0x50
 4146 0d75 01       		.byte	0x1
 4147 0d76 48       		.byte	0x48
 4148 0d77 00       		.byte	0
 4149 0d78 00       		.byte	0
 4150 0d79 25       		.uleb128 0x25
 4151 0d7a 01       		.byte	0x1
 4152 0d7b 94030000 		.4byte	.LASF58
 4153 0d7f 01       		.byte	0x1
 4154 0d80 E501     		.2byte	0x1e5
 4155 0d82 01       		.byte	0x1
 4156 0d83 00000000 		.4byte	.LFB32
 4157 0d87 0C000000 		.4byte	.LFE32
 4158 0d8b 86070000 		.4byte	.LLST58
 4159 0d8f 01       		.byte	0x1
 4160 0d90 B40D0000 		.4byte	0xdb4
 4161 0d94 26       		.uleb128 0x26
 4162 0d95 43020000 		.4byte	.LASF59
 4163 0d99 01       		.byte	0x1
 4164 0d9a E501     		.2byte	0x1e5
 4165 0d9c 7D000000 		.4byte	0x7d
 4166 0da0 A6070000 		.4byte	.LLST59
 4167 0da4 1B       		.uleb128 0x1b
 4168 0da5 0A000000 		.4byte	.LVL139
 4169 0da9 D1030000 		.4byte	0x3d1
 4170 0dad 1A       		.uleb128 0x1a
 4171 0dae 01       		.byte	0x1
 4172 0daf 50       		.byte	0x50
 4173 0db0 01       		.byte	0x1
 4174 0db1 49       		.byte	0x49
 4175 0db2 00       		.byte	0
 4176 0db3 00       		.byte	0
 4177 0db4 25       		.uleb128 0x25
 4178 0db5 01       		.byte	0x1
 4179 0db6 57030000 		.4byte	.LASF60
 4180 0dba 01       		.byte	0x1
 4181 0dbb F301     		.2byte	0x1f3
 4182 0dbd 01       		.byte	0x1
 4183 0dbe 00000000 		.4byte	.LFB33
 4184 0dc2 0C000000 		.4byte	.LFE33
 4185 0dc6 C7070000 		.4byte	.LLST60
 4186 0dca 01       		.byte	0x1
 4187 0dcb F00D0000 		.4byte	0xdf0
 4188 0dcf 26       		.uleb128 0x26
 4189 0dd0 3A010000 		.4byte	.LASF61
 4190 0dd4 01       		.byte	0x1
 4191 0dd5 F301     		.2byte	0x1f3
 4192 0dd7 7D000000 		.4byte	0x7d
 4193 0ddb E7070000 		.4byte	.LLST61
 4194 0ddf 1B       		.uleb128 0x1b
 4195 0de0 0A000000 		.4byte	.LVL142
ARM GAS  C:\Users\atsu\AppData\Local\Temp\ccDwwNoN.s 			page 89


 4196 0de4 D1030000 		.4byte	0x3d1
 4197 0de8 1A       		.uleb128 0x1a
 4198 0de9 01       		.byte	0x1
 4199 0dea 50       		.byte	0x50
 4200 0deb 02       		.byte	0x2
 4201 0dec 08       		.byte	0x8
 4202 0ded 36       		.byte	0x36
 4203 0dee 00       		.byte	0
 4204 0def 00       		.byte	0
 4205 0df0 25       		.uleb128 0x25
 4206 0df1 01       		.byte	0x1
 4207 0df2 38000000 		.4byte	.LASF62
 4208 0df6 01       		.byte	0x1
 4209 0df7 FB01     		.2byte	0x1fb
 4210 0df9 01       		.byte	0x1
 4211 0dfa 00000000 		.4byte	.LFB34
 4212 0dfe 24000000 		.4byte	.LFE34
 4213 0e02 08080000 		.4byte	.LLST62
 4214 0e06 01       		.byte	0x1
 4215 0e07 5C0E0000 		.4byte	0xe5c
 4216 0e0b 29       		.uleb128 0x29
 4217 0e0c 7300     		.ascii	"s\000"
 4218 0e0e 01       		.byte	0x1
 4219 0e0f FB01     		.2byte	0x1fb
 4220 0e11 C7000000 		.4byte	0xc7
 4221 0e15 28080000 		.4byte	.LLST63
 4222 0e19 26       		.uleb128 0x26
 4223 0e1a CE000000 		.4byte	.LASF63
 4224 0e1e 01       		.byte	0x1
 4225 0e1f FB01     		.2byte	0x1fb
 4226 0e21 93000000 		.4byte	0x93
 4227 0e25 49080000 		.4byte	.LLST64
 4228 0e29 19       		.uleb128 0x19
 4229 0e2a 1A000000 		.4byte	.LVL146
 4230 0e2e D1030000 		.4byte	0x3d1
 4231 0e32 450E0000 		.4byte	0xe45
 4232 0e36 1A       		.uleb128 0x1a
 4233 0e37 01       		.byte	0x1
 4234 0e38 51       		.byte	0x51
 4235 0e39 04       		.byte	0x4
 4236 0e3a 74       		.byte	0x74
 4237 0e3b 00       		.sleb128 0
 4238 0e3c 38       		.byte	0x38
 4239 0e3d 25       		.byte	0x25
 4240 0e3e 1A       		.uleb128 0x1a
 4241 0e3f 01       		.byte	0x1
 4242 0e40 50       		.byte	0x50
 4243 0e41 02       		.byte	0x2
 4244 0e42 75       		.byte	0x75
 4245 0e43 7F       		.sleb128 -1
 4246 0e44 00       		.byte	0
 4247 0e45 1B       		.uleb128 0x1b
 4248 0e46 22000000 		.4byte	.LVL147
 4249 0e4a D1030000 		.4byte	0x3d1
 4250 0e4e 1A       		.uleb128 0x1a
 4251 0e4f 01       		.byte	0x1
 4252 0e50 51       		.byte	0x51
ARM GAS  C:\Users\atsu\AppData\Local\Temp\ccDwwNoN.s 			page 90


 4253 0e51 02       		.byte	0x2
 4254 0e52 74       		.byte	0x74
 4255 0e53 00       		.sleb128 0
 4256 0e54 1A       		.uleb128 0x1a
 4257 0e55 01       		.byte	0x1
 4258 0e56 50       		.byte	0x50
 4259 0e57 02       		.byte	0x2
 4260 0e58 75       		.byte	0x75
 4261 0e59 00       		.sleb128 0
 4262 0e5a 00       		.byte	0
 4263 0e5b 00       		.byte	0
 4264 0e5c 25       		.uleb128 0x25
 4265 0e5d 01       		.byte	0x1
 4266 0e5e 33030000 		.4byte	.LASF64
 4267 0e62 01       		.byte	0x1
 4268 0e63 0102     		.2byte	0x201
 4269 0e65 01       		.byte	0x1
 4270 0e66 00000000 		.4byte	.LFB35
 4271 0e6a 14000000 		.4byte	.LFE35
 4272 0e6e 6A080000 		.4byte	.LLST65
 4273 0e72 01       		.byte	0x1
 4274 0e73 9F0E0000 		.4byte	0xe9f
 4275 0e77 29       		.uleb128 0x29
 4276 0e78 7300     		.ascii	"s\000"
 4277 0e7a 01       		.byte	0x1
 4278 0e7b 0102     		.2byte	0x201
 4279 0e7d C7000000 		.4byte	0xc7
 4280 0e81 8A080000 		.4byte	.LLST66
 4281 0e85 29       		.uleb128 0x29
 4282 0e86 74746C00 		.ascii	"ttl\000"
 4283 0e8a 01       		.byte	0x1
 4284 0e8b 0102     		.2byte	0x201
 4285 0e8d 7D000000 		.4byte	0x7d
 4286 0e91 AB080000 		.4byte	.LLST67
 4287 0e95 15       		.uleb128 0x15
 4288 0e96 0E000000 		.4byte	.LVL150
 4289 0e9a D1030000 		.4byte	0x3d1
 4290 0e9e 00       		.byte	0
 4291 0e9f 25       		.uleb128 0x25
 4292 0ea0 01       		.byte	0x1
 4293 0ea1 92000000 		.4byte	.LASF65
 4294 0ea5 01       		.byte	0x1
 4295 0ea6 0B02     		.2byte	0x20b
 4296 0ea8 01       		.byte	0x1
 4297 0ea9 00000000 		.4byte	.LFB36
 4298 0ead 14000000 		.4byte	.LFE36
 4299 0eb1 CC080000 		.4byte	.LLST68
 4300 0eb5 01       		.byte	0x1
 4301 0eb6 E20E0000 		.4byte	0xee2
 4302 0eba 29       		.uleb128 0x29
 4303 0ebb 7300     		.ascii	"s\000"
 4304 0ebd 01       		.byte	0x1
 4305 0ebe 0B02     		.2byte	0x20b
 4306 0ec0 C7000000 		.4byte	0xc7
 4307 0ec4 EC080000 		.4byte	.LLST69
 4308 0ec8 26       		.uleb128 0x26
 4309 0ec9 2D030000 		.4byte	.LASF66
ARM GAS  C:\Users\atsu\AppData\Local\Temp\ccDwwNoN.s 			page 91


 4310 0ecd 01       		.byte	0x1
 4311 0ece 0B02     		.2byte	0x20b
 4312 0ed0 7D000000 		.4byte	0x7d
 4313 0ed4 0D090000 		.4byte	.LLST70
 4314 0ed8 15       		.uleb128 0x15
 4315 0ed9 0E000000 		.4byte	.LVL153
 4316 0edd D1030000 		.4byte	0x3d1
 4317 0ee1 00       		.byte	0
 4318 0ee2 2A       		.uleb128 0x2a
 4319 0ee3 01       		.byte	0x1
 4320 0ee4 00000000 		.4byte	.LASF67
 4321 0ee8 01       		.byte	0x1
 4322 0ee9 1602     		.2byte	0x216
 4323 0eeb 01       		.byte	0x1
 4324 0eec 7D000000 		.4byte	0x7d
 4325 0ef0 00000000 		.4byte	.LFB37
 4326 0ef4 14000000 		.4byte	.LFE37
 4327 0ef8 2E090000 		.4byte	.LLST71
 4328 0efc 01       		.byte	0x1
 4329 0efd 190F0000 		.4byte	0xf19
 4330 0f01 29       		.uleb128 0x29
 4331 0f02 7300     		.ascii	"s\000"
 4332 0f04 01       		.byte	0x1
 4333 0f05 1602     		.2byte	0x216
 4334 0f07 C7000000 		.4byte	0xc7
 4335 0f0b 4E090000 		.4byte	.LLST72
 4336 0f0f 15       		.uleb128 0x15
 4337 0f10 0E000000 		.4byte	.LVL156
 4338 0f14 A9040000 		.4byte	0x4a9
 4339 0f18 00       		.byte	0
 4340 0f19 2A       		.uleb128 0x2a
 4341 0f1a 01       		.byte	0x1
 4342 0f1b 48010000 		.4byte	.LASF68
 4343 0f1f 01       		.byte	0x1
 4344 0f20 1F02     		.2byte	0x21f
 4345 0f22 01       		.byte	0x1
 4346 0f23 7D000000 		.4byte	0x7d
 4347 0f27 00000000 		.4byte	.LFB38
 4348 0f2b 14000000 		.4byte	.LFE38
 4349 0f2f 6F090000 		.4byte	.LLST73
 4350 0f33 01       		.byte	0x1
 4351 0f34 500F0000 		.4byte	0xf50
 4352 0f38 29       		.uleb128 0x29
 4353 0f39 7300     		.ascii	"s\000"
 4354 0f3b 01       		.byte	0x1
 4355 0f3c 1F02     		.2byte	0x21f
 4356 0f3e C7000000 		.4byte	0xc7
 4357 0f42 8F090000 		.4byte	.LLST74
 4358 0f46 15       		.uleb128 0x15
 4359 0f47 0E000000 		.4byte	.LVL159
 4360 0f4b A9040000 		.4byte	0x4a9
 4361 0f4f 00       		.byte	0
 4362 0f50 2A       		.uleb128 0x2a
 4363 0f51 01       		.byte	0x1
 4364 0f52 20030000 		.4byte	.LASF69
 4365 0f56 01       		.byte	0x1
 4366 0f57 2B02     		.2byte	0x22b
ARM GAS  C:\Users\atsu\AppData\Local\Temp\ccDwwNoN.s 			page 92


 4367 0f59 01       		.byte	0x1
 4368 0f5a 93000000 		.4byte	0x93
 4369 0f5e 00000000 		.4byte	.LFB39
 4370 0f62 4A000000 		.4byte	.LFE39
 4371 0f66 B0090000 		.4byte	.LLST75
 4372 0f6a 01       		.byte	0x1
 4373 0f6b EA0F0000 		.4byte	0xfea
 4374 0f6f 29       		.uleb128 0x29
 4375 0f70 7300     		.ascii	"s\000"
 4376 0f72 01       		.byte	0x1
 4377 0f73 2B02     		.2byte	0x22b
 4378 0f75 C7000000 		.4byte	0xc7
 4379 0f79 D0090000 		.4byte	.LLST76
 4380 0f7d 2B       		.uleb128 0x2b
 4381 0f7e 76616C00 		.ascii	"val\000"
 4382 0f82 01       		.byte	0x1
 4383 0f83 2D02     		.2byte	0x22d
 4384 0f85 93000000 		.4byte	0x93
 4385 0f89 F1090000 		.4byte	.LLST77
 4386 0f8d 2C       		.uleb128 0x2c
 4387 0f8e 49020000 		.4byte	.LASF70
 4388 0f92 01       		.byte	0x1
 4389 0f93 2D02     		.2byte	0x22d
 4390 0f95 93000000 		.4byte	0x93
 4391 0f99 360A0000 		.4byte	.LLST78
 4392 0f9d 19       		.uleb128 0x19
 4393 0f9e 1C000000 		.4byte	.LVL163
 4394 0fa2 A9040000 		.4byte	0x4a9
 4395 0fa6 B10F0000 		.4byte	0xfb1
 4396 0faa 1A       		.uleb128 0x1a
 4397 0fab 01       		.byte	0x1
 4398 0fac 50       		.byte	0x50
 4399 0fad 02       		.byte	0x2
 4400 0fae 76       		.byte	0x76
 4401 0faf 00       		.sleb128 0
 4402 0fb0 00       		.byte	0
 4403 0fb1 19       		.uleb128 0x19
 4404 0fb2 24000000 		.4byte	.LVL165
 4405 0fb6 A9040000 		.4byte	0x4a9
 4406 0fba C50F0000 		.4byte	0xfc5
 4407 0fbe 1A       		.uleb128 0x1a
 4408 0fbf 01       		.byte	0x1
 4409 0fc0 50       		.byte	0x50
 4410 0fc1 02       		.byte	0x2
 4411 0fc2 77       		.byte	0x77
 4412 0fc3 00       		.sleb128 0
 4413 0fc4 00       		.byte	0
 4414 0fc5 19       		.uleb128 0x19
 4415 0fc6 34000000 		.4byte	.LVL167
 4416 0fca A9040000 		.4byte	0x4a9
 4417 0fce D90F0000 		.4byte	0xfd9
 4418 0fd2 1A       		.uleb128 0x1a
 4419 0fd3 01       		.byte	0x1
 4420 0fd4 50       		.byte	0x50
 4421 0fd5 02       		.byte	0x2
 4422 0fd6 76       		.byte	0x76
 4423 0fd7 00       		.sleb128 0
ARM GAS  C:\Users\atsu\AppData\Local\Temp\ccDwwNoN.s 			page 93


 4424 0fd8 00       		.byte	0
 4425 0fd9 1B       		.uleb128 0x1b
 4426 0fda 3C000000 		.4byte	.LVL169
 4427 0fde A9040000 		.4byte	0x4a9
 4428 0fe2 1A       		.uleb128 0x1a
 4429 0fe3 01       		.byte	0x1
 4430 0fe4 50       		.byte	0x50
 4431 0fe5 02       		.byte	0x2
 4432 0fe6 77       		.byte	0x77
 4433 0fe7 00       		.sleb128 0
 4434 0fe8 00       		.byte	0
 4435 0fe9 00       		.byte	0
 4436 0fea 2A       		.uleb128 0x2a
 4437 0feb 01       		.byte	0x1
 4438 0fec 9B040000 		.4byte	.LASF71
 4439 0ff0 01       		.byte	0x1
 4440 0ff1 4102     		.2byte	0x241
 4441 0ff3 01       		.byte	0x1
 4442 0ff4 93000000 		.4byte	0x93
 4443 0ff8 00000000 		.4byte	.LFB40
 4444 0ffc 4A000000 		.4byte	.LFE40
 4445 1000 700A0000 		.4byte	.LLST79
 4446 1004 01       		.byte	0x1
 4447 1005 84100000 		.4byte	0x1084
 4448 1009 29       		.uleb128 0x29
 4449 100a 7300     		.ascii	"s\000"
 4450 100c 01       		.byte	0x1
 4451 100d 4102     		.2byte	0x241
 4452 100f C7000000 		.4byte	0xc7
 4453 1013 900A0000 		.4byte	.LLST80
 4454 1017 2B       		.uleb128 0x2b
 4455 1018 76616C00 		.ascii	"val\000"
 4456 101c 01       		.byte	0x1
 4457 101d 4302     		.2byte	0x243
 4458 101f 93000000 		.4byte	0x93
 4459 1023 B10A0000 		.4byte	.LLST81
 4460 1027 2C       		.uleb128 0x2c
 4461 1028 49020000 		.4byte	.LASF70
 4462 102c 01       		.byte	0x1
 4463 102d 4302     		.2byte	0x243
 4464 102f 93000000 		.4byte	0x93
 4465 1033 F60A0000 		.4byte	.LLST82
 4466 1037 19       		.uleb128 0x19
 4467 1038 1C000000 		.4byte	.LVL176
 4468 103c A9040000 		.4byte	0x4a9
 4469 1040 4B100000 		.4byte	0x104b
 4470 1044 1A       		.uleb128 0x1a
 4471 1045 01       		.byte	0x1
 4472 1046 50       		.byte	0x50
 4473 1047 02       		.byte	0x2
 4474 1048 76       		.byte	0x76
 4475 1049 00       		.sleb128 0
 4476 104a 00       		.byte	0
 4477 104b 19       		.uleb128 0x19
 4478 104c 24000000 		.4byte	.LVL178
 4479 1050 A9040000 		.4byte	0x4a9
 4480 1054 5F100000 		.4byte	0x105f
ARM GAS  C:\Users\atsu\AppData\Local\Temp\ccDwwNoN.s 			page 94


 4481 1058 1A       		.uleb128 0x1a
 4482 1059 01       		.byte	0x1
 4483 105a 50       		.byte	0x50
 4484 105b 02       		.byte	0x2
 4485 105c 77       		.byte	0x77
 4486 105d 00       		.sleb128 0
 4487 105e 00       		.byte	0
 4488 105f 19       		.uleb128 0x19
 4489 1060 34000000 		.4byte	.LVL180
 4490 1064 A9040000 		.4byte	0x4a9
 4491 1068 73100000 		.4byte	0x1073
 4492 106c 1A       		.uleb128 0x1a
 4493 106d 01       		.byte	0x1
 4494 106e 50       		.byte	0x50
 4495 106f 02       		.byte	0x2
 4496 1070 76       		.byte	0x76
 4497 1071 00       		.sleb128 0
 4498 1072 00       		.byte	0
 4499 1073 1B       		.uleb128 0x1b
 4500 1074 3C000000 		.4byte	.LVL182
 4501 1078 A9040000 		.4byte	0x4a9
 4502 107c 1A       		.uleb128 0x1a
 4503 107d 01       		.byte	0x1
 4504 107e 50       		.byte	0x50
 4505 107f 02       		.byte	0x2
 4506 1080 77       		.byte	0x77
 4507 1081 00       		.sleb128 0
 4508 1082 00       		.byte	0
 4509 1083 00       		.byte	0
 4510 1084 25       		.uleb128 0x25
 4511 1085 01       		.byte	0x1
 4512 1086 00010000 		.4byte	.LASF72
 4513 108a 01       		.byte	0x1
 4514 108b 8702     		.2byte	0x287
 4515 108d 01       		.byte	0x1
 4516 108e 00000000 		.4byte	.LFB43
 4517 1092 44000000 		.4byte	.LFE43
 4518 1096 300B0000 		.4byte	.LLST83
 4519 109a 01       		.byte	0x1
 4520 109b 69110000 		.4byte	0x1169
 4521 109f 29       		.uleb128 0x29
 4522 10a0 7300     		.ascii	"s\000"
 4523 10a2 01       		.byte	0x1
 4524 10a3 8702     		.2byte	0x287
 4525 10a5 C7000000 		.4byte	0xc7
 4526 10a9 500B0000 		.4byte	.LLST84
 4527 10ad 29       		.uleb128 0x29
 4528 10ae 73726300 		.ascii	"src\000"
 4529 10b2 01       		.byte	0x1
 4530 10b3 8702     		.2byte	0x287
 4531 10b5 69110000 		.4byte	0x1169
 4532 10b9 710B0000 		.4byte	.LLST85
 4533 10bd 29       		.uleb128 0x29
 4534 10be 64737400 		.ascii	"dst\000"
 4535 10c2 01       		.byte	0x1
 4536 10c3 8702     		.2byte	0x287
 4537 10c5 69110000 		.4byte	0x1169
ARM GAS  C:\Users\atsu\AppData\Local\Temp\ccDwwNoN.s 			page 95


 4538 10c9 C30B0000 		.4byte	.LLST86
 4539 10cd 29       		.uleb128 0x29
 4540 10ce 6C656E00 		.ascii	"len\000"
 4541 10d2 01       		.byte	0x1
 4542 10d3 8702     		.2byte	0x287
 4543 10d5 93000000 		.4byte	0x93
 4544 10d9 E40B0000 		.4byte	.LLST87
 4545 10dd 2C       		.uleb128 0x2c
 4546 10de AA010000 		.4byte	.LASF73
 4547 10e2 01       		.byte	0x1
 4548 10e3 8902     		.2byte	0x289
 4549 10e5 93000000 		.4byte	0x93
 4550 10e9 050C0000 		.4byte	.LLST88
 4551 10ed 2C       		.uleb128 0x2c
 4552 10ee 3F010000 		.4byte	.LASF74
 4553 10f2 01       		.byte	0x1
 4554 10f3 8A02     		.2byte	0x28a
 4555 10f5 93000000 		.4byte	0x93
 4556 10f9 330C0000 		.4byte	.LLST89
 4557 10fd 2C       		.uleb128 0x2c
 4558 10fe 18030000 		.4byte	.LASF75
 4559 1102 01       		.byte	0x1
 4560 1103 8B02     		.2byte	0x28b
 4561 1105 53010000 		.4byte	0x153
 4562 1109 680C0000 		.4byte	.LLST90
 4563 110d 2D       		.uleb128 0x2d
 4564 110e 59010000 		.4byte	0x159
 4565 1112 02000000 		.4byte	.LBB75
 4566 1116 08000000 		.4byte	.LBE75
 4567 111a 01       		.byte	0x1
 4568 111b 8D02     		.2byte	0x28d
 4569 111d 2B110000 		.4byte	0x112b
 4570 1121 13       		.uleb128 0x13
 4571 1122 6B010000 		.4byte	0x16b
 4572 1126 EB0C0000 		.4byte	.LLST91
 4573 112a 00       		.byte	0
 4574 112b 2D       		.uleb128 0x2d
 4575 112c 91010000 		.4byte	0x191
 4576 1130 10000000 		.4byte	.LBB77
 4577 1134 12000000 		.4byte	.LBE77
 4578 1138 01       		.byte	0x1
 4579 1139 9002     		.2byte	0x290
 4580 113b 45110000 		.4byte	0x1145
 4581 113f 2E       		.uleb128 0x2e
 4582 1140 A3010000 		.4byte	0x1a3
 4583 1144 00       		.byte	0
 4584 1145 19       		.uleb128 0x19
 4585 1146 2A000000 		.4byte	.LVL196
 4586 114a 14010000 		.4byte	0x114
 4587 114e 5F110000 		.4byte	0x115f
 4588 1152 1A       		.uleb128 0x1a
 4589 1153 01       		.byte	0x1
 4590 1154 52       		.byte	0x52
 4591 1155 02       		.byte	0x2
 4592 1156 77       		.byte	0x77
 4593 1157 00       		.sleb128 0
 4594 1158 1A       		.uleb128 0x1a
ARM GAS  C:\Users\atsu\AppData\Local\Temp\ccDwwNoN.s 			page 96


 4595 1159 01       		.byte	0x1
 4596 115a 51       		.byte	0x51
 4597 115b 02       		.byte	0x2
 4598 115c 76       		.byte	0x76
 4599 115d 00       		.sleb128 0
 4600 115e 00       		.byte	0
 4601 115f 15       		.uleb128 0x15
 4602 1160 3C000000 		.4byte	.LVL201
 4603 1164 14010000 		.4byte	0x114
 4604 1168 00       		.byte	0
 4605 1169 0D       		.uleb128 0xd
 4606 116a 04       		.byte	0x4
 4607 116b B7000000 		.4byte	0xb7
 4608 116f 25       		.uleb128 0x25
 4609 1170 01       		.byte	0x1
 4610 1171 C2010000 		.4byte	.LASF76
 4611 1175 01       		.byte	0x1
 4612 1176 5802     		.2byte	0x258
 4613 1178 01       		.byte	0x1
 4614 1179 00000000 		.4byte	.LFB41
 4615 117d 52000000 		.4byte	.LFE41
 4616 1181 FE0C0000 		.4byte	.LLST92
 4617 1185 01       		.byte	0x1
 4618 1186 4C120000 		.4byte	0x124c
 4619 118a 29       		.uleb128 0x29
 4620 118b 7300     		.ascii	"s\000"
 4621 118d 01       		.byte	0x1
 4622 118e 5802     		.2byte	0x258
 4623 1190 C7000000 		.4byte	0xc7
 4624 1194 1E0D0000 		.4byte	.LLST93
 4625 1198 26       		.uleb128 0x26
 4626 1199 A5010000 		.4byte	.LASF35
 4627 119d 01       		.byte	0x1
 4628 119e 5802     		.2byte	0x258
 4629 11a0 53010000 		.4byte	0x153
 4630 11a4 3F0D0000 		.4byte	.LLST94
 4631 11a8 29       		.uleb128 0x29
 4632 11a9 6C656E00 		.ascii	"len\000"
 4633 11ad 01       		.byte	0x1
 4634 11ae 5802     		.2byte	0x258
 4635 11b0 93000000 		.4byte	0x93
 4636 11b4 5E0D0000 		.4byte	.LLST95
 4637 11b8 2B       		.uleb128 0x2b
 4638 11b9 70747200 		.ascii	"ptr\000"
 4639 11bd 01       		.byte	0x1
 4640 11be 5B02     		.2byte	0x25b
 4641 11c0 93000000 		.4byte	0x93
 4642 11c4 7F0D0000 		.4byte	.LLST96
 4643 11c8 19       		.uleb128 0x19
 4644 11c9 1C000000 		.4byte	.LVL204
 4645 11cd A9040000 		.4byte	0x4a9
 4646 11d1 DC110000 		.4byte	0x11dc
 4647 11d5 1A       		.uleb128 0x1a
 4648 11d6 01       		.byte	0x1
 4649 11d7 50       		.byte	0x50
 4650 11d8 02       		.byte	0x2
 4651 11d9 75       		.byte	0x75
ARM GAS  C:\Users\atsu\AppData\Local\Temp\ccDwwNoN.s 			page 97


 4652 11da 00       		.sleb128 0
 4653 11db 00       		.byte	0
 4654 11dc 19       		.uleb128 0x19
 4655 11dd 28000000 		.4byte	.LVL206
 4656 11e1 A9040000 		.4byte	0x4a9
 4657 11e5 F0110000 		.4byte	0x11f0
 4658 11e9 1A       		.uleb128 0x1a
 4659 11ea 01       		.byte	0x1
 4660 11eb 50       		.byte	0x50
 4661 11ec 02       		.byte	0x2
 4662 11ed 74       		.byte	0x74
 4663 11ee 00       		.sleb128 0
 4664 11ef 00       		.byte	0
 4665 11f0 19       		.uleb128 0x19
 4666 11f1 3A000000 		.4byte	.LVL209
 4667 11f5 84100000 		.4byte	0x1084
 4668 11f9 19120000 		.4byte	0x1219
 4669 11fd 1A       		.uleb128 0x1a
 4670 11fe 01       		.byte	0x1
 4671 11ff 53       		.byte	0x53
 4672 1200 04       		.byte	0x4
 4673 1201 91       		.byte	0x91
 4674 1202 60       		.sleb128 -32
 4675 1203 94       		.byte	0x94
 4676 1204 02       		.byte	0x2
 4677 1205 1A       		.uleb128 0x1a
 4678 1206 01       		.byte	0x1
 4679 1207 52       		.byte	0x52
 4680 1208 02       		.byte	0x2
 4681 1209 76       		.byte	0x76
 4682 120a 00       		.sleb128 0
 4683 120b 1A       		.uleb128 0x1a
 4684 120c 01       		.byte	0x1
 4685 120d 51       		.byte	0x51
 4686 120e 03       		.byte	0x3
 4687 120f 91       		.byte	0x91
 4688 1210 64       		.sleb128 -28
 4689 1211 06       		.byte	0x6
 4690 1212 1A       		.uleb128 0x1a
 4691 1213 01       		.byte	0x1
 4692 1214 50       		.byte	0x50
 4693 1215 02       		.byte	0x2
 4694 1216 77       		.byte	0x77
 4695 1217 00       		.sleb128 0
 4696 1218 00       		.byte	0
 4697 1219 19       		.uleb128 0x19
 4698 121a 48000000 		.4byte	.LVL211
 4699 121e D1030000 		.4byte	0x3d1
 4700 1222 35120000 		.4byte	0x1235
 4701 1226 1A       		.uleb128 0x1a
 4702 1227 01       		.byte	0x1
 4703 1228 51       		.byte	0x51
 4704 1229 04       		.byte	0x4
 4705 122a 77       		.byte	0x77
 4706 122b 00       		.sleb128 0
 4707 122c 38       		.byte	0x38
 4708 122d 25       		.byte	0x25
ARM GAS  C:\Users\atsu\AppData\Local\Temp\ccDwwNoN.s 			page 98


 4709 122e 1A       		.uleb128 0x1a
 4710 122f 01       		.byte	0x1
 4711 1230 50       		.byte	0x50
 4712 1231 02       		.byte	0x2
 4713 1232 75       		.byte	0x75
 4714 1233 00       		.sleb128 0
 4715 1234 00       		.byte	0
 4716 1235 1B       		.uleb128 0x1b
 4717 1236 50000000 		.4byte	.LVL212
 4718 123a D1030000 		.4byte	0x3d1
 4719 123e 1A       		.uleb128 0x1a
 4720 123f 01       		.byte	0x1
 4721 1240 51       		.byte	0x51
 4722 1241 02       		.byte	0x2
 4723 1242 77       		.byte	0x77
 4724 1243 00       		.sleb128 0
 4725 1244 1A       		.uleb128 0x1a
 4726 1245 01       		.byte	0x1
 4727 1246 50       		.byte	0x50
 4728 1247 02       		.byte	0x2
 4729 1248 74       		.byte	0x74
 4730 1249 00       		.sleb128 0
 4731 124a 00       		.byte	0
 4732 124b 00       		.byte	0
 4733 124c 25       		.uleb128 0x25
 4734 124d 01       		.byte	0x1
 4735 124e D7000000 		.4byte	.LASF77
 4736 1252 01       		.byte	0x1
 4737 1253 A702     		.2byte	0x2a7
 4738 1255 01       		.byte	0x1
 4739 1256 00000000 		.4byte	.LFB44
 4740 125a 44000000 		.4byte	.LFE44
 4741 125e CE0D0000 		.4byte	.LLST97
 4742 1262 01       		.byte	0x1
 4743 1263 31130000 		.4byte	0x1331
 4744 1267 29       		.uleb128 0x29
 4745 1268 7300     		.ascii	"s\000"
 4746 126a 01       		.byte	0x1
 4747 126b A702     		.2byte	0x2a7
 4748 126d C7000000 		.4byte	0xc7
 4749 1271 EE0D0000 		.4byte	.LLST98
 4750 1275 29       		.uleb128 0x29
 4751 1276 73726300 		.ascii	"src\000"
 4752 127a 01       		.byte	0x1
 4753 127b A702     		.2byte	0x2a7
 4754 127d 69110000 		.4byte	0x1169
 4755 1281 0F0E0000 		.4byte	.LLST99
 4756 1285 29       		.uleb128 0x29
 4757 1286 64737400 		.ascii	"dst\000"
 4758 128a 01       		.byte	0x1
 4759 128b A702     		.2byte	0x2a7
 4760 128d 69110000 		.4byte	0x1169
 4761 1291 300E0000 		.4byte	.LLST100
 4762 1295 29       		.uleb128 0x29
 4763 1296 6C656E00 		.ascii	"len\000"
 4764 129a 01       		.byte	0x1
 4765 129b A702     		.2byte	0x2a7
ARM GAS  C:\Users\atsu\AppData\Local\Temp\ccDwwNoN.s 			page 99


 4766 129d 93000000 		.4byte	0x93
 4767 12a1 820E0000 		.4byte	.LLST101
 4768 12a5 2C       		.uleb128 0x2c
 4769 12a6 AA010000 		.4byte	.LASF73
 4770 12aa 01       		.byte	0x1
 4771 12ab A902     		.2byte	0x2a9
 4772 12ad 93000000 		.4byte	0x93
 4773 12b1 A30E0000 		.4byte	.LLST102
 4774 12b5 2C       		.uleb128 0x2c
 4775 12b6 7B040000 		.4byte	.LASF78
 4776 12ba 01       		.byte	0x1
 4777 12bb AA02     		.2byte	0x2aa
 4778 12bd 93000000 		.4byte	0x93
 4779 12c1 DC0E0000 		.4byte	.LLST103
 4780 12c5 2C       		.uleb128 0x2c
 4781 12c6 10000000 		.4byte	.LASF79
 4782 12ca 01       		.byte	0x1
 4783 12cb AB02     		.2byte	0x2ab
 4784 12cd 53010000 		.4byte	0x153
 4785 12d1 280F0000 		.4byte	.LLST104
 4786 12d5 2D       		.uleb128 0x2d
 4787 12d6 AD010000 		.4byte	0x1ad
 4788 12da 02000000 		.4byte	.LBB79
 4789 12de 08000000 		.4byte	.LBE79
 4790 12e2 01       		.byte	0x1
 4791 12e3 AD02     		.2byte	0x2ad
 4792 12e5 F3120000 		.4byte	0x12f3
 4793 12e9 13       		.uleb128 0x13
 4794 12ea BF010000 		.4byte	0x1bf
 4795 12ee AF0F0000 		.4byte	.LLST105
 4796 12f2 00       		.byte	0
 4797 12f3 2D       		.uleb128 0x2d
 4798 12f4 E5010000 		.4byte	0x1e5
 4799 12f8 10000000 		.4byte	.LBB81
 4800 12fc 12000000 		.4byte	.LBE81
 4801 1300 01       		.byte	0x1
 4802 1301 B002     		.2byte	0x2b0
 4803 1303 0D130000 		.4byte	0x130d
 4804 1307 2E       		.uleb128 0x2e
 4805 1308 F7010000 		.4byte	0x1f7
 4806 130c 00       		.byte	0
 4807 130d 19       		.uleb128 0x19
 4808 130e 2A000000 		.4byte	.LVL225
 4809 1312 9F060000 		.4byte	0x69f
 4810 1316 27130000 		.4byte	0x1327
 4811 131a 1A       		.uleb128 0x1a
 4812 131b 01       		.byte	0x1
 4813 131c 52       		.byte	0x52
 4814 131d 02       		.byte	0x2
 4815 131e 77       		.byte	0x77
 4816 131f 00       		.sleb128 0
 4817 1320 1A       		.uleb128 0x1a
 4818 1321 01       		.byte	0x1
 4819 1322 51       		.byte	0x51
 4820 1323 02       		.byte	0x2
 4821 1324 76       		.byte	0x76
 4822 1325 00       		.sleb128 0
ARM GAS  C:\Users\atsu\AppData\Local\Temp\ccDwwNoN.s 			page 100


 4823 1326 00       		.byte	0
 4824 1327 15       		.uleb128 0x15
 4825 1328 3C000000 		.4byte	.LVL230
 4826 132c 9F060000 		.4byte	0x69f
 4827 1330 00       		.byte	0
 4828 1331 25       		.uleb128 0x25
 4829 1332 01       		.byte	0x1
 4830 1333 A1030000 		.4byte	.LASF80
 4831 1337 01       		.byte	0x1
 4832 1338 6E02     		.2byte	0x26e
 4833 133a 01       		.byte	0x1
 4834 133b 00000000 		.4byte	.LFB42
 4835 133f 52000000 		.4byte	.LFE42
 4836 1343 C20F0000 		.4byte	.LLST106
 4837 1347 01       		.byte	0x1
 4838 1348 0E140000 		.4byte	0x140e
 4839 134c 29       		.uleb128 0x29
 4840 134d 7300     		.ascii	"s\000"
 4841 134f 01       		.byte	0x1
 4842 1350 6E02     		.2byte	0x26e
 4843 1352 C7000000 		.4byte	0xc7
 4844 1356 E20F0000 		.4byte	.LLST107
 4845 135a 26       		.uleb128 0x26
 4846 135b A5010000 		.4byte	.LASF35
 4847 135f 01       		.byte	0x1
 4848 1360 6E02     		.2byte	0x26e
 4849 1362 53010000 		.4byte	0x153
 4850 1366 03100000 		.4byte	.LLST108
 4851 136a 29       		.uleb128 0x29
 4852 136b 6C656E00 		.ascii	"len\000"
 4853 136f 01       		.byte	0x1
 4854 1370 6E02     		.2byte	0x26e
 4855 1372 93000000 		.4byte	0x93
 4856 1376 22100000 		.4byte	.LLST109
 4857 137a 2B       		.uleb128 0x2b
 4858 137b 70747200 		.ascii	"ptr\000"
 4859 137f 01       		.byte	0x1
 4860 1380 7002     		.2byte	0x270
 4861 1382 93000000 		.4byte	0x93
 4862 1386 43100000 		.4byte	.LLST110
 4863 138a 19       		.uleb128 0x19
 4864 138b 1C000000 		.4byte	.LVL233
 4865 138f A9040000 		.4byte	0x4a9
 4866 1393 9E130000 		.4byte	0x139e
 4867 1397 1A       		.uleb128 0x1a
 4868 1398 01       		.byte	0x1
 4869 1399 50       		.byte	0x50
 4870 139a 02       		.byte	0x2
 4871 139b 75       		.byte	0x75
 4872 139c 00       		.sleb128 0
 4873 139d 00       		.byte	0
 4874 139e 19       		.uleb128 0x19
 4875 139f 28000000 		.4byte	.LVL236
 4876 13a3 A9040000 		.4byte	0x4a9
 4877 13a7 B2130000 		.4byte	0x13b2
 4878 13ab 1A       		.uleb128 0x1a
 4879 13ac 01       		.byte	0x1
ARM GAS  C:\Users\atsu\AppData\Local\Temp\ccDwwNoN.s 			page 101


 4880 13ad 50       		.byte	0x50
 4881 13ae 02       		.byte	0x2
 4882 13af 74       		.byte	0x74
 4883 13b0 00       		.sleb128 0
 4884 13b1 00       		.byte	0
 4885 13b2 19       		.uleb128 0x19
 4886 13b3 3A000000 		.4byte	.LVL239
 4887 13b7 4C120000 		.4byte	0x124c
 4888 13bb DB130000 		.4byte	0x13db
 4889 13bf 1A       		.uleb128 0x1a
 4890 13c0 01       		.byte	0x1
 4891 13c1 53       		.byte	0x53
 4892 13c2 04       		.byte	0x4
 4893 13c3 91       		.byte	0x91
 4894 13c4 60       		.sleb128 -32
 4895 13c5 94       		.byte	0x94
 4896 13c6 02       		.byte	0x2
 4897 13c7 1A       		.uleb128 0x1a
 4898 13c8 01       		.byte	0x1
 4899 13c9 52       		.byte	0x52
 4900 13ca 03       		.byte	0x3
 4901 13cb 91       		.byte	0x91
 4902 13cc 64       		.sleb128 -28
 4903 13cd 06       		.byte	0x6
 4904 13ce 1A       		.uleb128 0x1a
 4905 13cf 01       		.byte	0x1
 4906 13d0 51       		.byte	0x51
 4907 13d1 02       		.byte	0x2
 4908 13d2 76       		.byte	0x76
 4909 13d3 00       		.sleb128 0
 4910 13d4 1A       		.uleb128 0x1a
 4911 13d5 01       		.byte	0x1
 4912 13d6 50       		.byte	0x50
 4913 13d7 02       		.byte	0x2
 4914 13d8 77       		.byte	0x77
 4915 13d9 00       		.sleb128 0
 4916 13da 00       		.byte	0
 4917 13db 19       		.uleb128 0x19
 4918 13dc 48000000 		.4byte	.LVL241
 4919 13e0 D1030000 		.4byte	0x3d1
 4920 13e4 F7130000 		.4byte	0x13f7
 4921 13e8 1A       		.uleb128 0x1a
 4922 13e9 01       		.byte	0x1
 4923 13ea 51       		.byte	0x51
 4924 13eb 04       		.byte	0x4
 4925 13ec 76       		.byte	0x76
 4926 13ed 00       		.sleb128 0
 4927 13ee 38       		.byte	0x38
 4928 13ef 25       		.byte	0x25
 4929 13f0 1A       		.uleb128 0x1a
 4930 13f1 01       		.byte	0x1
 4931 13f2 50       		.byte	0x50
 4932 13f3 02       		.byte	0x2
 4933 13f4 75       		.byte	0x75
 4934 13f5 00       		.sleb128 0
 4935 13f6 00       		.byte	0
 4936 13f7 1B       		.uleb128 0x1b
ARM GAS  C:\Users\atsu\AppData\Local\Temp\ccDwwNoN.s 			page 102


 4937 13f8 50000000 		.4byte	.LVL242
 4938 13fc D1030000 		.4byte	0x3d1
 4939 1400 1A       		.uleb128 0x1a
 4940 1401 01       		.byte	0x1
 4941 1402 51       		.byte	0x51
 4942 1403 02       		.byte	0x2
 4943 1404 76       		.byte	0x76
 4944 1405 00       		.sleb128 0
 4945 1406 1A       		.uleb128 0x1a
 4946 1407 01       		.byte	0x1
 4947 1408 50       		.byte	0x50
 4948 1409 02       		.byte	0x2
 4949 140a 74       		.byte	0x74
 4950 140b 00       		.sleb128 0
 4951 140c 00       		.byte	0
 4952 140d 00       		.byte	0
 4953 140e 2F       		.uleb128 0x2f
 4954 140f BE030000 		.4byte	.LASF81
 4955 1413 01       		.byte	0x1
 4956 1414 13       		.byte	0x13
 4957 1415 D2000000 		.4byte	0xd2
 4958 1419 05       		.byte	0x5
 4959 141a 03       		.byte	0x3
 4960 141b 00000000 		.4byte	I_STATUS
 4961 141f 06       		.uleb128 0x6
 4962 1420 93000000 		.4byte	0x93
 4963 1424 2F140000 		.4byte	0x142f
 4964 1428 07       		.uleb128 0x7
 4965 1429 68000000 		.4byte	0x68
 4966 142d 03       		.byte	0x3
 4967 142e 00       		.byte	0
 4968 142f 2F       		.uleb128 0x2f
 4969 1430 F7010000 		.4byte	.LASF82
 4970 1434 01       		.byte	0x1
 4971 1435 14       		.byte	0x14
 4972 1436 1F140000 		.4byte	0x141f
 4973 143a 05       		.byte	0x5
 4974 143b 03       		.byte	0x3
 4975 143c 1C000000 		.4byte	SMASK
 4976 1440 2F       		.uleb128 0x2f
 4977 1441 73030000 		.4byte	.LASF83
 4978 1445 01       		.byte	0x1
 4979 1446 15       		.byte	0x15
 4980 1447 1F140000 		.4byte	0x141f
 4981 144b 05       		.byte	0x5
 4982 144c 03       		.byte	0x3
 4983 144d 14000000 		.4byte	RMASK
 4984 1451 2F       		.uleb128 0x2f
 4985 1452 23010000 		.4byte	.LASF84
 4986 1456 01       		.byte	0x1
 4987 1457 16       		.byte	0x16
 4988 1458 1F140000 		.4byte	0x141f
 4989 145c 05       		.byte	0x5
 4990 145d 03       		.byte	0x3
 4991 145e 0C000000 		.4byte	SSIZE
 4992 1462 2F       		.uleb128 0x2f
 4993 1463 87020000 		.4byte	.LASF85
ARM GAS  C:\Users\atsu\AppData\Local\Temp\ccDwwNoN.s 			page 103


 4994 1467 01       		.byte	0x1
 4995 1468 17       		.byte	0x17
 4996 1469 1F140000 		.4byte	0x141f
 4997 146d 05       		.byte	0x5
 4998 146e 03       		.byte	0x3
 4999 146f 04000000 		.4byte	RSIZE
 5000 1473 2F       		.uleb128 0x2f
 5001 1474 8B040000 		.4byte	.LASF86
 5002 1478 01       		.byte	0x1
 5003 1479 18       		.byte	0x18
 5004 147a 1F140000 		.4byte	0x141f
 5005 147e 05       		.byte	0x5
 5006 147f 03       		.byte	0x3
 5007 1480 2C000000 		.4byte	SBUFBASEADDRESS
 5008 1484 2F       		.uleb128 0x2f
 5009 1485 7A000000 		.4byte	.LASF87
 5010 1489 01       		.byte	0x1
 5011 148a 19       		.byte	0x19
 5012 148b 1F140000 		.4byte	0x141f
 5013 148f 05       		.byte	0x5
 5014 1490 03       		.byte	0x3
 5015 1491 24000000 		.4byte	RBUFBASEADDRESS
 5016 1495 2F       		.uleb128 0x2f
 5017 1496 96010000 		.4byte	.LASF88
 5018 149a 01       		.byte	0x1
 5019 149b 1A       		.byte	0x1a
 5020 149c D2000000 		.4byte	0xd2
 5021 14a0 05       		.byte	0x5
 5022 14a1 03       		.byte	0x3
 5023 14a2 34000000 		.4byte	SUBNET
 5024 14a6 2F       		.uleb128 0x2f
 5025 14a7 00030000 		.4byte	.LASF89
 5026 14ab 01       		.byte	0x1
 5027 14ac 1B       		.byte	0x1b
 5028 14ad D2000000 		.4byte	0xd2
 5029 14b1 05       		.byte	0x5
 5030 14b2 03       		.byte	0x3
 5031 14b3 38000000 		.4byte	IPVAL
 5032 14b7 30       		.uleb128 0x30
 5033 14b8 5E030000 		.4byte	.LASF90
 5034 14bc 01       		.byte	0x1
 5035 14bd 1D       		.byte	0x1d
 5036 14be D2000000 		.4byte	0xd2
 5037 14c2 01       		.byte	0x1
 5038 14c3 05       		.byte	0x5
 5039 14c4 03       		.byte	0x3
 5040 14c5 00000000 		.4byte	windowfull_retry_cnt
 5041 14c9 30       		.uleb128 0x30
 5042 14ca B8000000 		.4byte	.LASF91
 5043 14ce 01       		.byte	0x1
 5044 14cf 29       		.byte	0x29
 5045 14d0 93000000 		.4byte	0x93
 5046 14d4 01       		.byte	0x1
 5047 14d5 05       		.byte	0x5
 5048 14d6 03       		.byte	0x3
 5049 14d7 00000000 		.4byte	pre_sent_ptr
 5050 14db 30       		.uleb128 0x30
ARM GAS  C:\Users\atsu\AppData\Local\Temp\ccDwwNoN.s 			page 104


 5051 14dc 0F030000 		.4byte	.LASF92
 5052 14e0 01       		.byte	0x1
 5053 14e1 29       		.byte	0x29
 5054 14e2 93000000 		.4byte	0x93
 5055 14e6 01       		.byte	0x1
 5056 14e7 05       		.byte	0x5
 5057 14e8 03       		.byte	0x3
 5058 14e9 00000000 		.4byte	sent_ptr
 5059 14ed 31       		.uleb128 0x31
 5060 14ee 01       		.byte	0x1
 5061 14ef 2D000000 		.4byte	.LASF93
 5062 14f3 04       		.byte	0x4
 5063 14f4 14       		.byte	0x14
 5064 14f5 01       		.byte	0x1
 5065 14f6 01       		.byte	0x1
 5066 14f7 31       		.uleb128 0x31
 5067 14f8 01       		.byte	0x1
 5068 14f9 4B030000 		.4byte	.LASF94
 5069 14fd 04       		.byte	0x4
 5070 14fe 15       		.byte	0x15
 5071 14ff 01       		.byte	0x1
 5072 1500 01       		.byte	0x1
 5073 1501 32       		.uleb128 0x32
 5074 1502 01       		.byte	0x1
 5075 1503 5D020000 		.4byte	.LASF98
 5076 1507 04       		.byte	0x4
 5077 1508 12       		.byte	0x12
 5078 1509 01       		.byte	0x1
 5079 150a 76000000 		.4byte	0x76
 5080 150e 01       		.byte	0x1
 5081 150f 33       		.uleb128 0x33
 5082 1510 76000000 		.4byte	0x76
 5083 1514 00       		.byte	0
 5084 1515 00       		.byte	0
 5085              		.section	.debug_abbrev,"",%progbits
 5086              	.Ldebug_abbrev0:
 5087 0000 01       		.uleb128 0x1
 5088 0001 11       		.uleb128 0x11
 5089 0002 01       		.byte	0x1
 5090 0003 25       		.uleb128 0x25
 5091 0004 0E       		.uleb128 0xe
 5092 0005 13       		.uleb128 0x13
 5093 0006 0B       		.uleb128 0xb
 5094 0007 03       		.uleb128 0x3
 5095 0008 0E       		.uleb128 0xe
 5096 0009 1B       		.uleb128 0x1b
 5097 000a 0E       		.uleb128 0xe
 5098 000b 55       		.uleb128 0x55
 5099 000c 06       		.uleb128 0x6
 5100 000d 11       		.uleb128 0x11
 5101 000e 01       		.uleb128 0x1
 5102 000f 52       		.uleb128 0x52
 5103 0010 01       		.uleb128 0x1
 5104 0011 10       		.uleb128 0x10
 5105 0012 06       		.uleb128 0x6
 5106 0013 00       		.byte	0
 5107 0014 00       		.byte	0
ARM GAS  C:\Users\atsu\AppData\Local\Temp\ccDwwNoN.s 			page 105


 5108 0015 02       		.uleb128 0x2
 5109 0016 24       		.uleb128 0x24
 5110 0017 00       		.byte	0
 5111 0018 0B       		.uleb128 0xb
 5112 0019 0B       		.uleb128 0xb
 5113 001a 3E       		.uleb128 0x3e
 5114 001b 0B       		.uleb128 0xb
 5115 001c 03       		.uleb128 0x3
 5116 001d 0E       		.uleb128 0xe
 5117 001e 00       		.byte	0
 5118 001f 00       		.byte	0
 5119 0020 03       		.uleb128 0x3
 5120 0021 24       		.uleb128 0x24
 5121 0022 00       		.byte	0
 5122 0023 0B       		.uleb128 0xb
 5123 0024 0B       		.uleb128 0xb
 5124 0025 3E       		.uleb128 0x3e
 5125 0026 0B       		.uleb128 0xb
 5126 0027 03       		.uleb128 0x3
 5127 0028 08       		.uleb128 0x8
 5128 0029 00       		.byte	0
 5129 002a 00       		.byte	0
 5130 002b 04       		.uleb128 0x4
 5131 002c 16       		.uleb128 0x16
 5132 002d 00       		.byte	0
 5133 002e 03       		.uleb128 0x3
 5134 002f 0E       		.uleb128 0xe
 5135 0030 3A       		.uleb128 0x3a
 5136 0031 0B       		.uleb128 0xb
 5137 0032 3B       		.uleb128 0x3b
 5138 0033 0B       		.uleb128 0xb
 5139 0034 49       		.uleb128 0x49
 5140 0035 13       		.uleb128 0x13
 5141 0036 00       		.byte	0
 5142 0037 00       		.byte	0
 5143 0038 05       		.uleb128 0x5
 5144 0039 35       		.uleb128 0x35
 5145 003a 00       		.byte	0
 5146 003b 49       		.uleb128 0x49
 5147 003c 13       		.uleb128 0x13
 5148 003d 00       		.byte	0
 5149 003e 00       		.byte	0
 5150 003f 06       		.uleb128 0x6
 5151 0040 01       		.uleb128 0x1
 5152 0041 01       		.byte	0x1
 5153 0042 49       		.uleb128 0x49
 5154 0043 13       		.uleb128 0x13
 5155 0044 01       		.uleb128 0x1
 5156 0045 13       		.uleb128 0x13
 5157 0046 00       		.byte	0
 5158 0047 00       		.byte	0
 5159 0048 07       		.uleb128 0x7
 5160 0049 21       		.uleb128 0x21
 5161 004a 00       		.byte	0
 5162 004b 49       		.uleb128 0x49
 5163 004c 13       		.uleb128 0x13
 5164 004d 2F       		.uleb128 0x2f
ARM GAS  C:\Users\atsu\AppData\Local\Temp\ccDwwNoN.s 			page 106


 5165 004e 0B       		.uleb128 0xb
 5166 004f 00       		.byte	0
 5167 0050 00       		.byte	0
 5168 0051 08       		.uleb128 0x8
 5169 0052 2E       		.uleb128 0x2e
 5170 0053 00       		.byte	0
 5171 0054 3F       		.uleb128 0x3f
 5172 0055 0C       		.uleb128 0xc
 5173 0056 03       		.uleb128 0x3
 5174 0057 0E       		.uleb128 0xe
 5175 0058 3A       		.uleb128 0x3a
 5176 0059 0B       		.uleb128 0xb
 5177 005a 3B       		.uleb128 0x3b
 5178 005b 0B       		.uleb128 0xb
 5179 005c 27       		.uleb128 0x27
 5180 005d 0C       		.uleb128 0xc
 5181 005e 20       		.uleb128 0x20
 5182 005f 0B       		.uleb128 0xb
 5183 0060 00       		.byte	0
 5184 0061 00       		.byte	0
 5185 0062 09       		.uleb128 0x9
 5186 0063 2E       		.uleb128 0x2e
 5187 0064 01       		.byte	0x1
 5188 0065 3F       		.uleb128 0x3f
 5189 0066 0C       		.uleb128 0xc
 5190 0067 03       		.uleb128 0x3
 5191 0068 0E       		.uleb128 0xe
 5192 0069 3A       		.uleb128 0x3a
 5193 006a 0B       		.uleb128 0xb
 5194 006b 3B       		.uleb128 0x3b
 5195 006c 0B       		.uleb128 0xb
 5196 006d 27       		.uleb128 0x27
 5197 006e 0C       		.uleb128 0xc
 5198 006f 49       		.uleb128 0x49
 5199 0070 13       		.uleb128 0x13
 5200 0071 20       		.uleb128 0x20
 5201 0072 0B       		.uleb128 0xb
 5202 0073 01       		.uleb128 0x1
 5203 0074 13       		.uleb128 0x13
 5204 0075 00       		.byte	0
 5205 0076 00       		.byte	0
 5206 0077 0A       		.uleb128 0xa
 5207 0078 05       		.uleb128 0x5
 5208 0079 00       		.byte	0
 5209 007a 03       		.uleb128 0x3
 5210 007b 08       		.uleb128 0x8
 5211 007c 3A       		.uleb128 0x3a
 5212 007d 0B       		.uleb128 0xb
 5213 007e 3B       		.uleb128 0x3b
 5214 007f 0B       		.uleb128 0xb
 5215 0080 49       		.uleb128 0x49
 5216 0081 13       		.uleb128 0x13
 5217 0082 00       		.byte	0
 5218 0083 00       		.byte	0
 5219 0084 0B       		.uleb128 0xb
 5220 0085 05       		.uleb128 0x5
 5221 0086 00       		.byte	0
ARM GAS  C:\Users\atsu\AppData\Local\Temp\ccDwwNoN.s 			page 107


 5222 0087 03       		.uleb128 0x3
 5223 0088 0E       		.uleb128 0xe
 5224 0089 3A       		.uleb128 0x3a
 5225 008a 0B       		.uleb128 0xb
 5226 008b 3B       		.uleb128 0x3b
 5227 008c 0B       		.uleb128 0xb
 5228 008d 49       		.uleb128 0x49
 5229 008e 13       		.uleb128 0x13
 5230 008f 00       		.byte	0
 5231 0090 00       		.byte	0
 5232 0091 0C       		.uleb128 0xc
 5233 0092 34       		.uleb128 0x34
 5234 0093 00       		.byte	0
 5235 0094 03       		.uleb128 0x3
 5236 0095 08       		.uleb128 0x8
 5237 0096 3A       		.uleb128 0x3a
 5238 0097 0B       		.uleb128 0xb
 5239 0098 3B       		.uleb128 0x3b
 5240 0099 0B       		.uleb128 0xb
 5241 009a 49       		.uleb128 0x49
 5242 009b 13       		.uleb128 0x13
 5243 009c 00       		.byte	0
 5244 009d 00       		.byte	0
 5245 009e 0D       		.uleb128 0xd
 5246 009f 0F       		.uleb128 0xf
 5247 00a0 00       		.byte	0
 5248 00a1 0B       		.uleb128 0xb
 5249 00a2 0B       		.uleb128 0xb
 5250 00a3 49       		.uleb128 0x49
 5251 00a4 13       		.uleb128 0x13
 5252 00a5 00       		.byte	0
 5253 00a6 00       		.byte	0
 5254 00a7 0E       		.uleb128 0xe
 5255 00a8 2E       		.uleb128 0x2e
 5256 00a9 01       		.byte	0x1
 5257 00aa 3F       		.uleb128 0x3f
 5258 00ab 0C       		.uleb128 0xc
 5259 00ac 03       		.uleb128 0x3
 5260 00ad 0E       		.uleb128 0xe
 5261 00ae 3A       		.uleb128 0x3a
 5262 00af 0B       		.uleb128 0xb
 5263 00b0 3B       		.uleb128 0x3b
 5264 00b1 0B       		.uleb128 0xb
 5265 00b2 27       		.uleb128 0x27
 5266 00b3 0C       		.uleb128 0xc
 5267 00b4 49       		.uleb128 0x49
 5268 00b5 13       		.uleb128 0x13
 5269 00b6 11       		.uleb128 0x11
 5270 00b7 01       		.uleb128 0x1
 5271 00b8 12       		.uleb128 0x12
 5272 00b9 01       		.uleb128 0x1
 5273 00ba 40       		.uleb128 0x40
 5274 00bb 0A       		.uleb128 0xa
 5275 00bc 9742     		.uleb128 0x2117
 5276 00be 0C       		.uleb128 0xc
 5277 00bf 01       		.uleb128 0x1
 5278 00c0 13       		.uleb128 0x13
ARM GAS  C:\Users\atsu\AppData\Local\Temp\ccDwwNoN.s 			page 108


 5279 00c1 00       		.byte	0
 5280 00c2 00       		.byte	0
 5281 00c3 0F       		.uleb128 0xf
 5282 00c4 05       		.uleb128 0x5
 5283 00c5 00       		.byte	0
 5284 00c6 03       		.uleb128 0x3
 5285 00c7 08       		.uleb128 0x8
 5286 00c8 3A       		.uleb128 0x3a
 5287 00c9 0B       		.uleb128 0xb
 5288 00ca 3B       		.uleb128 0x3b
 5289 00cb 0B       		.uleb128 0xb
 5290 00cc 49       		.uleb128 0x49
 5291 00cd 13       		.uleb128 0x13
 5292 00ce 02       		.uleb128 0x2
 5293 00cf 06       		.uleb128 0x6
 5294 00d0 00       		.byte	0
 5295 00d1 00       		.byte	0
 5296 00d2 10       		.uleb128 0x10
 5297 00d3 2E       		.uleb128 0x2e
 5298 00d4 01       		.byte	0x1
 5299 00d5 3F       		.uleb128 0x3f
 5300 00d6 0C       		.uleb128 0xc
 5301 00d7 03       		.uleb128 0x3
 5302 00d8 0E       		.uleb128 0xe
 5303 00d9 3A       		.uleb128 0x3a
 5304 00da 0B       		.uleb128 0xb
 5305 00db 3B       		.uleb128 0x3b
 5306 00dc 0B       		.uleb128 0xb
 5307 00dd 27       		.uleb128 0x27
 5308 00de 0C       		.uleb128 0xc
 5309 00df 11       		.uleb128 0x11
 5310 00e0 01       		.uleb128 0x1
 5311 00e1 12       		.uleb128 0x12
 5312 00e2 01       		.uleb128 0x1
 5313 00e3 40       		.uleb128 0x40
 5314 00e4 0A       		.uleb128 0xa
 5315 00e5 9742     		.uleb128 0x2117
 5316 00e7 0C       		.uleb128 0xc
 5317 00e8 01       		.uleb128 0x1
 5318 00e9 13       		.uleb128 0x13
 5319 00ea 00       		.byte	0
 5320 00eb 00       		.byte	0
 5321 00ec 11       		.uleb128 0x11
 5322 00ed 05       		.uleb128 0x5
 5323 00ee 00       		.byte	0
 5324 00ef 03       		.uleb128 0x3
 5325 00f0 08       		.uleb128 0x8
 5326 00f1 3A       		.uleb128 0x3a
 5327 00f2 0B       		.uleb128 0xb
 5328 00f3 3B       		.uleb128 0x3b
 5329 00f4 0B       		.uleb128 0xb
 5330 00f5 49       		.uleb128 0x49
 5331 00f6 13       		.uleb128 0x13
 5332 00f7 02       		.uleb128 0x2
 5333 00f8 0A       		.uleb128 0xa
 5334 00f9 00       		.byte	0
 5335 00fa 00       		.byte	0
ARM GAS  C:\Users\atsu\AppData\Local\Temp\ccDwwNoN.s 			page 109


 5336 00fb 12       		.uleb128 0x12
 5337 00fc 2E       		.uleb128 0x2e
 5338 00fd 01       		.byte	0x1
 5339 00fe 31       		.uleb128 0x31
 5340 00ff 13       		.uleb128 0x13
 5341 0100 11       		.uleb128 0x11
 5342 0101 01       		.uleb128 0x1
 5343 0102 12       		.uleb128 0x12
 5344 0103 01       		.uleb128 0x1
 5345 0104 40       		.uleb128 0x40
 5346 0105 0A       		.uleb128 0xa
 5347 0106 9742     		.uleb128 0x2117
 5348 0108 0C       		.uleb128 0xc
 5349 0109 01       		.uleb128 0x1
 5350 010a 13       		.uleb128 0x13
 5351 010b 00       		.byte	0
 5352 010c 00       		.byte	0
 5353 010d 13       		.uleb128 0x13
 5354 010e 05       		.uleb128 0x5
 5355 010f 00       		.byte	0
 5356 0110 31       		.uleb128 0x31
 5357 0111 13       		.uleb128 0x13
 5358 0112 02       		.uleb128 0x2
 5359 0113 06       		.uleb128 0x6
 5360 0114 00       		.byte	0
 5361 0115 00       		.byte	0
 5362 0116 14       		.uleb128 0x14
 5363 0117 2E       		.uleb128 0x2e
 5364 0118 01       		.byte	0x1
 5365 0119 31       		.uleb128 0x31
 5366 011a 13       		.uleb128 0x13
 5367 011b 11       		.uleb128 0x11
 5368 011c 01       		.uleb128 0x1
 5369 011d 12       		.uleb128 0x12
 5370 011e 01       		.uleb128 0x1
 5371 011f 40       		.uleb128 0x40
 5372 0120 06       		.uleb128 0x6
 5373 0121 9742     		.uleb128 0x2117
 5374 0123 0C       		.uleb128 0xc
 5375 0124 01       		.uleb128 0x1
 5376 0125 13       		.uleb128 0x13
 5377 0126 00       		.byte	0
 5378 0127 00       		.byte	0
 5379 0128 15       		.uleb128 0x15
 5380 0129 898201   		.uleb128 0x4109
 5381 012c 00       		.byte	0
 5382 012d 11       		.uleb128 0x11
 5383 012e 01       		.uleb128 0x1
 5384 012f 31       		.uleb128 0x31
 5385 0130 13       		.uleb128 0x13
 5386 0131 00       		.byte	0
 5387 0132 00       		.byte	0
 5388 0133 16       		.uleb128 0x16
 5389 0134 2E       		.uleb128 0x2e
 5390 0135 01       		.byte	0x1
 5391 0136 3F       		.uleb128 0x3f
 5392 0137 0C       		.uleb128 0xc
ARM GAS  C:\Users\atsu\AppData\Local\Temp\ccDwwNoN.s 			page 110


 5393 0138 03       		.uleb128 0x3
 5394 0139 0E       		.uleb128 0xe
 5395 013a 3A       		.uleb128 0x3a
 5396 013b 0B       		.uleb128 0xb
 5397 013c 3B       		.uleb128 0x3b
 5398 013d 0B       		.uleb128 0xb
 5399 013e 27       		.uleb128 0x27
 5400 013f 0C       		.uleb128 0xc
 5401 0140 49       		.uleb128 0x49
 5402 0141 13       		.uleb128 0x13
 5403 0142 11       		.uleb128 0x11
 5404 0143 01       		.uleb128 0x1
 5405 0144 12       		.uleb128 0x12
 5406 0145 01       		.uleb128 0x1
 5407 0146 40       		.uleb128 0x40
 5408 0147 06       		.uleb128 0x6
 5409 0148 9742     		.uleb128 0x2117
 5410 014a 0C       		.uleb128 0xc
 5411 014b 01       		.uleb128 0x1
 5412 014c 13       		.uleb128 0x13
 5413 014d 00       		.byte	0
 5414 014e 00       		.byte	0
 5415 014f 17       		.uleb128 0x17
 5416 0150 05       		.uleb128 0x5
 5417 0151 00       		.byte	0
 5418 0152 03       		.uleb128 0x3
 5419 0153 0E       		.uleb128 0xe
 5420 0154 3A       		.uleb128 0x3a
 5421 0155 0B       		.uleb128 0xb
 5422 0156 3B       		.uleb128 0x3b
 5423 0157 0B       		.uleb128 0xb
 5424 0158 49       		.uleb128 0x49
 5425 0159 13       		.uleb128 0x13
 5426 015a 02       		.uleb128 0x2
 5427 015b 06       		.uleb128 0x6
 5428 015c 00       		.byte	0
 5429 015d 00       		.byte	0
 5430 015e 18       		.uleb128 0x18
 5431 015f 1D       		.uleb128 0x1d
 5432 0160 01       		.byte	0x1
 5433 0161 31       		.uleb128 0x31
 5434 0162 13       		.uleb128 0x13
 5435 0163 11       		.uleb128 0x11
 5436 0164 01       		.uleb128 0x1
 5437 0165 12       		.uleb128 0x12
 5438 0166 01       		.uleb128 0x1
 5439 0167 58       		.uleb128 0x58
 5440 0168 0B       		.uleb128 0xb
 5441 0169 59       		.uleb128 0x59
 5442 016a 0B       		.uleb128 0xb
 5443 016b 01       		.uleb128 0x1
 5444 016c 13       		.uleb128 0x13
 5445 016d 00       		.byte	0
 5446 016e 00       		.byte	0
 5447 016f 19       		.uleb128 0x19
 5448 0170 898201   		.uleb128 0x4109
 5449 0173 01       		.byte	0x1
ARM GAS  C:\Users\atsu\AppData\Local\Temp\ccDwwNoN.s 			page 111


 5450 0174 11       		.uleb128 0x11
 5451 0175 01       		.uleb128 0x1
 5452 0176 31       		.uleb128 0x31
 5453 0177 13       		.uleb128 0x13
 5454 0178 01       		.uleb128 0x1
 5455 0179 13       		.uleb128 0x13
 5456 017a 00       		.byte	0
 5457 017b 00       		.byte	0
 5458 017c 1A       		.uleb128 0x1a
 5459 017d 8A8201   		.uleb128 0x410a
 5460 0180 00       		.byte	0
 5461 0181 02       		.uleb128 0x2
 5462 0182 0A       		.uleb128 0xa
 5463 0183 9142     		.uleb128 0x2111
 5464 0185 0A       		.uleb128 0xa
 5465 0186 00       		.byte	0
 5466 0187 00       		.byte	0
 5467 0188 1B       		.uleb128 0x1b
 5468 0189 898201   		.uleb128 0x4109
 5469 018c 01       		.byte	0x1
 5470 018d 11       		.uleb128 0x11
 5471 018e 01       		.uleb128 0x1
 5472 018f 31       		.uleb128 0x31
 5473 0190 13       		.uleb128 0x13
 5474 0191 00       		.byte	0
 5475 0192 00       		.byte	0
 5476 0193 1C       		.uleb128 0x1c
 5477 0194 34       		.uleb128 0x34
 5478 0195 00       		.byte	0
 5479 0196 03       		.uleb128 0x3
 5480 0197 0E       		.uleb128 0xe
 5481 0198 3A       		.uleb128 0x3a
 5482 0199 0B       		.uleb128 0xb
 5483 019a 3B       		.uleb128 0x3b
 5484 019b 0B       		.uleb128 0xb
 5485 019c 49       		.uleb128 0x49
 5486 019d 13       		.uleb128 0x13
 5487 019e 00       		.byte	0
 5488 019f 00       		.byte	0
 5489 01a0 1D       		.uleb128 0x1d
 5490 01a1 05       		.uleb128 0x5
 5491 01a2 00       		.byte	0
 5492 01a3 31       		.uleb128 0x31
 5493 01a4 13       		.uleb128 0x13
 5494 01a5 1C       		.uleb128 0x1c
 5495 01a6 0B       		.uleb128 0xb
 5496 01a7 00       		.byte	0
 5497 01a8 00       		.byte	0
 5498 01a9 1E       		.uleb128 0x1e
 5499 01aa 34       		.uleb128 0x34
 5500 01ab 00       		.byte	0
 5501 01ac 31       		.uleb128 0x31
 5502 01ad 13       		.uleb128 0x13
 5503 01ae 1C       		.uleb128 0x1c
 5504 01af 0B       		.uleb128 0xb
 5505 01b0 00       		.byte	0
 5506 01b1 00       		.byte	0
ARM GAS  C:\Users\atsu\AppData\Local\Temp\ccDwwNoN.s 			page 112


 5507 01b2 1F       		.uleb128 0x1f
 5508 01b3 1D       		.uleb128 0x1d
 5509 01b4 01       		.byte	0x1
 5510 01b5 31       		.uleb128 0x31
 5511 01b6 13       		.uleb128 0x13
 5512 01b7 11       		.uleb128 0x11
 5513 01b8 01       		.uleb128 0x1
 5514 01b9 12       		.uleb128 0x12
 5515 01ba 01       		.uleb128 0x1
 5516 01bb 58       		.uleb128 0x58
 5517 01bc 0B       		.uleb128 0xb
 5518 01bd 59       		.uleb128 0x59
 5519 01be 0B       		.uleb128 0xb
 5520 01bf 00       		.byte	0
 5521 01c0 00       		.byte	0
 5522 01c1 20       		.uleb128 0x20
 5523 01c2 0B       		.uleb128 0xb
 5524 01c3 01       		.byte	0x1
 5525 01c4 55       		.uleb128 0x55
 5526 01c5 06       		.uleb128 0x6
 5527 01c6 00       		.byte	0
 5528 01c7 00       		.byte	0
 5529 01c8 21       		.uleb128 0x21
 5530 01c9 34       		.uleb128 0x34
 5531 01ca 00       		.byte	0
 5532 01cb 31       		.uleb128 0x31
 5533 01cc 13       		.uleb128 0x13
 5534 01cd 02       		.uleb128 0x2
 5535 01ce 06       		.uleb128 0x6
 5536 01cf 00       		.byte	0
 5537 01d0 00       		.byte	0
 5538 01d1 22       		.uleb128 0x22
 5539 01d2 34       		.uleb128 0x34
 5540 01d3 00       		.byte	0
 5541 01d4 03       		.uleb128 0x3
 5542 01d5 08       		.uleb128 0x8
 5543 01d6 3A       		.uleb128 0x3a
 5544 01d7 0B       		.uleb128 0xb
 5545 01d8 3B       		.uleb128 0x3b
 5546 01d9 0B       		.uleb128 0xb
 5547 01da 49       		.uleb128 0x49
 5548 01db 13       		.uleb128 0x13
 5549 01dc 02       		.uleb128 0x2
 5550 01dd 06       		.uleb128 0x6
 5551 01de 00       		.byte	0
 5552 01df 00       		.byte	0
 5553 01e0 23       		.uleb128 0x23
 5554 01e1 2E       		.uleb128 0x2e
 5555 01e2 01       		.byte	0x1
 5556 01e3 3F       		.uleb128 0x3f
 5557 01e4 0C       		.uleb128 0xc
 5558 01e5 03       		.uleb128 0x3
 5559 01e6 0E       		.uleb128 0xe
 5560 01e7 3A       		.uleb128 0x3a
 5561 01e8 0B       		.uleb128 0xb
 5562 01e9 3B       		.uleb128 0x3b
 5563 01ea 0B       		.uleb128 0xb
ARM GAS  C:\Users\atsu\AppData\Local\Temp\ccDwwNoN.s 			page 113


 5564 01eb 27       		.uleb128 0x27
 5565 01ec 0C       		.uleb128 0xc
 5566 01ed 11       		.uleb128 0x11
 5567 01ee 01       		.uleb128 0x1
 5568 01ef 12       		.uleb128 0x12
 5569 01f0 01       		.uleb128 0x1
 5570 01f1 40       		.uleb128 0x40
 5571 01f2 06       		.uleb128 0x6
 5572 01f3 9742     		.uleb128 0x2117
 5573 01f5 0C       		.uleb128 0xc
 5574 01f6 01       		.uleb128 0x1
 5575 01f7 13       		.uleb128 0x13
 5576 01f8 00       		.byte	0
 5577 01f9 00       		.byte	0
 5578 01fa 24       		.uleb128 0x24
 5579 01fb 34       		.uleb128 0x34
 5580 01fc 00       		.byte	0
 5581 01fd 03       		.uleb128 0x3
 5582 01fe 0E       		.uleb128 0xe
 5583 01ff 3A       		.uleb128 0x3a
 5584 0200 0B       		.uleb128 0xb
 5585 0201 3B       		.uleb128 0x3b
 5586 0202 0B       		.uleb128 0xb
 5587 0203 49       		.uleb128 0x49
 5588 0204 13       		.uleb128 0x13
 5589 0205 02       		.uleb128 0x2
 5590 0206 06       		.uleb128 0x6
 5591 0207 00       		.byte	0
 5592 0208 00       		.byte	0
 5593 0209 25       		.uleb128 0x25
 5594 020a 2E       		.uleb128 0x2e
 5595 020b 01       		.byte	0x1
 5596 020c 3F       		.uleb128 0x3f
 5597 020d 0C       		.uleb128 0xc
 5598 020e 03       		.uleb128 0x3
 5599 020f 0E       		.uleb128 0xe
 5600 0210 3A       		.uleb128 0x3a
 5601 0211 0B       		.uleb128 0xb
 5602 0212 3B       		.uleb128 0x3b
 5603 0213 05       		.uleb128 0x5
 5604 0214 27       		.uleb128 0x27
 5605 0215 0C       		.uleb128 0xc
 5606 0216 11       		.uleb128 0x11
 5607 0217 01       		.uleb128 0x1
 5608 0218 12       		.uleb128 0x12
 5609 0219 01       		.uleb128 0x1
 5610 021a 40       		.uleb128 0x40
 5611 021b 06       		.uleb128 0x6
 5612 021c 9742     		.uleb128 0x2117
 5613 021e 0C       		.uleb128 0xc
 5614 021f 01       		.uleb128 0x1
 5615 0220 13       		.uleb128 0x13
 5616 0221 00       		.byte	0
 5617 0222 00       		.byte	0
 5618 0223 26       		.uleb128 0x26
 5619 0224 05       		.uleb128 0x5
 5620 0225 00       		.byte	0
ARM GAS  C:\Users\atsu\AppData\Local\Temp\ccDwwNoN.s 			page 114


 5621 0226 03       		.uleb128 0x3
 5622 0227 0E       		.uleb128 0xe
 5623 0228 3A       		.uleb128 0x3a
 5624 0229 0B       		.uleb128 0xb
 5625 022a 3B       		.uleb128 0x3b
 5626 022b 05       		.uleb128 0x5
 5627 022c 49       		.uleb128 0x49
 5628 022d 13       		.uleb128 0x13
 5629 022e 02       		.uleb128 0x2
 5630 022f 06       		.uleb128 0x6
 5631 0230 00       		.byte	0
 5632 0231 00       		.byte	0
 5633 0232 27       		.uleb128 0x27
 5634 0233 2E       		.uleb128 0x2e
 5635 0234 01       		.byte	0x1
 5636 0235 3F       		.uleb128 0x3f
 5637 0236 0C       		.uleb128 0xc
 5638 0237 03       		.uleb128 0x3
 5639 0238 0E       		.uleb128 0xe
 5640 0239 3A       		.uleb128 0x3a
 5641 023a 0B       		.uleb128 0xb
 5642 023b 3B       		.uleb128 0x3b
 5643 023c 05       		.uleb128 0x5
 5644 023d 27       		.uleb128 0x27
 5645 023e 0C       		.uleb128 0xc
 5646 023f 11       		.uleb128 0x11
 5647 0240 01       		.uleb128 0x1
 5648 0241 12       		.uleb128 0x12
 5649 0242 01       		.uleb128 0x1
 5650 0243 40       		.uleb128 0x40
 5651 0244 0A       		.uleb128 0xa
 5652 0245 9742     		.uleb128 0x2117
 5653 0247 0C       		.uleb128 0xc
 5654 0248 01       		.uleb128 0x1
 5655 0249 13       		.uleb128 0x13
 5656 024a 00       		.byte	0
 5657 024b 00       		.byte	0
 5658 024c 28       		.uleb128 0x28
 5659 024d 05       		.uleb128 0x5
 5660 024e 00       		.byte	0
 5661 024f 03       		.uleb128 0x3
 5662 0250 0E       		.uleb128 0xe
 5663 0251 3A       		.uleb128 0x3a
 5664 0252 0B       		.uleb128 0xb
 5665 0253 3B       		.uleb128 0x3b
 5666 0254 05       		.uleb128 0x5
 5667 0255 49       		.uleb128 0x49
 5668 0256 13       		.uleb128 0x13
 5669 0257 02       		.uleb128 0x2
 5670 0258 0A       		.uleb128 0xa
 5671 0259 00       		.byte	0
 5672 025a 00       		.byte	0
 5673 025b 29       		.uleb128 0x29
 5674 025c 05       		.uleb128 0x5
 5675 025d 00       		.byte	0
 5676 025e 03       		.uleb128 0x3
 5677 025f 08       		.uleb128 0x8
ARM GAS  C:\Users\atsu\AppData\Local\Temp\ccDwwNoN.s 			page 115


 5678 0260 3A       		.uleb128 0x3a
 5679 0261 0B       		.uleb128 0xb
 5680 0262 3B       		.uleb128 0x3b
 5681 0263 05       		.uleb128 0x5
 5682 0264 49       		.uleb128 0x49
 5683 0265 13       		.uleb128 0x13
 5684 0266 02       		.uleb128 0x2
 5685 0267 06       		.uleb128 0x6
 5686 0268 00       		.byte	0
 5687 0269 00       		.byte	0
 5688 026a 2A       		.uleb128 0x2a
 5689 026b 2E       		.uleb128 0x2e
 5690 026c 01       		.byte	0x1
 5691 026d 3F       		.uleb128 0x3f
 5692 026e 0C       		.uleb128 0xc
 5693 026f 03       		.uleb128 0x3
 5694 0270 0E       		.uleb128 0xe
 5695 0271 3A       		.uleb128 0x3a
 5696 0272 0B       		.uleb128 0xb
 5697 0273 3B       		.uleb128 0x3b
 5698 0274 05       		.uleb128 0x5
 5699 0275 27       		.uleb128 0x27
 5700 0276 0C       		.uleb128 0xc
 5701 0277 49       		.uleb128 0x49
 5702 0278 13       		.uleb128 0x13
 5703 0279 11       		.uleb128 0x11
 5704 027a 01       		.uleb128 0x1
 5705 027b 12       		.uleb128 0x12
 5706 027c 01       		.uleb128 0x1
 5707 027d 40       		.uleb128 0x40
 5708 027e 06       		.uleb128 0x6
 5709 027f 9742     		.uleb128 0x2117
 5710 0281 0C       		.uleb128 0xc
 5711 0282 01       		.uleb128 0x1
 5712 0283 13       		.uleb128 0x13
 5713 0284 00       		.byte	0
 5714 0285 00       		.byte	0
 5715 0286 2B       		.uleb128 0x2b
 5716 0287 34       		.uleb128 0x34
 5717 0288 00       		.byte	0
 5718 0289 03       		.uleb128 0x3
 5719 028a 08       		.uleb128 0x8
 5720 028b 3A       		.uleb128 0x3a
 5721 028c 0B       		.uleb128 0xb
 5722 028d 3B       		.uleb128 0x3b
 5723 028e 05       		.uleb128 0x5
 5724 028f 49       		.uleb128 0x49
 5725 0290 13       		.uleb128 0x13
 5726 0291 02       		.uleb128 0x2
 5727 0292 06       		.uleb128 0x6
 5728 0293 00       		.byte	0
 5729 0294 00       		.byte	0
 5730 0295 2C       		.uleb128 0x2c
 5731 0296 34       		.uleb128 0x34
 5732 0297 00       		.byte	0
 5733 0298 03       		.uleb128 0x3
 5734 0299 0E       		.uleb128 0xe
ARM GAS  C:\Users\atsu\AppData\Local\Temp\ccDwwNoN.s 			page 116


 5735 029a 3A       		.uleb128 0x3a
 5736 029b 0B       		.uleb128 0xb
 5737 029c 3B       		.uleb128 0x3b
 5738 029d 05       		.uleb128 0x5
 5739 029e 49       		.uleb128 0x49
 5740 029f 13       		.uleb128 0x13
 5741 02a0 02       		.uleb128 0x2
 5742 02a1 06       		.uleb128 0x6
 5743 02a2 00       		.byte	0
 5744 02a3 00       		.byte	0
 5745 02a4 2D       		.uleb128 0x2d
 5746 02a5 1D       		.uleb128 0x1d
 5747 02a6 01       		.byte	0x1
 5748 02a7 31       		.uleb128 0x31
 5749 02a8 13       		.uleb128 0x13
 5750 02a9 11       		.uleb128 0x11
 5751 02aa 01       		.uleb128 0x1
 5752 02ab 12       		.uleb128 0x12
 5753 02ac 01       		.uleb128 0x1
 5754 02ad 58       		.uleb128 0x58
 5755 02ae 0B       		.uleb128 0xb
 5756 02af 59       		.uleb128 0x59
 5757 02b0 05       		.uleb128 0x5
 5758 02b1 01       		.uleb128 0x1
 5759 02b2 13       		.uleb128 0x13
 5760 02b3 00       		.byte	0
 5761 02b4 00       		.byte	0
 5762 02b5 2E       		.uleb128 0x2e
 5763 02b6 05       		.uleb128 0x5
 5764 02b7 00       		.byte	0
 5765 02b8 31       		.uleb128 0x31
 5766 02b9 13       		.uleb128 0x13
 5767 02ba 00       		.byte	0
 5768 02bb 00       		.byte	0
 5769 02bc 2F       		.uleb128 0x2f
 5770 02bd 34       		.uleb128 0x34
 5771 02be 00       		.byte	0
 5772 02bf 03       		.uleb128 0x3
 5773 02c0 0E       		.uleb128 0xe
 5774 02c1 3A       		.uleb128 0x3a
 5775 02c2 0B       		.uleb128 0xb
 5776 02c3 3B       		.uleb128 0x3b
 5777 02c4 0B       		.uleb128 0xb
 5778 02c5 49       		.uleb128 0x49
 5779 02c6 13       		.uleb128 0x13
 5780 02c7 02       		.uleb128 0x2
 5781 02c8 0A       		.uleb128 0xa
 5782 02c9 00       		.byte	0
 5783 02ca 00       		.byte	0
 5784 02cb 30       		.uleb128 0x30
 5785 02cc 34       		.uleb128 0x34
 5786 02cd 00       		.byte	0
 5787 02ce 03       		.uleb128 0x3
 5788 02cf 0E       		.uleb128 0xe
 5789 02d0 3A       		.uleb128 0x3a
 5790 02d1 0B       		.uleb128 0xb
 5791 02d2 3B       		.uleb128 0x3b
ARM GAS  C:\Users\atsu\AppData\Local\Temp\ccDwwNoN.s 			page 117


 5792 02d3 0B       		.uleb128 0xb
 5793 02d4 49       		.uleb128 0x49
 5794 02d5 13       		.uleb128 0x13
 5795 02d6 3F       		.uleb128 0x3f
 5796 02d7 0C       		.uleb128 0xc
 5797 02d8 02       		.uleb128 0x2
 5798 02d9 0A       		.uleb128 0xa
 5799 02da 00       		.byte	0
 5800 02db 00       		.byte	0
 5801 02dc 31       		.uleb128 0x31
 5802 02dd 2E       		.uleb128 0x2e
 5803 02de 00       		.byte	0
 5804 02df 3F       		.uleb128 0x3f
 5805 02e0 0C       		.uleb128 0xc
 5806 02e1 03       		.uleb128 0x3
 5807 02e2 0E       		.uleb128 0xe
 5808 02e3 3A       		.uleb128 0x3a
 5809 02e4 0B       		.uleb128 0xb
 5810 02e5 3B       		.uleb128 0x3b
 5811 02e6 0B       		.uleb128 0xb
 5812 02e7 27       		.uleb128 0x27
 5813 02e8 0C       		.uleb128 0xc
 5814 02e9 3C       		.uleb128 0x3c
 5815 02ea 0C       		.uleb128 0xc
 5816 02eb 00       		.byte	0
 5817 02ec 00       		.byte	0
 5818 02ed 32       		.uleb128 0x32
 5819 02ee 2E       		.uleb128 0x2e
 5820 02ef 01       		.byte	0x1
 5821 02f0 3F       		.uleb128 0x3f
 5822 02f1 0C       		.uleb128 0xc
 5823 02f2 03       		.uleb128 0x3
 5824 02f3 0E       		.uleb128 0xe
 5825 02f4 3A       		.uleb128 0x3a
 5826 02f5 0B       		.uleb128 0xb
 5827 02f6 3B       		.uleb128 0x3b
 5828 02f7 0B       		.uleb128 0xb
 5829 02f8 27       		.uleb128 0x27
 5830 02f9 0C       		.uleb128 0xc
 5831 02fa 49       		.uleb128 0x49
 5832 02fb 13       		.uleb128 0x13
 5833 02fc 3C       		.uleb128 0x3c
 5834 02fd 0C       		.uleb128 0xc
 5835 02fe 00       		.byte	0
 5836 02ff 00       		.byte	0
 5837 0300 33       		.uleb128 0x33
 5838 0301 05       		.uleb128 0x5
 5839 0302 00       		.byte	0
 5840 0303 49       		.uleb128 0x49
 5841 0304 13       		.uleb128 0x13
 5842 0305 00       		.byte	0
 5843 0306 00       		.byte	0
 5844 0307 00       		.byte	0
 5845              		.section	.debug_loc,"",%progbits
 5846              	.Ldebug_loc0:
 5847              	.LLST0:
 5848 0000 00000000 		.4byte	.LVL0
ARM GAS  C:\Users\atsu\AppData\Local\Temp\ccDwwNoN.s 			page 118


 5849 0004 0A000000 		.4byte	.LVL1
 5850 0008 0100     		.2byte	0x1
 5851 000a 50       		.byte	0x50
 5852 000b 0A000000 		.4byte	.LVL1
 5853 000f 10000000 		.4byte	.LFE0
 5854 0013 0400     		.2byte	0x4
 5855 0015 F3       		.byte	0xf3
 5856 0016 01       		.uleb128 0x1
 5857 0017 50       		.byte	0x50
 5858 0018 9F       		.byte	0x9f
 5859 0019 00000000 		.4byte	0
 5860 001d 00000000 		.4byte	0
 5861              	.LLST1:
 5862 0021 00000000 		.4byte	.LVL3
 5863 0025 04000000 		.4byte	.LVL4
 5864 0029 0100     		.2byte	0x1
 5865 002b 50       		.byte	0x50
 5866 002c 04000000 		.4byte	.LVL4
 5867 0030 0C000000 		.4byte	.LFE2
 5868 0034 0400     		.2byte	0x4
 5869 0036 F3       		.byte	0xf3
 5870 0037 01       		.uleb128 0x1
 5871 0038 50       		.byte	0x50
 5872 0039 9F       		.byte	0x9f
 5873 003a 00000000 		.4byte	0
 5874 003e 00000000 		.4byte	0
 5875              	.LLST2:
 5876 0042 00000000 		.4byte	.LVL6
 5877 0046 04000000 		.4byte	.LVL7
 5878 004a 0100     		.2byte	0x1
 5879 004c 50       		.byte	0x50
 5880 004d 04000000 		.4byte	.LVL7
 5881 0051 10000000 		.4byte	.LFE4
 5882 0055 0400     		.2byte	0x4
 5883 0057 F3       		.byte	0xf3
 5884 0058 01       		.uleb128 0x1
 5885 0059 50       		.byte	0x50
 5886 005a 9F       		.byte	0x9f
 5887 005b 00000000 		.4byte	0
 5888 005f 00000000 		.4byte	0
 5889              	.LLST3:
 5890 0063 00000000 		.4byte	.LVL8
 5891 0067 04000000 		.4byte	.LVL9
 5892 006b 0100     		.2byte	0x1
 5893 006d 50       		.byte	0x50
 5894 006e 04000000 		.4byte	.LVL9
 5895 0072 10000000 		.4byte	.LFE5
 5896 0076 0400     		.2byte	0x4
 5897 0078 F3       		.byte	0xf3
 5898 0079 01       		.uleb128 0x1
 5899 007a 50       		.byte	0x50
 5900 007b 9F       		.byte	0x9f
 5901 007c 00000000 		.4byte	0
 5902 0080 00000000 		.4byte	0
 5903              	.LLST4:
 5904 0084 00000000 		.4byte	.LVL10
 5905 0088 04000000 		.4byte	.LVL11
ARM GAS  C:\Users\atsu\AppData\Local\Temp\ccDwwNoN.s 			page 119


 5906 008c 0100     		.2byte	0x1
 5907 008e 50       		.byte	0x50
 5908 008f 04000000 		.4byte	.LVL11
 5909 0093 10000000 		.4byte	.LFE6
 5910 0097 0400     		.2byte	0x4
 5911 0099 F3       		.byte	0xf3
 5912 009a 01       		.uleb128 0x1
 5913 009b 50       		.byte	0x50
 5914 009c 9F       		.byte	0x9f
 5915 009d 00000000 		.4byte	0
 5916 00a1 00000000 		.4byte	0
 5917              	.LLST5:
 5918 00a5 00000000 		.4byte	.LVL12
 5919 00a9 04000000 		.4byte	.LVL13
 5920 00ad 0100     		.2byte	0x1
 5921 00af 50       		.byte	0x50
 5922 00b0 04000000 		.4byte	.LVL13
 5923 00b4 10000000 		.4byte	.LFE7
 5924 00b8 0400     		.2byte	0x4
 5925 00ba F3       		.byte	0xf3
 5926 00bb 01       		.uleb128 0x1
 5927 00bc 50       		.byte	0x50
 5928 00bd 9F       		.byte	0x9f
 5929 00be 00000000 		.4byte	0
 5930 00c2 00000000 		.4byte	0
 5931              	.LLST6:
 5932 00c6 00000000 		.4byte	.LVL14
 5933 00ca 04000000 		.4byte	.LVL15
 5934 00ce 0100     		.2byte	0x1
 5935 00d0 50       		.byte	0x50
 5936 00d1 04000000 		.4byte	.LVL15
 5937 00d5 10000000 		.4byte	.LFE8
 5938 00d9 0400     		.2byte	0x4
 5939 00db F3       		.byte	0xf3
 5940 00dc 01       		.uleb128 0x1
 5941 00dd 50       		.byte	0x50
 5942 00de 9F       		.byte	0x9f
 5943 00df 00000000 		.4byte	0
 5944 00e3 00000000 		.4byte	0
 5945              	.LLST7:
 5946 00e7 00000000 		.4byte	.LVL16
 5947 00eb 04000000 		.4byte	.LVL17
 5948 00ef 0100     		.2byte	0x1
 5949 00f1 50       		.byte	0x50
 5950 00f2 04000000 		.4byte	.LVL17
 5951 00f6 10000000 		.4byte	.LFE9
 5952 00fa 0400     		.2byte	0x4
 5953 00fc F3       		.byte	0xf3
 5954 00fd 01       		.uleb128 0x1
 5955 00fe 50       		.byte	0x50
 5956 00ff 9F       		.byte	0x9f
 5957 0100 00000000 		.4byte	0
 5958 0104 00000000 		.4byte	0
 5959              	.LLST8:
 5960 0108 00000000 		.4byte	.LFB10
 5961 010c 02000000 		.4byte	.LCFI0
 5962 0110 0200     		.2byte	0x2
ARM GAS  C:\Users\atsu\AppData\Local\Temp\ccDwwNoN.s 			page 120


 5963 0112 7D       		.byte	0x7d
 5964 0113 00       		.sleb128 0
 5965 0114 02000000 		.4byte	.LCFI0
 5966 0118 08000000 		.4byte	.LFE10
 5967 011c 0200     		.2byte	0x2
 5968 011e 7D       		.byte	0x7d
 5969 011f 08       		.sleb128 8
 5970 0120 00000000 		.4byte	0
 5971 0124 00000000 		.4byte	0
 5972              	.LLST9:
 5973 0128 00000000 		.4byte	.LFB11
 5974 012c 02000000 		.4byte	.LCFI1
 5975 0130 0200     		.2byte	0x2
 5976 0132 7D       		.byte	0x7d
 5977 0133 00       		.sleb128 0
 5978 0134 02000000 		.4byte	.LCFI1
 5979 0138 08000000 		.4byte	.LFE11
 5980 013c 0200     		.2byte	0x2
 5981 013e 7D       		.byte	0x7d
 5982 013f 08       		.sleb128 8
 5983 0140 00000000 		.4byte	0
 5984 0144 00000000 		.4byte	0
 5985              	.LLST10:
 5986 0148 00000000 		.4byte	.LFB12
 5987 014c 02000000 		.4byte	.LCFI2
 5988 0150 0200     		.2byte	0x2
 5989 0152 7D       		.byte	0x7d
 5990 0153 00       		.sleb128 0
 5991 0154 02000000 		.4byte	.LCFI2
 5992 0158 08000000 		.4byte	.LFE12
 5993 015c 0200     		.2byte	0x2
 5994 015e 7D       		.byte	0x7d
 5995 015f 08       		.sleb128 8
 5996 0160 00000000 		.4byte	0
 5997 0164 00000000 		.4byte	0
 5998              	.LLST11:
 5999 0168 00000000 		.4byte	.LVL20
 6000 016c 05000000 		.4byte	.LVL21-1
 6001 0170 0100     		.2byte	0x1
 6002 0172 50       		.byte	0x50
 6003 0173 05000000 		.4byte	.LVL21-1
 6004 0177 08000000 		.4byte	.LFE12
 6005 017b 0400     		.2byte	0x4
 6006 017d F3       		.byte	0xf3
 6007 017e 01       		.uleb128 0x1
 6008 017f 50       		.byte	0x50
 6009 0180 9F       		.byte	0x9f
 6010 0181 00000000 		.4byte	0
 6011 0185 00000000 		.4byte	0
 6012              	.LLST12:
 6013 0189 00000000 		.4byte	.LFB13
 6014 018d 02000000 		.4byte	.LCFI3
 6015 0191 0200     		.2byte	0x2
 6016 0193 7D       		.byte	0x7d
 6017 0194 00       		.sleb128 0
 6018 0195 02000000 		.4byte	.LCFI3
 6019 0199 30000000 		.4byte	.LFE13
ARM GAS  C:\Users\atsu\AppData\Local\Temp\ccDwwNoN.s 			page 121


 6020 019d 0200     		.2byte	0x2
 6021 019f 7D       		.byte	0x7d
 6022 01a0 10       		.sleb128 16
 6023 01a1 00000000 		.4byte	0
 6024 01a5 00000000 		.4byte	0
 6025              	.LLST13:
 6026 01a9 00000000 		.4byte	.LVL22
 6027 01ad 09000000 		.4byte	.LVL23-1
 6028 01b1 0100     		.2byte	0x1
 6029 01b3 50       		.byte	0x50
 6030 01b4 09000000 		.4byte	.LVL23-1
 6031 01b8 30000000 		.4byte	.LFE13
 6032 01bc 0400     		.2byte	0x4
 6033 01be F3       		.byte	0xf3
 6034 01bf 01       		.uleb128 0x1
 6035 01c0 50       		.byte	0x50
 6036 01c1 9F       		.byte	0x9f
 6037 01c2 00000000 		.4byte	0
 6038 01c6 00000000 		.4byte	0
 6039              	.LLST14:
 6040 01ca 00000000 		.4byte	.LVL22
 6041 01ce 09000000 		.4byte	.LVL23-1
 6042 01d2 0100     		.2byte	0x1
 6043 01d4 51       		.byte	0x51
 6044 01d5 09000000 		.4byte	.LVL23-1
 6045 01d9 30000000 		.4byte	.LFE13
 6046 01dd 0400     		.2byte	0x4
 6047 01df F3       		.byte	0xf3
 6048 01e0 01       		.uleb128 0x1
 6049 01e1 51       		.byte	0x51
 6050 01e2 9F       		.byte	0x9f
 6051 01e3 00000000 		.4byte	0
 6052 01e7 00000000 		.4byte	0
 6053              	.LLST15:
 6054 01eb 00000000 		.4byte	.LFB14
 6055 01ef 02000000 		.4byte	.LCFI4
 6056 01f3 0200     		.2byte	0x2
 6057 01f5 7D       		.byte	0x7d
 6058 01f6 00       		.sleb128 0
 6059 01f7 02000000 		.4byte	.LCFI4
 6060 01fb 30000000 		.4byte	.LFE14
 6061 01ff 0200     		.2byte	0x2
 6062 0201 7D       		.byte	0x7d
 6063 0202 08       		.sleb128 8
 6064 0203 00000000 		.4byte	0
 6065 0207 00000000 		.4byte	0
 6066              	.LLST16:
 6067 020b 00000000 		.4byte	.LVL30
 6068 020f 07000000 		.4byte	.LVL31-1
 6069 0213 0100     		.2byte	0x1
 6070 0215 50       		.byte	0x50
 6071 0216 07000000 		.4byte	.LVL31-1
 6072 021a 30000000 		.4byte	.LFE14
 6073 021e 0400     		.2byte	0x4
 6074 0220 F3       		.byte	0xf3
 6075 0221 01       		.uleb128 0x1
 6076 0222 50       		.byte	0x50
ARM GAS  C:\Users\atsu\AppData\Local\Temp\ccDwwNoN.s 			page 122


 6077 0223 9F       		.byte	0x9f
 6078 0224 00000000 		.4byte	0
 6079 0228 00000000 		.4byte	0
 6080              	.LLST17:
 6081 022c 00000000 		.4byte	.LFB15
 6082 0230 02000000 		.4byte	.LCFI5
 6083 0234 0200     		.2byte	0x2
 6084 0236 7D       		.byte	0x7d
 6085 0237 00       		.sleb128 0
 6086 0238 02000000 		.4byte	.LCFI5
 6087 023c 48000000 		.4byte	.LFE15
 6088 0240 0200     		.2byte	0x2
 6089 0242 7D       		.byte	0x7d
 6090 0243 10       		.sleb128 16
 6091 0244 00000000 		.4byte	0
 6092 0248 00000000 		.4byte	0
 6093              	.LLST18:
 6094 024c 00000000 		.4byte	.LVL38
 6095 0250 0D000000 		.4byte	.LVL40-1
 6096 0254 0100     		.2byte	0x1
 6097 0256 50       		.byte	0x50
 6098 0257 0D000000 		.4byte	.LVL40-1
 6099 025b 48000000 		.4byte	.LFE15
 6100 025f 0400     		.2byte	0x4
 6101 0261 F3       		.byte	0xf3
 6102 0262 01       		.uleb128 0x1
 6103 0263 50       		.byte	0x50
 6104 0264 9F       		.byte	0x9f
 6105 0265 00000000 		.4byte	0
 6106 0269 00000000 		.4byte	0
 6107              	.LLST19:
 6108 026d 00000000 		.4byte	.LVL38
 6109 0271 0D000000 		.4byte	.LVL40-1
 6110 0275 0100     		.2byte	0x1
 6111 0277 51       		.byte	0x51
 6112 0278 0D000000 		.4byte	.LVL40-1
 6113 027c 46000000 		.4byte	.LVL48
 6114 0280 0100     		.2byte	0x1
 6115 0282 56       		.byte	0x56
 6116 0283 46000000 		.4byte	.LVL48
 6117 0287 48000000 		.4byte	.LFE15
 6118 028b 0400     		.2byte	0x4
 6119 028d F3       		.byte	0xf3
 6120 028e 01       		.uleb128 0x1
 6121 028f 51       		.byte	0x51
 6122 0290 9F       		.byte	0x9f
 6123 0291 00000000 		.4byte	0
 6124 0295 00000000 		.4byte	0
 6125              	.LLST20:
 6126 0299 00000000 		.4byte	.LVL38
 6127 029d 0D000000 		.4byte	.LVL40-1
 6128 02a1 0100     		.2byte	0x1
 6129 02a3 52       		.byte	0x52
 6130 02a4 0D000000 		.4byte	.LVL40-1
 6131 02a8 48000000 		.4byte	.LFE15
 6132 02ac 0400     		.2byte	0x4
 6133 02ae F3       		.byte	0xf3
ARM GAS  C:\Users\atsu\AppData\Local\Temp\ccDwwNoN.s 			page 123


 6134 02af 01       		.uleb128 0x1
 6135 02b0 52       		.byte	0x52
 6136 02b1 9F       		.byte	0x9f
 6137 02b2 00000000 		.4byte	0
 6138 02b6 00000000 		.4byte	0
 6139              	.LLST21:
 6140 02ba 0A000000 		.4byte	.LVL39
 6141 02be 0D000000 		.4byte	.LVL40-1
 6142 02c2 0100     		.2byte	0x1
 6143 02c4 52       		.byte	0x52
 6144 02c5 0D000000 		.4byte	.LVL40-1
 6145 02c9 44000000 		.4byte	.LVL47
 6146 02cd 0100     		.2byte	0x1
 6147 02cf 54       		.byte	0x54
 6148 02d0 00000000 		.4byte	0
 6149 02d4 00000000 		.4byte	0
 6150              	.LLST22:
 6151 02d8 0A000000 		.4byte	.LVL39
 6152 02dc 0D000000 		.4byte	.LVL40-1
 6153 02e0 0100     		.2byte	0x1
 6154 02e2 51       		.byte	0x51
 6155 02e3 0D000000 		.4byte	.LVL40-1
 6156 02e7 44000000 		.4byte	.LVL47
 6157 02eb 0100     		.2byte	0x1
 6158 02ed 56       		.byte	0x56
 6159 02ee 00000000 		.4byte	0
 6160 02f2 00000000 		.4byte	0
 6161              	.LLST23:
 6162 02f6 0A000000 		.4byte	.LVL39
 6163 02fa 0D000000 		.4byte	.LVL40-1
 6164 02fe 0100     		.2byte	0x1
 6165 0300 50       		.byte	0x50
 6166 0301 0D000000 		.4byte	.LVL40-1
 6167 0305 2E000000 		.4byte	.LVL45
 6168 0309 0100     		.2byte	0x1
 6169 030b 55       		.byte	0x55
 6170 030c 00000000 		.4byte	0
 6171 0310 00000000 		.4byte	0
 6172              	.LLST24:
 6173 0314 2C000000 		.4byte	.LVL44
 6174 0318 2E000000 		.4byte	.LVL45
 6175 031c 0200     		.2byte	0x2
 6176 031e 30       		.byte	0x30
 6177 031f 9F       		.byte	0x9f
 6178 0320 00000000 		.4byte	0
 6179 0324 00000000 		.4byte	0
 6180              	.LLST25:
 6181 0328 00000000 		.4byte	.LFB16
 6182 032c 02000000 		.4byte	.LCFI6
 6183 0330 0200     		.2byte	0x2
 6184 0332 7D       		.byte	0x7d
 6185 0333 00       		.sleb128 0
 6186 0334 02000000 		.4byte	.LCFI6
 6187 0338 44000000 		.4byte	.LFE16
 6188 033c 0200     		.2byte	0x2
 6189 033e 7D       		.byte	0x7d
 6190 033f 10       		.sleb128 16
ARM GAS  C:\Users\atsu\AppData\Local\Temp\ccDwwNoN.s 			page 124


 6191 0340 00000000 		.4byte	0
 6192 0344 00000000 		.4byte	0
 6193              	.LLST26:
 6194 0348 00000000 		.4byte	.LVL49
 6195 034c 0B000000 		.4byte	.LVL50-1
 6196 0350 0100     		.2byte	0x1
 6197 0352 50       		.byte	0x50
 6198 0353 0B000000 		.4byte	.LVL50-1
 6199 0357 44000000 		.4byte	.LFE16
 6200 035b 0400     		.2byte	0x4
 6201 035d F3       		.byte	0xf3
 6202 035e 01       		.uleb128 0x1
 6203 035f 50       		.byte	0x50
 6204 0360 9F       		.byte	0x9f
 6205 0361 00000000 		.4byte	0
 6206 0365 00000000 		.4byte	0
 6207              	.LLST27:
 6208 0369 00000000 		.4byte	.LVL49
 6209 036d 0B000000 		.4byte	.LVL50-1
 6210 0371 0100     		.2byte	0x1
 6211 0373 51       		.byte	0x51
 6212 0374 0B000000 		.4byte	.LVL50-1
 6213 0378 42000000 		.4byte	.LVL60
 6214 037c 0100     		.2byte	0x1
 6215 037e 56       		.byte	0x56
 6216 037f 42000000 		.4byte	.LVL60
 6217 0383 44000000 		.4byte	.LFE16
 6218 0387 0400     		.2byte	0x4
 6219 0389 F3       		.byte	0xf3
 6220 038a 01       		.uleb128 0x1
 6221 038b 51       		.byte	0x51
 6222 038c 9F       		.byte	0x9f
 6223 038d 00000000 		.4byte	0
 6224 0391 00000000 		.4byte	0
 6225              	.LLST28:
 6226 0395 00000000 		.4byte	.LVL49
 6227 0399 0B000000 		.4byte	.LVL50-1
 6228 039d 0100     		.2byte	0x1
 6229 039f 52       		.byte	0x52
 6230 03a0 0B000000 		.4byte	.LVL50-1
 6231 03a4 44000000 		.4byte	.LFE16
 6232 03a8 0400     		.2byte	0x4
 6233 03aa F3       		.byte	0xf3
 6234 03ab 01       		.uleb128 0x1
 6235 03ac 52       		.byte	0x52
 6236 03ad 9F       		.byte	0x9f
 6237 03ae 00000000 		.4byte	0
 6238 03b2 00000000 		.4byte	0
 6239              	.LLST29:
 6240 03b6 00000000 		.4byte	.LVL49
 6241 03ba 28000000 		.4byte	.LVL55
 6242 03be 0200     		.2byte	0x2
 6243 03c0 30       		.byte	0x30
 6244 03c1 9F       		.byte	0x9f
 6245 03c2 00000000 		.4byte	0
 6246 03c6 00000000 		.4byte	0
 6247              	.LLST30:
ARM GAS  C:\Users\atsu\AppData\Local\Temp\ccDwwNoN.s 			page 125


 6248 03ca 30000000 		.4byte	.LVL56
 6249 03ce 3C000000 		.4byte	.LVL58
 6250 03d2 0200     		.2byte	0x2
 6251 03d4 30       		.byte	0x30
 6252 03d5 9F       		.byte	0x9f
 6253 03d6 00000000 		.4byte	0
 6254 03da 00000000 		.4byte	0
 6255              	.LLST31:
 6256 03de 00000000 		.4byte	.LFB18
 6257 03e2 02000000 		.4byte	.LCFI7
 6258 03e6 0200     		.2byte	0x2
 6259 03e8 7D       		.byte	0x7d
 6260 03e9 00       		.sleb128 0
 6261 03ea 02000000 		.4byte	.LCFI7
 6262 03ee 04000000 		.4byte	.LCFI8
 6263 03f2 0200     		.2byte	0x2
 6264 03f4 7D       		.byte	0x7d
 6265 03f5 14       		.sleb128 20
 6266 03f6 04000000 		.4byte	.LCFI8
 6267 03fa B8010000 		.4byte	.LFE18
 6268 03fe 0200     		.2byte	0x2
 6269 0400 7D       		.byte	0x7d
 6270 0401 28       		.sleb128 40
 6271 0402 00000000 		.4byte	0
 6272 0406 00000000 		.4byte	0
 6273              	.LLST32:
 6274 040a 00000000 		.4byte	.LVL61
 6275 040e 0C000000 		.4byte	.LVL62
 6276 0412 0100     		.2byte	0x1
 6277 0414 50       		.byte	0x50
 6278 0415 0C000000 		.4byte	.LVL62
 6279 0419 B8010000 		.4byte	.LFE18
 6280 041d 0200     		.2byte	0x2
 6281 041f 91       		.byte	0x91
 6282 0420 60       		.sleb128 -32
 6283 0421 00000000 		.4byte	0
 6284 0425 00000000 		.4byte	0
 6285              	.LLST33:
 6286 0429 00000000 		.4byte	.LVL61
 6287 042d 1A000000 		.4byte	.LVL64
 6288 0431 0100     		.2byte	0x1
 6289 0433 51       		.byte	0x51
 6290 0434 1A000000 		.4byte	.LVL64
 6291 0438 B8010000 		.4byte	.LFE18
 6292 043c 0200     		.2byte	0x2
 6293 043e 91       		.byte	0x91
 6294 043f 64       		.sleb128 -28
 6295 0440 00000000 		.4byte	0
 6296 0444 00000000 		.4byte	0
 6297              	.LLST34:
 6298 0448 14000000 		.4byte	.LVL63
 6299 044c 1A000000 		.4byte	.LVL64
 6300 0450 0200     		.2byte	0x2
 6301 0452 30       		.byte	0x30
 6302 0453 9F       		.byte	0x9f
 6303 0454 00000000 		.4byte	0
 6304 0458 00000000 		.4byte	0
ARM GAS  C:\Users\atsu\AppData\Local\Temp\ccDwwNoN.s 			page 126


 6305              	.LLST35:
 6306 045c 00000000 		.4byte	.LVL61
 6307 0460 1A000000 		.4byte	.LVL64
 6308 0464 0200     		.2byte	0x2
 6309 0466 30       		.byte	0x30
 6310 0467 9F       		.byte	0x9f
 6311 0468 4E010000 		.4byte	.LVL67
 6312 046c 8C010000 		.4byte	.LVL69
 6313 0470 0100     		.2byte	0x1
 6314 0472 56       		.byte	0x56
 6315 0473 00000000 		.4byte	0
 6316 0477 00000000 		.4byte	0
 6317              	.LLST36:
 6318 047b 00000000 		.4byte	.LVL61
 6319 047f 1A000000 		.4byte	.LVL64
 6320 0483 0200     		.2byte	0x2
 6321 0485 30       		.byte	0x30
 6322 0486 9F       		.byte	0x9f
 6323 0487 56010000 		.4byte	.LVL68
 6324 048b B8010000 		.4byte	.LFE18
 6325 048f 0200     		.2byte	0x2
 6326 0491 91       		.byte	0x91
 6327 0492 5C       		.sleb128 -36
 6328 0493 00000000 		.4byte	0
 6329 0497 00000000 		.4byte	0
 6330              	.LLST37:
 6331 049b 00000000 		.4byte	.LFB19
 6332 049f 02000000 		.4byte	.LCFI9
 6333 04a3 0200     		.2byte	0x2
 6334 04a5 7D       		.byte	0x7d
 6335 04a6 00       		.sleb128 0
 6336 04a7 02000000 		.4byte	.LCFI9
 6337 04ab 26000000 		.4byte	.LFE19
 6338 04af 0200     		.2byte	0x2
 6339 04b1 7D       		.byte	0x7d
 6340 04b2 08       		.sleb128 8
 6341 04b3 00000000 		.4byte	0
 6342 04b7 00000000 		.4byte	0
 6343              	.LLST38:
 6344 04bb 00000000 		.4byte	.LVL70
 6345 04bf 08000000 		.4byte	.LVL71
 6346 04c3 0100     		.2byte	0x1
 6347 04c5 50       		.byte	0x50
 6348 04c6 08000000 		.4byte	.LVL71
 6349 04ca 24000000 		.4byte	.LVL76
 6350 04ce 0100     		.2byte	0x1
 6351 04d0 54       		.byte	0x54
 6352 04d1 24000000 		.4byte	.LVL76
 6353 04d5 26000000 		.4byte	.LFE19
 6354 04d9 0400     		.2byte	0x4
 6355 04db F3       		.byte	0xf3
 6356 04dc 01       		.uleb128 0x1
 6357 04dd 50       		.byte	0x50
 6358 04de 9F       		.byte	0x9f
 6359 04df 00000000 		.4byte	0
 6360 04e3 00000000 		.4byte	0
 6361              	.LLST39:
ARM GAS  C:\Users\atsu\AppData\Local\Temp\ccDwwNoN.s 			page 127


 6362 04e7 00000000 		.4byte	.LVL77
 6363 04eb 18000000 		.4byte	.LVL78
 6364 04ef 0100     		.2byte	0x1
 6365 04f1 50       		.byte	0x50
 6366 04f2 18000000 		.4byte	.LVL78
 6367 04f6 28000000 		.4byte	.LFE20
 6368 04fa 0400     		.2byte	0x4
 6369 04fc F3       		.byte	0xf3
 6370 04fd 01       		.uleb128 0x1
 6371 04fe 50       		.byte	0x50
 6372 04ff 9F       		.byte	0x9f
 6373 0500 00000000 		.4byte	0
 6374 0504 00000000 		.4byte	0
 6375              	.LLST40:
 6376 0508 00000000 		.4byte	.LFB21
 6377 050c 02000000 		.4byte	.LCFI10
 6378 0510 0200     		.2byte	0x2
 6379 0512 7D       		.byte	0x7d
 6380 0513 00       		.sleb128 0
 6381 0514 02000000 		.4byte	.LCFI10
 6382 0518 38000000 		.4byte	.LFE21
 6383 051c 0200     		.2byte	0x2
 6384 051e 7D       		.byte	0x7d
 6385 051f 08       		.sleb128 8
 6386 0520 00000000 		.4byte	0
 6387 0524 00000000 		.4byte	0
 6388              	.LLST41:
 6389 0528 00000000 		.4byte	.LFB23
 6390 052c 02000000 		.4byte	.LCFI11
 6391 0530 0200     		.2byte	0x2
 6392 0532 7D       		.byte	0x7d
 6393 0533 00       		.sleb128 0
 6394 0534 02000000 		.4byte	.LCFI11
 6395 0538 36000000 		.4byte	.LFE23
 6396 053c 0200     		.2byte	0x2
 6397 053e 7D       		.byte	0x7d
 6398 053f 08       		.sleb128 8
 6399 0540 00000000 		.4byte	0
 6400 0544 00000000 		.4byte	0
 6401              	.LLST42:
 6402 0548 00000000 		.4byte	.LVL83
 6403 054c 08000000 		.4byte	.LVL84
 6404 0550 0100     		.2byte	0x1
 6405 0552 50       		.byte	0x50
 6406 0553 08000000 		.4byte	.LVL84
 6407 0557 34000000 		.4byte	.LVL91
 6408 055b 0100     		.2byte	0x1
 6409 055d 54       		.byte	0x54
 6410 055e 34000000 		.4byte	.LVL91
 6411 0562 36000000 		.4byte	.LFE23
 6412 0566 0400     		.2byte	0x4
 6413 0568 F3       		.byte	0xf3
 6414 0569 01       		.uleb128 0x1
 6415 056a 50       		.byte	0x50
 6416 056b 9F       		.byte	0x9f
 6417 056c 00000000 		.4byte	0
 6418 0570 00000000 		.4byte	0
ARM GAS  C:\Users\atsu\AppData\Local\Temp\ccDwwNoN.s 			page 128


 6419              	.LLST43:
 6420 0574 00000000 		.4byte	.LFB24
 6421 0578 02000000 		.4byte	.LCFI12
 6422 057c 0200     		.2byte	0x2
 6423 057e 7D       		.byte	0x7d
 6424 057f 00       		.sleb128 0
 6425 0580 02000000 		.4byte	.LCFI12
 6426 0584 26000000 		.4byte	.LFE24
 6427 0588 0200     		.2byte	0x2
 6428 058a 7D       		.byte	0x7d
 6429 058b 08       		.sleb128 8
 6430 058c 00000000 		.4byte	0
 6431 0590 00000000 		.4byte	0
 6432              	.LLST44:
 6433 0594 00000000 		.4byte	.LVL92
 6434 0598 08000000 		.4byte	.LVL93
 6435 059c 0100     		.2byte	0x1
 6436 059e 50       		.byte	0x50
 6437 059f 08000000 		.4byte	.LVL93
 6438 05a3 24000000 		.4byte	.LVL98
 6439 05a7 0100     		.2byte	0x1
 6440 05a9 54       		.byte	0x54
 6441 05aa 24000000 		.4byte	.LVL98
 6442 05ae 26000000 		.4byte	.LFE24
 6443 05b2 0400     		.2byte	0x4
 6444 05b4 F3       		.byte	0xf3
 6445 05b5 01       		.uleb128 0x1
 6446 05b6 50       		.byte	0x50
 6447 05b7 9F       		.byte	0x9f
 6448 05b8 00000000 		.4byte	0
 6449 05bc 00000000 		.4byte	0
 6450              	.LLST45:
 6451 05c0 00000000 		.4byte	.LFB25
 6452 05c4 02000000 		.4byte	.LCFI13
 6453 05c8 0200     		.2byte	0x2
 6454 05ca 7D       		.byte	0x7d
 6455 05cb 00       		.sleb128 0
 6456 05cc 02000000 		.4byte	.LCFI13
 6457 05d0 26000000 		.4byte	.LFE25
 6458 05d4 0200     		.2byte	0x2
 6459 05d6 7D       		.byte	0x7d
 6460 05d7 08       		.sleb128 8
 6461 05d8 00000000 		.4byte	0
 6462 05dc 00000000 		.4byte	0
 6463              	.LLST46:
 6464 05e0 00000000 		.4byte	.LVL99
 6465 05e4 06000000 		.4byte	.LVL100
 6466 05e8 0100     		.2byte	0x1
 6467 05ea 50       		.byte	0x50
 6468 05eb 06000000 		.4byte	.LVL100
 6469 05ef 24000000 		.4byte	.LVL105
 6470 05f3 0100     		.2byte	0x1
 6471 05f5 54       		.byte	0x54
 6472 05f6 24000000 		.4byte	.LVL105
 6473 05fa 26000000 		.4byte	.LFE25
 6474 05fe 0400     		.2byte	0x4
 6475 0600 F3       		.byte	0xf3
ARM GAS  C:\Users\atsu\AppData\Local\Temp\ccDwwNoN.s 			page 129


 6476 0601 01       		.uleb128 0x1
 6477 0602 50       		.byte	0x50
 6478 0603 9F       		.byte	0x9f
 6479 0604 00000000 		.4byte	0
 6480 0608 00000000 		.4byte	0
 6481              	.LLST47:
 6482 060c 00000000 		.4byte	.LFB27
 6483 0610 02000000 		.4byte	.LCFI14
 6484 0614 0200     		.2byte	0x2
 6485 0616 7D       		.byte	0x7d
 6486 0617 00       		.sleb128 0
 6487 0618 02000000 		.4byte	.LCFI14
 6488 061c 36000000 		.4byte	.LFE27
 6489 0620 0200     		.2byte	0x2
 6490 0622 7D       		.byte	0x7d
 6491 0623 08       		.sleb128 8
 6492 0624 00000000 		.4byte	0
 6493 0628 00000000 		.4byte	0
 6494              	.LLST48:
 6495 062c 00000000 		.4byte	.LVL107
 6496 0630 06000000 		.4byte	.LVL108
 6497 0634 0100     		.2byte	0x1
 6498 0636 50       		.byte	0x50
 6499 0637 06000000 		.4byte	.LVL108
 6500 063b 34000000 		.4byte	.LVL115
 6501 063f 0100     		.2byte	0x1
 6502 0641 54       		.byte	0x54
 6503 0642 34000000 		.4byte	.LVL115
 6504 0646 36000000 		.4byte	.LFE27
 6505 064a 0400     		.2byte	0x4
 6506 064c F3       		.byte	0xf3
 6507 064d 01       		.uleb128 0x1
 6508 064e 50       		.byte	0x50
 6509 064f 9F       		.byte	0x9f
 6510 0650 00000000 		.4byte	0
 6511 0654 00000000 		.4byte	0
 6512              	.LLST49:
 6513 0658 00000000 		.4byte	.LFB28
 6514 065c 02000000 		.4byte	.LCFI15
 6515 0660 0200     		.2byte	0x2
 6516 0662 7D       		.byte	0x7d
 6517 0663 00       		.sleb128 0
 6518 0664 02000000 		.4byte	.LCFI15
 6519 0668 26000000 		.4byte	.LFE28
 6520 066c 0200     		.2byte	0x2
 6521 066e 7D       		.byte	0x7d
 6522 066f 08       		.sleb128 8
 6523 0670 00000000 		.4byte	0
 6524 0674 00000000 		.4byte	0
 6525              	.LLST50:
 6526 0678 00000000 		.4byte	.LVL116
 6527 067c 06000000 		.4byte	.LVL117
 6528 0680 0100     		.2byte	0x1
 6529 0682 50       		.byte	0x50
 6530 0683 06000000 		.4byte	.LVL117
 6531 0687 24000000 		.4byte	.LVL122
 6532 068b 0100     		.2byte	0x1
ARM GAS  C:\Users\atsu\AppData\Local\Temp\ccDwwNoN.s 			page 130


 6533 068d 54       		.byte	0x54
 6534 068e 24000000 		.4byte	.LVL122
 6535 0692 26000000 		.4byte	.LFE28
 6536 0696 0400     		.2byte	0x4
 6537 0698 F3       		.byte	0xf3
 6538 0699 01       		.uleb128 0x1
 6539 069a 50       		.byte	0x50
 6540 069b 9F       		.byte	0x9f
 6541 069c 00000000 		.4byte	0
 6542 06a0 00000000 		.4byte	0
 6543              	.LLST51:
 6544 06a4 00000000 		.4byte	.LFB22
 6545 06a8 02000000 		.4byte	.LCFI16
 6546 06ac 0200     		.2byte	0x2
 6547 06ae 7D       		.byte	0x7d
 6548 06af 00       		.sleb128 0
 6549 06b0 02000000 		.4byte	.LCFI16
 6550 06b4 58000000 		.4byte	.LFE22
 6551 06b8 0200     		.2byte	0x2
 6552 06ba 7D       		.byte	0x7d
 6553 06bb 10       		.sleb128 16
 6554 06bc 00000000 		.4byte	0
 6555 06c0 00000000 		.4byte	0
 6556              	.LLST52:
 6557 06c4 00000000 		.4byte	.LFB29
 6558 06c8 02000000 		.4byte	.LCFI17
 6559 06cc 0200     		.2byte	0x2
 6560 06ce 7D       		.byte	0x7d
 6561 06cf 00       		.sleb128 0
 6562 06d0 02000000 		.4byte	.LCFI17
 6563 06d4 0C000000 		.4byte	.LFE29
 6564 06d8 0200     		.2byte	0x2
 6565 06da 7D       		.byte	0x7d
 6566 06db 08       		.sleb128 8
 6567 06dc 00000000 		.4byte	0
 6568 06e0 00000000 		.4byte	0
 6569              	.LLST53:
 6570 06e4 00000000 		.4byte	.LVL128
 6571 06e8 06000000 		.4byte	.LVL129
 6572 06ec 0100     		.2byte	0x1
 6573 06ee 50       		.byte	0x50
 6574 06ef 06000000 		.4byte	.LVL129
 6575 06f3 0C000000 		.4byte	.LFE29
 6576 06f7 0400     		.2byte	0x4
 6577 06f9 F3       		.byte	0xf3
 6578 06fa 01       		.uleb128 0x1
 6579 06fb 50       		.byte	0x50
 6580 06fc 9F       		.byte	0x9f
 6581 06fd 00000000 		.4byte	0
 6582 0701 00000000 		.4byte	0
 6583              	.LLST54:
 6584 0705 00000000 		.4byte	.LFB17
 6585 0709 02000000 		.4byte	.LCFI18
 6586 070d 0200     		.2byte	0x2
 6587 070f 7D       		.byte	0x7d
 6588 0710 00       		.sleb128 0
 6589 0711 02000000 		.4byte	.LCFI18
ARM GAS  C:\Users\atsu\AppData\Local\Temp\ccDwwNoN.s 			page 131


 6590 0715 0A000000 		.4byte	.LFE17
 6591 0719 0200     		.2byte	0x2
 6592 071b 7D       		.byte	0x7d
 6593 071c 08       		.sleb128 8
 6594 071d 00000000 		.4byte	0
 6595 0721 00000000 		.4byte	0
 6596              	.LLST55:
 6597 0725 00000000 		.4byte	.LFB30
 6598 0729 02000000 		.4byte	.LCFI19
 6599 072d 0200     		.2byte	0x2
 6600 072f 7D       		.byte	0x7d
 6601 0730 00       		.sleb128 0
 6602 0731 02000000 		.4byte	.LCFI19
 6603 0735 0A000000 		.4byte	.LFE30
 6604 0739 0200     		.2byte	0x2
 6605 073b 7D       		.byte	0x7d
 6606 073c 08       		.sleb128 8
 6607 073d 00000000 		.4byte	0
 6608 0741 00000000 		.4byte	0
 6609              	.LLST56:
 6610 0745 00000000 		.4byte	.LFB31
 6611 0749 02000000 		.4byte	.LCFI20
 6612 074d 0200     		.2byte	0x2
 6613 074f 7D       		.byte	0x7d
 6614 0750 00       		.sleb128 0
 6615 0751 02000000 		.4byte	.LCFI20
 6616 0755 16000000 		.4byte	.LFE31
 6617 0759 0200     		.2byte	0x2
 6618 075b 7D       		.byte	0x7d
 6619 075c 08       		.sleb128 8
 6620 075d 00000000 		.4byte	0
 6621 0761 00000000 		.4byte	0
 6622              	.LLST57:
 6623 0765 00000000 		.4byte	.LVL133
 6624 0769 08000000 		.4byte	.LVL134
 6625 076d 0100     		.2byte	0x1
 6626 076f 50       		.byte	0x50
 6627 0770 08000000 		.4byte	.LVL134
 6628 0774 16000000 		.4byte	.LFE31
 6629 0778 0400     		.2byte	0x4
 6630 077a F3       		.byte	0xf3
 6631 077b 01       		.uleb128 0x1
 6632 077c 50       		.byte	0x50
 6633 077d 9F       		.byte	0x9f
 6634 077e 00000000 		.4byte	0
 6635 0782 00000000 		.4byte	0
 6636              	.LLST58:
 6637 0786 00000000 		.4byte	.LFB32
 6638 078a 02000000 		.4byte	.LCFI21
 6639 078e 0200     		.2byte	0x2
 6640 0790 7D       		.byte	0x7d
 6641 0791 00       		.sleb128 0
 6642 0792 02000000 		.4byte	.LCFI21
 6643 0796 0C000000 		.4byte	.LFE32
 6644 079a 0200     		.2byte	0x2
 6645 079c 7D       		.byte	0x7d
 6646 079d 08       		.sleb128 8
ARM GAS  C:\Users\atsu\AppData\Local\Temp\ccDwwNoN.s 			page 132


 6647 079e 00000000 		.4byte	0
 6648 07a2 00000000 		.4byte	0
 6649              	.LLST59:
 6650 07a6 00000000 		.4byte	.LVL137
 6651 07aa 06000000 		.4byte	.LVL138
 6652 07ae 0100     		.2byte	0x1
 6653 07b0 50       		.byte	0x50
 6654 07b1 06000000 		.4byte	.LVL138
 6655 07b5 0C000000 		.4byte	.LFE32
 6656 07b9 0400     		.2byte	0x4
 6657 07bb F3       		.byte	0xf3
 6658 07bc 01       		.uleb128 0x1
 6659 07bd 50       		.byte	0x50
 6660 07be 9F       		.byte	0x9f
 6661 07bf 00000000 		.4byte	0
 6662 07c3 00000000 		.4byte	0
 6663              	.LLST60:
 6664 07c7 00000000 		.4byte	.LFB33
 6665 07cb 02000000 		.4byte	.LCFI22
 6666 07cf 0200     		.2byte	0x2
 6667 07d1 7D       		.byte	0x7d
 6668 07d2 00       		.sleb128 0
 6669 07d3 02000000 		.4byte	.LCFI22
 6670 07d7 0C000000 		.4byte	.LFE33
 6671 07db 0200     		.2byte	0x2
 6672 07dd 7D       		.byte	0x7d
 6673 07de 08       		.sleb128 8
 6674 07df 00000000 		.4byte	0
 6675 07e3 00000000 		.4byte	0
 6676              	.LLST61:
 6677 07e7 00000000 		.4byte	.LVL140
 6678 07eb 06000000 		.4byte	.LVL141
 6679 07ef 0100     		.2byte	0x1
 6680 07f1 50       		.byte	0x50
 6681 07f2 06000000 		.4byte	.LVL141
 6682 07f6 0C000000 		.4byte	.LFE33
 6683 07fa 0400     		.2byte	0x4
 6684 07fc F3       		.byte	0xf3
 6685 07fd 01       		.uleb128 0x1
 6686 07fe 50       		.byte	0x50
 6687 07ff 9F       		.byte	0x9f
 6688 0800 00000000 		.4byte	0
 6689 0804 00000000 		.4byte	0
 6690              	.LLST62:
 6691 0808 00000000 		.4byte	.LFB34
 6692 080c 02000000 		.4byte	.LCFI23
 6693 0810 0200     		.2byte	0x2
 6694 0812 7D       		.byte	0x7d
 6695 0813 00       		.sleb128 0
 6696 0814 02000000 		.4byte	.LCFI23
 6697 0818 24000000 		.4byte	.LFE34
 6698 081c 0200     		.2byte	0x2
 6699 081e 7D       		.byte	0x7d
 6700 081f 10       		.sleb128 16
 6701 0820 00000000 		.4byte	0
 6702 0824 00000000 		.4byte	0
 6703              	.LLST63:
ARM GAS  C:\Users\atsu\AppData\Local\Temp\ccDwwNoN.s 			page 133


 6704 0828 00000000 		.4byte	.LVL143
 6705 082c 08000000 		.4byte	.LVL144
 6706 0830 0100     		.2byte	0x1
 6707 0832 50       		.byte	0x50
 6708 0833 08000000 		.4byte	.LVL144
 6709 0837 24000000 		.4byte	.LFE34
 6710 083b 0400     		.2byte	0x4
 6711 083d F3       		.byte	0xf3
 6712 083e 01       		.uleb128 0x1
 6713 083f 50       		.byte	0x50
 6714 0840 9F       		.byte	0x9f
 6715 0841 00000000 		.4byte	0
 6716 0845 00000000 		.4byte	0
 6717              	.LLST64:
 6718 0849 00000000 		.4byte	.LVL143
 6719 084d 0E000000 		.4byte	.LVL145
 6720 0851 0100     		.2byte	0x1
 6721 0853 51       		.byte	0x51
 6722 0854 0E000000 		.4byte	.LVL145
 6723 0858 24000000 		.4byte	.LFE34
 6724 085c 0400     		.2byte	0x4
 6725 085e F3       		.byte	0xf3
 6726 085f 01       		.uleb128 0x1
 6727 0860 51       		.byte	0x51
 6728 0861 9F       		.byte	0x9f
 6729 0862 00000000 		.4byte	0
 6730 0866 00000000 		.4byte	0
 6731              	.LLST65:
 6732 086a 00000000 		.4byte	.LFB35
 6733 086e 02000000 		.4byte	.LCFI24
 6734 0872 0200     		.2byte	0x2
 6735 0874 7D       		.byte	0x7d
 6736 0875 00       		.sleb128 0
 6737 0876 02000000 		.4byte	.LCFI24
 6738 087a 14000000 		.4byte	.LFE35
 6739 087e 0200     		.2byte	0x2
 6740 0880 7D       		.byte	0x7d
 6741 0881 08       		.sleb128 8
 6742 0882 00000000 		.4byte	0
 6743 0886 00000000 		.4byte	0
 6744              	.LLST66:
 6745 088a 00000000 		.4byte	.LVL148
 6746 088e 06000000 		.4byte	.LVL149
 6747 0892 0100     		.2byte	0x1
 6748 0894 50       		.byte	0x50
 6749 0895 06000000 		.4byte	.LVL149
 6750 0899 14000000 		.4byte	.LFE35
 6751 089d 0400     		.2byte	0x4
 6752 089f F3       		.byte	0xf3
 6753 08a0 01       		.uleb128 0x1
 6754 08a1 50       		.byte	0x50
 6755 08a2 9F       		.byte	0x9f
 6756 08a3 00000000 		.4byte	0
 6757 08a7 00000000 		.4byte	0
 6758              	.LLST67:
 6759 08ab 00000000 		.4byte	.LVL148
 6760 08af 0D000000 		.4byte	.LVL150-1
ARM GAS  C:\Users\atsu\AppData\Local\Temp\ccDwwNoN.s 			page 134


 6761 08b3 0100     		.2byte	0x1
 6762 08b5 51       		.byte	0x51
 6763 08b6 0D000000 		.4byte	.LVL150-1
 6764 08ba 14000000 		.4byte	.LFE35
 6765 08be 0400     		.2byte	0x4
 6766 08c0 F3       		.byte	0xf3
 6767 08c1 01       		.uleb128 0x1
 6768 08c2 51       		.byte	0x51
 6769 08c3 9F       		.byte	0x9f
 6770 08c4 00000000 		.4byte	0
 6771 08c8 00000000 		.4byte	0
 6772              	.LLST68:
 6773 08cc 00000000 		.4byte	.LFB36
 6774 08d0 02000000 		.4byte	.LCFI25
 6775 08d4 0200     		.2byte	0x2
 6776 08d6 7D       		.byte	0x7d
 6777 08d7 00       		.sleb128 0
 6778 08d8 02000000 		.4byte	.LCFI25
 6779 08dc 14000000 		.4byte	.LFE36
 6780 08e0 0200     		.2byte	0x2
 6781 08e2 7D       		.byte	0x7d
 6782 08e3 08       		.sleb128 8
 6783 08e4 00000000 		.4byte	0
 6784 08e8 00000000 		.4byte	0
 6785              	.LLST69:
 6786 08ec 00000000 		.4byte	.LVL151
 6787 08f0 06000000 		.4byte	.LVL152
 6788 08f4 0100     		.2byte	0x1
 6789 08f6 50       		.byte	0x50
 6790 08f7 06000000 		.4byte	.LVL152
 6791 08fb 14000000 		.4byte	.LFE36
 6792 08ff 0400     		.2byte	0x4
 6793 0901 F3       		.byte	0xf3
 6794 0902 01       		.uleb128 0x1
 6795 0903 50       		.byte	0x50
 6796 0904 9F       		.byte	0x9f
 6797 0905 00000000 		.4byte	0
 6798 0909 00000000 		.4byte	0
 6799              	.LLST70:
 6800 090d 00000000 		.4byte	.LVL151
 6801 0911 0D000000 		.4byte	.LVL153-1
 6802 0915 0100     		.2byte	0x1
 6803 0917 51       		.byte	0x51
 6804 0918 0D000000 		.4byte	.LVL153-1
 6805 091c 14000000 		.4byte	.LFE36
 6806 0920 0400     		.2byte	0x4
 6807 0922 F3       		.byte	0xf3
 6808 0923 01       		.uleb128 0x1
 6809 0924 51       		.byte	0x51
 6810 0925 9F       		.byte	0x9f
 6811 0926 00000000 		.4byte	0
 6812 092a 00000000 		.4byte	0
 6813              	.LLST71:
 6814 092e 00000000 		.4byte	.LFB37
 6815 0932 02000000 		.4byte	.LCFI26
 6816 0936 0200     		.2byte	0x2
 6817 0938 7D       		.byte	0x7d
ARM GAS  C:\Users\atsu\AppData\Local\Temp\ccDwwNoN.s 			page 135


 6818 0939 00       		.sleb128 0
 6819 093a 02000000 		.4byte	.LCFI26
 6820 093e 14000000 		.4byte	.LFE37
 6821 0942 0200     		.2byte	0x2
 6822 0944 7D       		.byte	0x7d
 6823 0945 08       		.sleb128 8
 6824 0946 00000000 		.4byte	0
 6825 094a 00000000 		.4byte	0
 6826              	.LLST72:
 6827 094e 00000000 		.4byte	.LVL154
 6828 0952 06000000 		.4byte	.LVL155
 6829 0956 0100     		.2byte	0x1
 6830 0958 50       		.byte	0x50
 6831 0959 06000000 		.4byte	.LVL155
 6832 095d 14000000 		.4byte	.LFE37
 6833 0961 0400     		.2byte	0x4
 6834 0963 F3       		.byte	0xf3
 6835 0964 01       		.uleb128 0x1
 6836 0965 50       		.byte	0x50
 6837 0966 9F       		.byte	0x9f
 6838 0967 00000000 		.4byte	0
 6839 096b 00000000 		.4byte	0
 6840              	.LLST73:
 6841 096f 00000000 		.4byte	.LFB38
 6842 0973 02000000 		.4byte	.LCFI27
 6843 0977 0200     		.2byte	0x2
 6844 0979 7D       		.byte	0x7d
 6845 097a 00       		.sleb128 0
 6846 097b 02000000 		.4byte	.LCFI27
 6847 097f 14000000 		.4byte	.LFE38
 6848 0983 0200     		.2byte	0x2
 6849 0985 7D       		.byte	0x7d
 6850 0986 08       		.sleb128 8
 6851 0987 00000000 		.4byte	0
 6852 098b 00000000 		.4byte	0
 6853              	.LLST74:
 6854 098f 00000000 		.4byte	.LVL157
 6855 0993 06000000 		.4byte	.LVL158
 6856 0997 0100     		.2byte	0x1
 6857 0999 50       		.byte	0x50
 6858 099a 06000000 		.4byte	.LVL158
 6859 099e 14000000 		.4byte	.LFE38
 6860 09a2 0400     		.2byte	0x4
 6861 09a4 F3       		.byte	0xf3
 6862 09a5 01       		.uleb128 0x1
 6863 09a6 50       		.byte	0x50
 6864 09a7 9F       		.byte	0x9f
 6865 09a8 00000000 		.4byte	0
 6866 09ac 00000000 		.4byte	0
 6867              	.LLST75:
 6868 09b0 00000000 		.4byte	.LFB39
 6869 09b4 02000000 		.4byte	.LCFI28
 6870 09b8 0200     		.2byte	0x2
 6871 09ba 7D       		.byte	0x7d
 6872 09bb 00       		.sleb128 0
 6873 09bc 02000000 		.4byte	.LCFI28
 6874 09c0 4A000000 		.4byte	.LFE39
ARM GAS  C:\Users\atsu\AppData\Local\Temp\ccDwwNoN.s 			page 136


 6875 09c4 0200     		.2byte	0x2
 6876 09c6 7D       		.byte	0x7d
 6877 09c7 18       		.sleb128 24
 6878 09c8 00000000 		.4byte	0
 6879 09cc 00000000 		.4byte	0
 6880              	.LLST76:
 6881 09d0 00000000 		.4byte	.LVL160
 6882 09d4 08000000 		.4byte	.LVL161
 6883 09d8 0100     		.2byte	0x1
 6884 09da 50       		.byte	0x50
 6885 09db 08000000 		.4byte	.LVL161
 6886 09df 4A000000 		.4byte	.LFE39
 6887 09e3 0400     		.2byte	0x4
 6888 09e5 F3       		.byte	0xf3
 6889 09e6 01       		.uleb128 0x1
 6890 09e7 50       		.byte	0x50
 6891 09e8 9F       		.byte	0x9f
 6892 09e9 00000000 		.4byte	0
 6893 09ed 00000000 		.4byte	0
 6894              	.LLST77:
 6895 09f1 00000000 		.4byte	.LVL160
 6896 09f5 16000000 		.4byte	.LVL162
 6897 09f9 0200     		.2byte	0x2
 6898 09fb 30       		.byte	0x30
 6899 09fc 9F       		.byte	0x9f
 6900 09fd 16000000 		.4byte	.LVL162
 6901 0a01 34000000 		.4byte	.LVL167
 6902 0a05 0100     		.2byte	0x1
 6903 0a07 54       		.byte	0x54
 6904 0a08 34000000 		.4byte	.LVL167
 6905 0a0c 38000000 		.4byte	.LVL168
 6906 0a10 0600     		.2byte	0x6
 6907 0a12 70       		.byte	0x70
 6908 0a13 00       		.sleb128 0
 6909 0a14 08       		.byte	0x8
 6910 0a15 FF       		.byte	0xff
 6911 0a16 1A       		.byte	0x1a
 6912 0a17 9F       		.byte	0x9f
 6913 0a18 42000000 		.4byte	.LVL170
 6914 0a1c 48000000 		.4byte	.LVL171
 6915 0a20 0100     		.2byte	0x1
 6916 0a22 54       		.byte	0x54
 6917 0a23 48000000 		.4byte	.LVL171
 6918 0a27 4A000000 		.4byte	.LFE39
 6919 0a2b 0100     		.2byte	0x1
 6920 0a2d 50       		.byte	0x50
 6921 0a2e 00000000 		.4byte	0
 6922 0a32 00000000 		.4byte	0
 6923              	.LLST78:
 6924 0a36 00000000 		.4byte	.LVL160
 6925 0a3a 16000000 		.4byte	.LVL162
 6926 0a3e 0200     		.2byte	0x2
 6927 0a40 30       		.byte	0x30
 6928 0a41 9F       		.byte	0x9f
 6929 0a42 1C000000 		.4byte	.LVL163
 6930 0a46 20000000 		.4byte	.LVL164
 6931 0a4a 0600     		.2byte	0x6
ARM GAS  C:\Users\atsu\AppData\Local\Temp\ccDwwNoN.s 			page 137


 6932 0a4c 70       		.byte	0x70
 6933 0a4d 00       		.sleb128 0
 6934 0a4e 08       		.byte	0x8
 6935 0a4f FF       		.byte	0xff
 6936 0a50 1A       		.byte	0x1a
 6937 0a51 9F       		.byte	0x9f
 6938 0a52 2A000000 		.4byte	.LVL166
 6939 0a56 33000000 		.4byte	.LVL167-1
 6940 0a5a 0100     		.2byte	0x1
 6941 0a5c 52       		.byte	0x52
 6942 0a5d 33000000 		.4byte	.LVL167-1
 6943 0a61 48000000 		.4byte	.LVL172
 6944 0a65 0100     		.2byte	0x1
 6945 0a67 55       		.byte	0x55
 6946 0a68 00000000 		.4byte	0
 6947 0a6c 00000000 		.4byte	0
 6948              	.LLST79:
 6949 0a70 00000000 		.4byte	.LFB40
 6950 0a74 02000000 		.4byte	.LCFI29
 6951 0a78 0200     		.2byte	0x2
 6952 0a7a 7D       		.byte	0x7d
 6953 0a7b 00       		.sleb128 0
 6954 0a7c 02000000 		.4byte	.LCFI29
 6955 0a80 4A000000 		.4byte	.LFE40
 6956 0a84 0200     		.2byte	0x2
 6957 0a86 7D       		.byte	0x7d
 6958 0a87 18       		.sleb128 24
 6959 0a88 00000000 		.4byte	0
 6960 0a8c 00000000 		.4byte	0
 6961              	.LLST80:
 6962 0a90 00000000 		.4byte	.LVL173
 6963 0a94 08000000 		.4byte	.LVL174
 6964 0a98 0100     		.2byte	0x1
 6965 0a9a 50       		.byte	0x50
 6966 0a9b 08000000 		.4byte	.LVL174
 6967 0a9f 4A000000 		.4byte	.LFE40
 6968 0aa3 0400     		.2byte	0x4
 6969 0aa5 F3       		.byte	0xf3
 6970 0aa6 01       		.uleb128 0x1
 6971 0aa7 50       		.byte	0x50
 6972 0aa8 9F       		.byte	0x9f
 6973 0aa9 00000000 		.4byte	0
 6974 0aad 00000000 		.4byte	0
 6975              	.LLST81:
 6976 0ab1 00000000 		.4byte	.LVL173
 6977 0ab5 16000000 		.4byte	.LVL175
 6978 0ab9 0200     		.2byte	0x2
 6979 0abb 30       		.byte	0x30
 6980 0abc 9F       		.byte	0x9f
 6981 0abd 16000000 		.4byte	.LVL175
 6982 0ac1 34000000 		.4byte	.LVL180
 6983 0ac5 0100     		.2byte	0x1
 6984 0ac7 54       		.byte	0x54
 6985 0ac8 34000000 		.4byte	.LVL180
 6986 0acc 38000000 		.4byte	.LVL181
 6987 0ad0 0600     		.2byte	0x6
 6988 0ad2 70       		.byte	0x70
ARM GAS  C:\Users\atsu\AppData\Local\Temp\ccDwwNoN.s 			page 138


 6989 0ad3 00       		.sleb128 0
 6990 0ad4 08       		.byte	0x8
 6991 0ad5 FF       		.byte	0xff
 6992 0ad6 1A       		.byte	0x1a
 6993 0ad7 9F       		.byte	0x9f
 6994 0ad8 42000000 		.4byte	.LVL183
 6995 0adc 48000000 		.4byte	.LVL184
 6996 0ae0 0100     		.2byte	0x1
 6997 0ae2 54       		.byte	0x54
 6998 0ae3 48000000 		.4byte	.LVL184
 6999 0ae7 4A000000 		.4byte	.LFE40
 7000 0aeb 0100     		.2byte	0x1
 7001 0aed 50       		.byte	0x50
 7002 0aee 00000000 		.4byte	0
 7003 0af2 00000000 		.4byte	0
 7004              	.LLST82:
 7005 0af6 00000000 		.4byte	.LVL173
 7006 0afa 16000000 		.4byte	.LVL175
 7007 0afe 0200     		.2byte	0x2
 7008 0b00 30       		.byte	0x30
 7009 0b01 9F       		.byte	0x9f
 7010 0b02 1C000000 		.4byte	.LVL176
 7011 0b06 20000000 		.4byte	.LVL177
 7012 0b0a 0600     		.2byte	0x6
 7013 0b0c 70       		.byte	0x70
 7014 0b0d 00       		.sleb128 0
 7015 0b0e 08       		.byte	0x8
 7016 0b0f FF       		.byte	0xff
 7017 0b10 1A       		.byte	0x1a
 7018 0b11 9F       		.byte	0x9f
 7019 0b12 2A000000 		.4byte	.LVL179
 7020 0b16 33000000 		.4byte	.LVL180-1
 7021 0b1a 0100     		.2byte	0x1
 7022 0b1c 52       		.byte	0x52
 7023 0b1d 33000000 		.4byte	.LVL180-1
 7024 0b21 48000000 		.4byte	.LVL185
 7025 0b25 0100     		.2byte	0x1
 7026 0b27 55       		.byte	0x55
 7027 0b28 00000000 		.4byte	0
 7028 0b2c 00000000 		.4byte	0
 7029              	.LLST83:
 7030 0b30 00000000 		.4byte	.LFB43
 7031 0b34 02000000 		.4byte	.LCFI30
 7032 0b38 0200     		.2byte	0x2
 7033 0b3a 7D       		.byte	0x7d
 7034 0b3b 00       		.sleb128 0
 7035 0b3c 02000000 		.4byte	.LCFI30
 7036 0b40 44000000 		.4byte	.LFE43
 7037 0b44 0200     		.2byte	0x2
 7038 0b46 7D       		.byte	0x7d
 7039 0b47 18       		.sleb128 24
 7040 0b48 00000000 		.4byte	0
 7041 0b4c 00000000 		.4byte	0
 7042              	.LLST84:
 7043 0b50 00000000 		.4byte	.LVL186
 7044 0b54 06000000 		.4byte	.LVL187
 7045 0b58 0100     		.2byte	0x1
ARM GAS  C:\Users\atsu\AppData\Local\Temp\ccDwwNoN.s 			page 139


 7046 0b5a 50       		.byte	0x50
 7047 0b5b 06000000 		.4byte	.LVL187
 7048 0b5f 44000000 		.4byte	.LFE43
 7049 0b63 0400     		.2byte	0x4
 7050 0b65 F3       		.byte	0xf3
 7051 0b66 01       		.uleb128 0x1
 7052 0b67 50       		.byte	0x50
 7053 0b68 9F       		.byte	0x9f
 7054 0b69 00000000 		.4byte	0
 7055 0b6d 00000000 		.4byte	0
 7056              	.LLST85:
 7057 0b71 00000000 		.4byte	.LVL186
 7058 0b75 0E000000 		.4byte	.LVL188
 7059 0b79 0100     		.2byte	0x1
 7060 0b7b 51       		.byte	0x51
 7061 0b7c 0E000000 		.4byte	.LVL188
 7062 0b80 2A000000 		.4byte	.LVL196
 7063 0b84 0100     		.2byte	0x1
 7064 0b86 56       		.byte	0x56
 7065 0b87 2A000000 		.4byte	.LVL196
 7066 0b8b 2E000000 		.4byte	.LVL197
 7067 0b8f 0A00     		.2byte	0xa
 7068 0b91 77       		.byte	0x77
 7069 0b92 00       		.sleb128 0
 7070 0b93 0A       		.byte	0xa
 7071 0b94 FFFF     		.2byte	0xffff
 7072 0b96 1A       		.byte	0x1a
 7073 0b97 76       		.byte	0x76
 7074 0b98 00       		.sleb128 0
 7075 0b99 22       		.byte	0x22
 7076 0b9a 9F       		.byte	0x9f
 7077 0b9b 2E000000 		.4byte	.LVL197
 7078 0b9f 34000000 		.4byte	.LVL198
 7079 0ba3 0B00     		.2byte	0xb
 7080 0ba5 77       		.byte	0x77
 7081 0ba6 00       		.sleb128 0
 7082 0ba7 0A       		.byte	0xa
 7083 0ba8 FFFF     		.2byte	0xffff
 7084 0baa 1A       		.byte	0x1a
 7085 0bab F3       		.byte	0xf3
 7086 0bac 01       		.uleb128 0x1
 7087 0bad 51       		.byte	0x51
 7088 0bae 22       		.byte	0x22
 7089 0baf 9F       		.byte	0x9f
 7090 0bb0 34000000 		.4byte	.LVL198
 7091 0bb4 38000000 		.4byte	.LVL200
 7092 0bb8 0100     		.2byte	0x1
 7093 0bba 56       		.byte	0x56
 7094 0bbb 00000000 		.4byte	0
 7095 0bbf 00000000 		.4byte	0
 7096              	.LLST86:
 7097 0bc3 00000000 		.4byte	.LVL186
 7098 0bc7 10000000 		.4byte	.LVL189
 7099 0bcb 0100     		.2byte	0x1
 7100 0bcd 52       		.byte	0x52
 7101 0bce 10000000 		.4byte	.LVL189
 7102 0bd2 44000000 		.4byte	.LFE43
ARM GAS  C:\Users\atsu\AppData\Local\Temp\ccDwwNoN.s 			page 140


 7103 0bd6 0400     		.2byte	0x4
 7104 0bd8 F3       		.byte	0xf3
 7105 0bd9 01       		.uleb128 0x1
 7106 0bda 52       		.byte	0x52
 7107 0bdb 9F       		.byte	0x9f
 7108 0bdc 00000000 		.4byte	0
 7109 0be0 00000000 		.4byte	0
 7110              	.LLST87:
 7111 0be4 00000000 		.4byte	.LVL186
 7112 0be8 18000000 		.4byte	.LVL191
 7113 0bec 0100     		.2byte	0x1
 7114 0bee 53       		.byte	0x53
 7115 0bef 18000000 		.4byte	.LVL191
 7116 0bf3 44000000 		.4byte	.LFE43
 7117 0bf7 0400     		.2byte	0x4
 7118 0bf9 F3       		.byte	0xf3
 7119 0bfa 01       		.uleb128 0x1
 7120 0bfb 53       		.byte	0x53
 7121 0bfc 9F       		.byte	0x9f
 7122 0bfd 00000000 		.4byte	0
 7123 0c01 00000000 		.4byte	0
 7124              	.LLST88:
 7125 0c05 22000000 		.4byte	.LVL194
 7126 0c09 29000000 		.4byte	.LVL196-1
 7127 0c0d 0100     		.2byte	0x1
 7128 0c0f 52       		.byte	0x52
 7129 0c10 29000000 		.4byte	.LVL196-1
 7130 0c14 2A000000 		.4byte	.LVL196
 7131 0c18 0100     		.2byte	0x1
 7132 0c1a 57       		.byte	0x57
 7133 0c1b 2A000000 		.4byte	.LVL196
 7134 0c1f 34000000 		.4byte	.LVL198
 7135 0c23 0600     		.2byte	0x6
 7136 0c25 75       		.byte	0x75
 7137 0c26 00       		.sleb128 0
 7138 0c27 77       		.byte	0x77
 7139 0c28 00       		.sleb128 0
 7140 0c29 1C       		.byte	0x1c
 7141 0c2a 9F       		.byte	0x9f
 7142 0c2b 00000000 		.4byte	0
 7143 0c2f 00000000 		.4byte	0
 7144              	.LLST89:
 7145 0c33 10000000 		.4byte	.LVL189
 7146 0c37 20000000 		.4byte	.LVL193
 7147 0c3b 0100     		.2byte	0x1
 7148 0c3d 52       		.byte	0x52
 7149 0c3e 20000000 		.4byte	.LVL193
 7150 0c42 29000000 		.4byte	.LVL196-1
 7151 0c46 0D00     		.2byte	0xd
 7152 0c48 74       		.byte	0x74
 7153 0c49 1C       		.sleb128 28
 7154 0c4a 94       		.byte	0x94
 7155 0c4b 02       		.byte	0x2
 7156 0c4c 0A       		.byte	0xa
 7157 0c4d FFFF     		.2byte	0xffff
 7158 0c4f 1A       		.byte	0x1a
 7159 0c50 F3       		.byte	0xf3
ARM GAS  C:\Users\atsu\AppData\Local\Temp\ccDwwNoN.s 			page 141


 7160 0c51 01       		.uleb128 0x1
 7161 0c52 52       		.byte	0x52
 7162 0c53 1A       		.byte	0x1a
 7163 0c54 9F       		.byte	0x9f
 7164 0c55 34000000 		.4byte	.LVL198
 7165 0c59 38000000 		.4byte	.LVL200
 7166 0c5d 0100     		.2byte	0x1
 7167 0c5f 52       		.byte	0x52
 7168 0c60 00000000 		.4byte	0
 7169 0c64 00000000 		.4byte	0
 7170              	.LLST90:
 7171 0c68 16000000 		.4byte	.LVL190
 7172 0c6c 1A000000 		.4byte	.LVL192
 7173 0c70 0100     		.2byte	0x1
 7174 0c72 50       		.byte	0x50
 7175 0c73 1A000000 		.4byte	.LVL192
 7176 0c77 20000000 		.4byte	.LVL193
 7177 0c7b 0600     		.2byte	0x6
 7178 0c7d 71       		.byte	0x71
 7179 0c7e 00       		.sleb128 0
 7180 0c7f 72       		.byte	0x72
 7181 0c80 00       		.sleb128 0
 7182 0c81 22       		.byte	0x22
 7183 0c82 9F       		.byte	0x9f
 7184 0c83 20000000 		.4byte	.LVL193
 7185 0c87 24000000 		.4byte	.LVL195
 7186 0c8b 1000     		.2byte	0x10
 7187 0c8d 74       		.byte	0x74
 7188 0c8e 1C       		.sleb128 28
 7189 0c8f 94       		.byte	0x94
 7190 0c90 02       		.byte	0x2
 7191 0c91 0A       		.byte	0xa
 7192 0c92 FFFF     		.2byte	0xffff
 7193 0c94 1A       		.byte	0x1a
 7194 0c95 F3       		.byte	0xf3
 7195 0c96 01       		.uleb128 0x1
 7196 0c97 52       		.byte	0x52
 7197 0c98 1A       		.byte	0x1a
 7198 0c99 71       		.byte	0x71
 7199 0c9a 00       		.sleb128 0
 7200 0c9b 22       		.byte	0x22
 7201 0c9c 9F       		.byte	0x9f
 7202 0c9d 24000000 		.4byte	.LVL195
 7203 0ca1 29000000 		.4byte	.LVL196-1
 7204 0ca5 1600     		.2byte	0x16
 7205 0ca7 74       		.byte	0x74
 7206 0ca8 1C       		.sleb128 28
 7207 0ca9 94       		.byte	0x94
 7208 0caa 02       		.byte	0x2
 7209 0cab 0A       		.byte	0xa
 7210 0cac FFFF     		.2byte	0xffff
 7211 0cae 1A       		.byte	0x1a
 7212 0caf F3       		.byte	0xf3
 7213 0cb0 01       		.uleb128 0x1
 7214 0cb1 52       		.byte	0x52
 7215 0cb2 1A       		.byte	0x1a
 7216 0cb3 74       		.byte	0x74
ARM GAS  C:\Users\atsu\AppData\Local\Temp\ccDwwNoN.s 			page 142


 7217 0cb4 2C       		.sleb128 44
 7218 0cb5 94       		.byte	0x94
 7219 0cb6 02       		.byte	0x2
 7220 0cb7 0A       		.byte	0xa
 7221 0cb8 FFFF     		.2byte	0xffff
 7222 0cba 1A       		.byte	0x1a
 7223 0cbb 22       		.byte	0x22
 7224 0cbc 9F       		.byte	0x9f
 7225 0cbd 34000000 		.4byte	.LVL198
 7226 0cc1 36000000 		.4byte	.LVL199
 7227 0cc5 0600     		.2byte	0x6
 7228 0cc7 71       		.byte	0x71
 7229 0cc8 00       		.sleb128 0
 7230 0cc9 72       		.byte	0x72
 7231 0cca 00       		.sleb128 0
 7232 0ccb 22       		.byte	0x22
 7233 0ccc 9F       		.byte	0x9f
 7234 0ccd 36000000 		.4byte	.LVL199
 7235 0cd1 38000000 		.4byte	.LVL200
 7236 0cd5 0C00     		.2byte	0xc
 7237 0cd7 74       		.byte	0x74
 7238 0cd8 2C       		.sleb128 44
 7239 0cd9 94       		.byte	0x94
 7240 0cda 02       		.byte	0x2
 7241 0cdb 0A       		.byte	0xa
 7242 0cdc FFFF     		.2byte	0xffff
 7243 0cde 1A       		.byte	0x1a
 7244 0cdf 72       		.byte	0x72
 7245 0ce0 00       		.sleb128 0
 7246 0ce1 22       		.byte	0x22
 7247 0ce2 9F       		.byte	0x9f
 7248 0ce3 00000000 		.4byte	0
 7249 0ce7 00000000 		.4byte	0
 7250              	.LLST91:
 7251 0ceb 00000000 		.4byte	.LVL186
 7252 0cef 06000000 		.4byte	.LVL187
 7253 0cf3 0100     		.2byte	0x1
 7254 0cf5 50       		.byte	0x50
 7255 0cf6 00000000 		.4byte	0
 7256 0cfa 00000000 		.4byte	0
 7257              	.LLST92:
 7258 0cfe 00000000 		.4byte	.LFB41
 7259 0d02 02000000 		.4byte	.LCFI31
 7260 0d06 0200     		.2byte	0x2
 7261 0d08 7D       		.byte	0x7d
 7262 0d09 00       		.sleb128 0
 7263 0d0a 02000000 		.4byte	.LCFI31
 7264 0d0e 52000000 		.4byte	.LFE41
 7265 0d12 0200     		.2byte	0x2
 7266 0d14 7D       		.byte	0x7d
 7267 0d15 20       		.sleb128 32
 7268 0d16 00000000 		.4byte	0
 7269 0d1a 00000000 		.4byte	0
 7270              	.LLST93:
 7271 0d1e 00000000 		.4byte	.LVL202
 7272 0d22 0A000000 		.4byte	.LVL203
 7273 0d26 0100     		.2byte	0x1
ARM GAS  C:\Users\atsu\AppData\Local\Temp\ccDwwNoN.s 			page 143


 7274 0d28 50       		.byte	0x50
 7275 0d29 0A000000 		.4byte	.LVL203
 7276 0d2d 52000000 		.4byte	.LFE41
 7277 0d31 0400     		.2byte	0x4
 7278 0d33 F3       		.byte	0xf3
 7279 0d34 01       		.uleb128 0x1
 7280 0d35 50       		.byte	0x50
 7281 0d36 9F       		.byte	0x9f
 7282 0d37 00000000 		.4byte	0
 7283 0d3b 00000000 		.4byte	0
 7284              	.LLST94:
 7285 0d3f 00000000 		.4byte	.LVL202
 7286 0d43 1B000000 		.4byte	.LVL204-1
 7287 0d47 0100     		.2byte	0x1
 7288 0d49 51       		.byte	0x51
 7289 0d4a 1B000000 		.4byte	.LVL204-1
 7290 0d4e 52000000 		.4byte	.LFE41
 7291 0d52 0200     		.2byte	0x2
 7292 0d54 91       		.byte	0x91
 7293 0d55 64       		.sleb128 -28
 7294 0d56 00000000 		.4byte	0
 7295 0d5a 00000000 		.4byte	0
 7296              	.LLST95:
 7297 0d5e 00000000 		.4byte	.LVL202
 7298 0d62 1B000000 		.4byte	.LVL204-1
 7299 0d66 0100     		.2byte	0x1
 7300 0d68 52       		.byte	0x52
 7301 0d69 1B000000 		.4byte	.LVL204-1
 7302 0d6d 52000000 		.4byte	.LFE41
 7303 0d71 0400     		.2byte	0x4
 7304 0d73 F3       		.byte	0xf3
 7305 0d74 01       		.uleb128 0x1
 7306 0d75 52       		.byte	0x52
 7307 0d76 9F       		.byte	0x9f
 7308 0d77 00000000 		.4byte	0
 7309 0d7b 00000000 		.4byte	0
 7310              	.LLST96:
 7311 0d7f 1C000000 		.4byte	.LVL204
 7312 0d83 24000000 		.4byte	.LVL205
 7313 0d87 0600     		.2byte	0x6
 7314 0d89 70       		.byte	0x70
 7315 0d8a 00       		.sleb128 0
 7316 0d8b 08       		.byte	0x8
 7317 0d8c FF       		.byte	0xff
 7318 0d8d 1A       		.byte	0x1a
 7319 0d8e 9F       		.byte	0x9f
 7320 0d8f 2E000000 		.4byte	.LVL207
 7321 0d93 34000000 		.4byte	.LVL208
 7322 0d97 0100     		.2byte	0x1
 7323 0d99 51       		.byte	0x51
 7324 0d9a 34000000 		.4byte	.LVL208
 7325 0d9e 39000000 		.4byte	.LVL209-1
 7326 0da2 0100     		.2byte	0x1
 7327 0da4 52       		.byte	0x52
 7328 0da5 39000000 		.4byte	.LVL209-1
 7329 0da9 42000000 		.4byte	.LVL210
 7330 0dad 0100     		.2byte	0x1
ARM GAS  C:\Users\atsu\AppData\Local\Temp\ccDwwNoN.s 			page 144


 7331 0daf 56       		.byte	0x56
 7332 0db0 42000000 		.4byte	.LVL210
 7333 0db4 47000000 		.4byte	.LVL211-1
 7334 0db8 0100     		.2byte	0x1
 7335 0dba 52       		.byte	0x52
 7336 0dbb 47000000 		.4byte	.LVL211-1
 7337 0dbf 50000000 		.4byte	.LVL213
 7338 0dc3 0100     		.2byte	0x1
 7339 0dc5 57       		.byte	0x57
 7340 0dc6 00000000 		.4byte	0
 7341 0dca 00000000 		.4byte	0
 7342              	.LLST97:
 7343 0dce 00000000 		.4byte	.LFB44
 7344 0dd2 02000000 		.4byte	.LCFI32
 7345 0dd6 0200     		.2byte	0x2
 7346 0dd8 7D       		.byte	0x7d
 7347 0dd9 00       		.sleb128 0
 7348 0dda 02000000 		.4byte	.LCFI32
 7349 0dde 44000000 		.4byte	.LFE44
 7350 0de2 0200     		.2byte	0x2
 7351 0de4 7D       		.byte	0x7d
 7352 0de5 18       		.sleb128 24
 7353 0de6 00000000 		.4byte	0
 7354 0dea 00000000 		.4byte	0
 7355              	.LLST98:
 7356 0dee 00000000 		.4byte	.LVL214
 7357 0df2 06000000 		.4byte	.LVL215
 7358 0df6 0100     		.2byte	0x1
 7359 0df8 50       		.byte	0x50
 7360 0df9 06000000 		.4byte	.LVL215
 7361 0dfd 44000000 		.4byte	.LFE44
 7362 0e01 0400     		.2byte	0x4
 7363 0e03 F3       		.byte	0xf3
 7364 0e04 01       		.uleb128 0x1
 7365 0e05 50       		.byte	0x50
 7366 0e06 9F       		.byte	0x9f
 7367 0e07 00000000 		.4byte	0
 7368 0e0b 00000000 		.4byte	0
 7369              	.LLST99:
 7370 0e0f 00000000 		.4byte	.LVL214
 7371 0e13 10000000 		.4byte	.LVL217
 7372 0e17 0100     		.2byte	0x1
 7373 0e19 51       		.byte	0x51
 7374 0e1a 10000000 		.4byte	.LVL217
 7375 0e1e 44000000 		.4byte	.LFE44
 7376 0e22 0400     		.2byte	0x4
 7377 0e24 F3       		.byte	0xf3
 7378 0e25 01       		.uleb128 0x1
 7379 0e26 51       		.byte	0x51
 7380 0e27 9F       		.byte	0x9f
 7381 0e28 00000000 		.4byte	0
 7382 0e2c 00000000 		.4byte	0
 7383              	.LLST100:
 7384 0e30 00000000 		.4byte	.LVL214
 7385 0e34 0E000000 		.4byte	.LVL216
 7386 0e38 0100     		.2byte	0x1
 7387 0e3a 52       		.byte	0x52
ARM GAS  C:\Users\atsu\AppData\Local\Temp\ccDwwNoN.s 			page 145


 7388 0e3b 0E000000 		.4byte	.LVL216
 7389 0e3f 2A000000 		.4byte	.LVL225
 7390 0e43 0100     		.2byte	0x1
 7391 0e45 56       		.byte	0x56
 7392 0e46 2A000000 		.4byte	.LVL225
 7393 0e4a 2E000000 		.4byte	.LVL226
 7394 0e4e 0A00     		.2byte	0xa
 7395 0e50 77       		.byte	0x77
 7396 0e51 00       		.sleb128 0
 7397 0e52 0A       		.byte	0xa
 7398 0e53 FFFF     		.2byte	0xffff
 7399 0e55 1A       		.byte	0x1a
 7400 0e56 76       		.byte	0x76
 7401 0e57 00       		.sleb128 0
 7402 0e58 22       		.byte	0x22
 7403 0e59 9F       		.byte	0x9f
 7404 0e5a 2E000000 		.4byte	.LVL226
 7405 0e5e 34000000 		.4byte	.LVL227
 7406 0e62 0B00     		.2byte	0xb
 7407 0e64 77       		.byte	0x77
 7408 0e65 00       		.sleb128 0
 7409 0e66 0A       		.byte	0xa
 7410 0e67 FFFF     		.2byte	0xffff
 7411 0e69 1A       		.byte	0x1a
 7412 0e6a F3       		.byte	0xf3
 7413 0e6b 01       		.uleb128 0x1
 7414 0e6c 52       		.byte	0x52
 7415 0e6d 22       		.byte	0x22
 7416 0e6e 9F       		.byte	0x9f
 7417 0e6f 34000000 		.4byte	.LVL227
 7418 0e73 38000000 		.4byte	.LVL229
 7419 0e77 0100     		.2byte	0x1
 7420 0e79 56       		.byte	0x56
 7421 0e7a 00000000 		.4byte	0
 7422 0e7e 00000000 		.4byte	0
 7423              	.LLST101:
 7424 0e82 00000000 		.4byte	.LVL214
 7425 0e86 18000000 		.4byte	.LVL219
 7426 0e8a 0100     		.2byte	0x1
 7427 0e8c 53       		.byte	0x53
 7428 0e8d 18000000 		.4byte	.LVL219
 7429 0e91 44000000 		.4byte	.LFE44
 7430 0e95 0400     		.2byte	0x4
 7431 0e97 F3       		.byte	0xf3
 7432 0e98 01       		.uleb128 0x1
 7433 0e99 53       		.byte	0x53
 7434 0e9a 9F       		.byte	0x9f
 7435 0e9b 00000000 		.4byte	0
 7436 0e9f 00000000 		.4byte	0
 7437              	.LLST102:
 7438 0ea3 22000000 		.4byte	.LVL222
 7439 0ea7 26000000 		.4byte	.LVL224
 7440 0eab 0100     		.2byte	0x1
 7441 0ead 51       		.byte	0x51
 7442 0eae 26000000 		.4byte	.LVL224
 7443 0eb2 29000000 		.4byte	.LVL225-1
 7444 0eb6 0100     		.2byte	0x1
ARM GAS  C:\Users\atsu\AppData\Local\Temp\ccDwwNoN.s 			page 146


 7445 0eb8 52       		.byte	0x52
 7446 0eb9 29000000 		.4byte	.LVL225-1
 7447 0ebd 2A000000 		.4byte	.LVL225
 7448 0ec1 0100     		.2byte	0x1
 7449 0ec3 57       		.byte	0x57
 7450 0ec4 2A000000 		.4byte	.LVL225
 7451 0ec8 34000000 		.4byte	.LVL227
 7452 0ecc 0600     		.2byte	0x6
 7453 0ece 75       		.byte	0x75
 7454 0ecf 00       		.sleb128 0
 7455 0ed0 77       		.byte	0x77
 7456 0ed1 00       		.sleb128 0
 7457 0ed2 1C       		.byte	0x1c
 7458 0ed3 9F       		.byte	0x9f
 7459 0ed4 00000000 		.4byte	0
 7460 0ed8 00000000 		.4byte	0
 7461              	.LLST103:
 7462 0edc 10000000 		.4byte	.LVL217
 7463 0ee0 20000000 		.4byte	.LVL221
 7464 0ee4 0100     		.2byte	0x1
 7465 0ee6 51       		.byte	0x51
 7466 0ee7 20000000 		.4byte	.LVL221
 7467 0eeb 29000000 		.4byte	.LVL225-1
 7468 0eef 0D00     		.2byte	0xd
 7469 0ef1 74       		.byte	0x74
 7470 0ef2 14       		.sleb128 20
 7471 0ef3 94       		.byte	0x94
 7472 0ef4 02       		.byte	0x2
 7473 0ef5 0A       		.byte	0xa
 7474 0ef6 FFFF     		.2byte	0xffff
 7475 0ef8 1A       		.byte	0x1a
 7476 0ef9 F3       		.byte	0xf3
 7477 0efa 01       		.uleb128 0x1
 7478 0efb 51       		.byte	0x51
 7479 0efc 1A       		.byte	0x1a
 7480 0efd 9F       		.byte	0x9f
 7481 0efe 34000000 		.4byte	.LVL227
 7482 0f02 36000000 		.4byte	.LVL228
 7483 0f06 0100     		.2byte	0x1
 7484 0f08 51       		.byte	0x51
 7485 0f09 36000000 		.4byte	.LVL228
 7486 0f0d 38000000 		.4byte	.LVL229
 7487 0f11 0D00     		.2byte	0xd
 7488 0f13 74       		.byte	0x74
 7489 0f14 14       		.sleb128 20
 7490 0f15 94       		.byte	0x94
 7491 0f16 02       		.byte	0x2
 7492 0f17 0A       		.byte	0xa
 7493 0f18 FFFF     		.2byte	0xffff
 7494 0f1a 1A       		.byte	0x1a
 7495 0f1b F3       		.byte	0xf3
 7496 0f1c 01       		.uleb128 0x1
 7497 0f1d 51       		.byte	0x51
 7498 0f1e 1A       		.byte	0x1a
 7499 0f1f 9F       		.byte	0x9f
 7500 0f20 00000000 		.4byte	0
 7501 0f24 00000000 		.4byte	0
ARM GAS  C:\Users\atsu\AppData\Local\Temp\ccDwwNoN.s 			page 147


 7502              	.LLST104:
 7503 0f28 16000000 		.4byte	.LVL218
 7504 0f2c 1A000000 		.4byte	.LVL220
 7505 0f30 0100     		.2byte	0x1
 7506 0f32 50       		.byte	0x50
 7507 0f33 1A000000 		.4byte	.LVL220
 7508 0f37 20000000 		.4byte	.LVL221
 7509 0f3b 0600     		.2byte	0x6
 7510 0f3d 72       		.byte	0x72
 7511 0f3e 00       		.sleb128 0
 7512 0f3f 71       		.byte	0x71
 7513 0f40 00       		.sleb128 0
 7514 0f41 22       		.byte	0x22
 7515 0f42 9F       		.byte	0x9f
 7516 0f43 20000000 		.4byte	.LVL221
 7517 0f47 24000000 		.4byte	.LVL223
 7518 0f4b 1000     		.2byte	0x10
 7519 0f4d 74       		.byte	0x74
 7520 0f4e 14       		.sleb128 20
 7521 0f4f 94       		.byte	0x94
 7522 0f50 02       		.byte	0x2
 7523 0f51 0A       		.byte	0xa
 7524 0f52 FFFF     		.2byte	0xffff
 7525 0f54 1A       		.byte	0x1a
 7526 0f55 F3       		.byte	0xf3
 7527 0f56 01       		.uleb128 0x1
 7528 0f57 51       		.byte	0x51
 7529 0f58 1A       		.byte	0x1a
 7530 0f59 72       		.byte	0x72
 7531 0f5a 00       		.sleb128 0
 7532 0f5b 22       		.byte	0x22
 7533 0f5c 9F       		.byte	0x9f
 7534 0f5d 24000000 		.4byte	.LVL223
 7535 0f61 29000000 		.4byte	.LVL225-1
 7536 0f65 1600     		.2byte	0x16
 7537 0f67 74       		.byte	0x74
 7538 0f68 14       		.sleb128 20
 7539 0f69 94       		.byte	0x94
 7540 0f6a 02       		.byte	0x2
 7541 0f6b 0A       		.byte	0xa
 7542 0f6c FFFF     		.2byte	0xffff
 7543 0f6e 1A       		.byte	0x1a
 7544 0f6f F3       		.byte	0xf3
 7545 0f70 01       		.uleb128 0x1
 7546 0f71 51       		.byte	0x51
 7547 0f72 1A       		.byte	0x1a
 7548 0f73 74       		.byte	0x74
 7549 0f74 24       		.sleb128 36
 7550 0f75 94       		.byte	0x94
 7551 0f76 02       		.byte	0x2
 7552 0f77 0A       		.byte	0xa
 7553 0f78 FFFF     		.2byte	0xffff
 7554 0f7a 1A       		.byte	0x1a
 7555 0f7b 22       		.byte	0x22
 7556 0f7c 9F       		.byte	0x9f
 7557 0f7d 34000000 		.4byte	.LVL227
 7558 0f81 36000000 		.4byte	.LVL228
ARM GAS  C:\Users\atsu\AppData\Local\Temp\ccDwwNoN.s 			page 148


 7559 0f85 0600     		.2byte	0x6
 7560 0f87 72       		.byte	0x72
 7561 0f88 00       		.sleb128 0
 7562 0f89 71       		.byte	0x71
 7563 0f8a 00       		.sleb128 0
 7564 0f8b 22       		.byte	0x22
 7565 0f8c 9F       		.byte	0x9f
 7566 0f8d 36000000 		.4byte	.LVL228
 7567 0f91 38000000 		.4byte	.LVL229
 7568 0f95 1000     		.2byte	0x10
 7569 0f97 74       		.byte	0x74
 7570 0f98 14       		.sleb128 20
 7571 0f99 94       		.byte	0x94
 7572 0f9a 02       		.byte	0x2
 7573 0f9b 0A       		.byte	0xa
 7574 0f9c FFFF     		.2byte	0xffff
 7575 0f9e 1A       		.byte	0x1a
 7576 0f9f F3       		.byte	0xf3
 7577 0fa0 01       		.uleb128 0x1
 7578 0fa1 51       		.byte	0x51
 7579 0fa2 1A       		.byte	0x1a
 7580 0fa3 72       		.byte	0x72
 7581 0fa4 00       		.sleb128 0
 7582 0fa5 22       		.byte	0x22
 7583 0fa6 9F       		.byte	0x9f
 7584 0fa7 00000000 		.4byte	0
 7585 0fab 00000000 		.4byte	0
 7586              	.LLST105:
 7587 0faf 00000000 		.4byte	.LVL214
 7588 0fb3 06000000 		.4byte	.LVL215
 7589 0fb7 0100     		.2byte	0x1
 7590 0fb9 50       		.byte	0x50
 7591 0fba 00000000 		.4byte	0
 7592 0fbe 00000000 		.4byte	0
 7593              	.LLST106:
 7594 0fc2 00000000 		.4byte	.LFB42
 7595 0fc6 02000000 		.4byte	.LCFI33
 7596 0fca 0200     		.2byte	0x2
 7597 0fcc 7D       		.byte	0x7d
 7598 0fcd 00       		.sleb128 0
 7599 0fce 02000000 		.4byte	.LCFI33
 7600 0fd2 52000000 		.4byte	.LFE42
 7601 0fd6 0200     		.2byte	0x2
 7602 0fd8 7D       		.byte	0x7d
 7603 0fd9 20       		.sleb128 32
 7604 0fda 00000000 		.4byte	0
 7605 0fde 00000000 		.4byte	0
 7606              	.LLST107:
 7607 0fe2 00000000 		.4byte	.LVL231
 7608 0fe6 0A000000 		.4byte	.LVL232
 7609 0fea 0100     		.2byte	0x1
 7610 0fec 50       		.byte	0x50
 7611 0fed 0A000000 		.4byte	.LVL232
 7612 0ff1 52000000 		.4byte	.LFE42
 7613 0ff5 0400     		.2byte	0x4
 7614 0ff7 F3       		.byte	0xf3
 7615 0ff8 01       		.uleb128 0x1
ARM GAS  C:\Users\atsu\AppData\Local\Temp\ccDwwNoN.s 			page 149


 7616 0ff9 50       		.byte	0x50
 7617 0ffa 9F       		.byte	0x9f
 7618 0ffb 00000000 		.4byte	0
 7619 0fff 00000000 		.4byte	0
 7620              	.LLST108:
 7621 1003 00000000 		.4byte	.LVL231
 7622 1007 1B000000 		.4byte	.LVL233-1
 7623 100b 0100     		.2byte	0x1
 7624 100d 51       		.byte	0x51
 7625 100e 1B000000 		.4byte	.LVL233-1
 7626 1012 52000000 		.4byte	.LFE42
 7627 1016 0200     		.2byte	0x2
 7628 1018 91       		.byte	0x91
 7629 1019 64       		.sleb128 -28
 7630 101a 00000000 		.4byte	0
 7631 101e 00000000 		.4byte	0
 7632              	.LLST109:
 7633 1022 00000000 		.4byte	.LVL231
 7634 1026 1B000000 		.4byte	.LVL233-1
 7635 102a 0100     		.2byte	0x1
 7636 102c 52       		.byte	0x52
 7637 102d 1B000000 		.4byte	.LVL233-1
 7638 1031 52000000 		.4byte	.LFE42
 7639 1035 0400     		.2byte	0x4
 7640 1037 F3       		.byte	0xf3
 7641 1038 01       		.uleb128 0x1
 7642 1039 52       		.byte	0x52
 7643 103a 9F       		.byte	0x9f
 7644 103b 00000000 		.4byte	0
 7645 103f 00000000 		.4byte	0
 7646              	.LLST110:
 7647 1043 22000000 		.4byte	.LVL234
 7648 1047 24000000 		.4byte	.LVL235
 7649 104b 0600     		.2byte	0x6
 7650 104d 70       		.byte	0x70
 7651 104e 00       		.sleb128 0
 7652 104f 08       		.byte	0x8
 7653 1050 FF       		.byte	0xff
 7654 1051 1A       		.byte	0x1a
 7655 1052 9F       		.byte	0x9f
 7656 1053 24000000 		.4byte	.LVL235
 7657 1057 2E000000 		.4byte	.LVL237
 7658 105b 0600     		.2byte	0x6
 7659 105d 76       		.byte	0x76
 7660 105e 00       		.sleb128 0
 7661 105f 08       		.byte	0x8
 7662 1060 FF       		.byte	0xff
 7663 1061 1A       		.byte	0x1a
 7664 1062 9F       		.byte	0x9f
 7665 1063 2E000000 		.4byte	.LVL237
 7666 1067 32000000 		.4byte	.LVL238
 7667 106b 0100     		.2byte	0x1
 7668 106d 52       		.byte	0x52
 7669 106e 32000000 		.4byte	.LVL238
 7670 1072 42000000 		.4byte	.LVL240
 7671 1076 0100     		.2byte	0x1
 7672 1078 56       		.byte	0x56
ARM GAS  C:\Users\atsu\AppData\Local\Temp\ccDwwNoN.s 			page 150


 7673 1079 42000000 		.4byte	.LVL240
 7674 107d 50000000 		.4byte	.LVL243
 7675 1081 0100     		.2byte	0x1
 7676 1083 57       		.byte	0x57
 7677 1084 00000000 		.4byte	0
 7678 1088 00000000 		.4byte	0
 7679              		.section	.debug_aranges,"",%progbits
 7680 0000 7C010000 		.4byte	0x17c
 7681 0004 0200     		.2byte	0x2
 7682 0006 00000000 		.4byte	.Ldebug_info0
 7683 000a 04       		.byte	0x4
 7684 000b 00       		.byte	0
 7685 000c 0000     		.2byte	0
 7686 000e 0000     		.2byte	0
 7687 0010 00000000 		.4byte	.LFB0
 7688 0014 10000000 		.4byte	.LFE0-.LFB0
 7689 0018 00000000 		.4byte	.LFB1
 7690 001c 0C000000 		.4byte	.LFE1-.LFB1
 7691 0020 00000000 		.4byte	.LFB2
 7692 0024 0C000000 		.4byte	.LFE2-.LFB2
 7693 0028 00000000 		.4byte	.LFB3
 7694 002c 0C000000 		.4byte	.LFE3-.LFB3
 7695 0030 00000000 		.4byte	.LFB4
 7696 0034 10000000 		.4byte	.LFE4-.LFB4
 7697 0038 00000000 		.4byte	.LFB5
 7698 003c 10000000 		.4byte	.LFE5-.LFB5
 7699 0040 00000000 		.4byte	.LFB6
 7700 0044 10000000 		.4byte	.LFE6-.LFB6
 7701 0048 00000000 		.4byte	.LFB7
 7702 004c 10000000 		.4byte	.LFE7-.LFB7
 7703 0050 00000000 		.4byte	.LFB8
 7704 0054 10000000 		.4byte	.LFE8-.LFB8
 7705 0058 00000000 		.4byte	.LFB9
 7706 005c 10000000 		.4byte	.LFE9-.LFB9
 7707 0060 00000000 		.4byte	.LFB10
 7708 0064 08000000 		.4byte	.LFE10-.LFB10
 7709 0068 00000000 		.4byte	.LFB11
 7710 006c 08000000 		.4byte	.LFE11-.LFB11
 7711 0070 00000000 		.4byte	.LFB12
 7712 0074 08000000 		.4byte	.LFE12-.LFB12
 7713 0078 00000000 		.4byte	.LFB13
 7714 007c 30000000 		.4byte	.LFE13-.LFB13
 7715 0080 00000000 		.4byte	.LFB14
 7716 0084 30000000 		.4byte	.LFE14-.LFB14
 7717 0088 00000000 		.4byte	.LFB15
 7718 008c 48000000 		.4byte	.LFE15-.LFB15
 7719 0090 00000000 		.4byte	.LFB16
 7720 0094 44000000 		.4byte	.LFE16-.LFB16
 7721 0098 00000000 		.4byte	.LFB18
 7722 009c B8010000 		.4byte	.LFE18-.LFB18
 7723 00a0 00000000 		.4byte	.LFB19
 7724 00a4 26000000 		.4byte	.LFE19-.LFB19
 7725 00a8 00000000 		.4byte	.LFB20
 7726 00ac 28000000 		.4byte	.LFE20-.LFB20
 7727 00b0 00000000 		.4byte	.LFB21
 7728 00b4 38000000 		.4byte	.LFE21-.LFB21
 7729 00b8 00000000 		.4byte	.LFB23
ARM GAS  C:\Users\atsu\AppData\Local\Temp\ccDwwNoN.s 			page 151


 7730 00bc 36000000 		.4byte	.LFE23-.LFB23
 7731 00c0 00000000 		.4byte	.LFB24
 7732 00c4 26000000 		.4byte	.LFE24-.LFB24
 7733 00c8 00000000 		.4byte	.LFB25
 7734 00cc 26000000 		.4byte	.LFE25-.LFB25
 7735 00d0 00000000 		.4byte	.LFB26
 7736 00d4 28000000 		.4byte	.LFE26-.LFB26
 7737 00d8 00000000 		.4byte	.LFB27
 7738 00dc 36000000 		.4byte	.LFE27-.LFB27
 7739 00e0 00000000 		.4byte	.LFB28
 7740 00e4 26000000 		.4byte	.LFE28-.LFB28
 7741 00e8 00000000 		.4byte	.LFB22
 7742 00ec 58000000 		.4byte	.LFE22-.LFB22
 7743 00f0 00000000 		.4byte	.LFB29
 7744 00f4 0C000000 		.4byte	.LFE29-.LFB29
 7745 00f8 00000000 		.4byte	.LFB17
 7746 00fc 0A000000 		.4byte	.LFE17-.LFB17
 7747 0100 00000000 		.4byte	.LFB30
 7748 0104 0A000000 		.4byte	.LFE30-.LFB30
 7749 0108 00000000 		.4byte	.LFB31
 7750 010c 16000000 		.4byte	.LFE31-.LFB31
 7751 0110 00000000 		.4byte	.LFB32
 7752 0114 0C000000 		.4byte	.LFE32-.LFB32
 7753 0118 00000000 		.4byte	.LFB33
 7754 011c 0C000000 		.4byte	.LFE33-.LFB33
 7755 0120 00000000 		.4byte	.LFB34
 7756 0124 24000000 		.4byte	.LFE34-.LFB34
 7757 0128 00000000 		.4byte	.LFB35
 7758 012c 14000000 		.4byte	.LFE35-.LFB35
 7759 0130 00000000 		.4byte	.LFB36
 7760 0134 14000000 		.4byte	.LFE36-.LFB36
 7761 0138 00000000 		.4byte	.LFB37
 7762 013c 14000000 		.4byte	.LFE37-.LFB37
 7763 0140 00000000 		.4byte	.LFB38
 7764 0144 14000000 		.4byte	.LFE38-.LFB38
 7765 0148 00000000 		.4byte	.LFB39
 7766 014c 4A000000 		.4byte	.LFE39-.LFB39
 7767 0150 00000000 		.4byte	.LFB40
 7768 0154 4A000000 		.4byte	.LFE40-.LFB40
 7769 0158 00000000 		.4byte	.LFB43
 7770 015c 44000000 		.4byte	.LFE43-.LFB43
 7771 0160 00000000 		.4byte	.LFB41
 7772 0164 52000000 		.4byte	.LFE41-.LFB41
 7773 0168 00000000 		.4byte	.LFB44
 7774 016c 44000000 		.4byte	.LFE44-.LFB44
 7775 0170 00000000 		.4byte	.LFB42
 7776 0174 52000000 		.4byte	.LFE42-.LFB42
 7777 0178 00000000 		.4byte	0
 7778 017c 00000000 		.4byte	0
 7779              		.section	.debug_ranges,"",%progbits
 7780              	.Ldebug_ranges0:
 7781 0000 0A000000 		.4byte	.LBB63
 7782 0004 1C000000 		.4byte	.LBE63
 7783 0008 1E000000 		.4byte	.LBB68
 7784 000c 44000000 		.4byte	.LBE68
 7785 0010 00000000 		.4byte	0
 7786 0014 00000000 		.4byte	0
ARM GAS  C:\Users\atsu\AppData\Local\Temp\ccDwwNoN.s 			page 152


 7787 0018 00000000 		.4byte	.LFB0
 7788 001c 10000000 		.4byte	.LFE0
 7789 0020 00000000 		.4byte	.LFB1
 7790 0024 0C000000 		.4byte	.LFE1
 7791 0028 00000000 		.4byte	.LFB2
 7792 002c 0C000000 		.4byte	.LFE2
 7793 0030 00000000 		.4byte	.LFB3
 7794 0034 0C000000 		.4byte	.LFE3
 7795 0038 00000000 		.4byte	.LFB4
 7796 003c 10000000 		.4byte	.LFE4
 7797 0040 00000000 		.4byte	.LFB5
 7798 0044 10000000 		.4byte	.LFE5
 7799 0048 00000000 		.4byte	.LFB6
 7800 004c 10000000 		.4byte	.LFE6
 7801 0050 00000000 		.4byte	.LFB7
 7802 0054 10000000 		.4byte	.LFE7
 7803 0058 00000000 		.4byte	.LFB8
 7804 005c 10000000 		.4byte	.LFE8
 7805 0060 00000000 		.4byte	.LFB9
 7806 0064 10000000 		.4byte	.LFE9
 7807 0068 00000000 		.4byte	.LFB10
 7808 006c 08000000 		.4byte	.LFE10
 7809 0070 00000000 		.4byte	.LFB11
 7810 0074 08000000 		.4byte	.LFE11
 7811 0078 00000000 		.4byte	.LFB12
 7812 007c 08000000 		.4byte	.LFE12
 7813 0080 00000000 		.4byte	.LFB13
 7814 0084 30000000 		.4byte	.LFE13
 7815 0088 00000000 		.4byte	.LFB14
 7816 008c 30000000 		.4byte	.LFE14
 7817 0090 00000000 		.4byte	.LFB15
 7818 0094 48000000 		.4byte	.LFE15
 7819 0098 00000000 		.4byte	.LFB16
 7820 009c 44000000 		.4byte	.LFE16
 7821 00a0 00000000 		.4byte	.LFB18
 7822 00a4 B8010000 		.4byte	.LFE18
 7823 00a8 00000000 		.4byte	.LFB19
 7824 00ac 26000000 		.4byte	.LFE19
 7825 00b0 00000000 		.4byte	.LFB20
 7826 00b4 28000000 		.4byte	.LFE20
 7827 00b8 00000000 		.4byte	.LFB21
 7828 00bc 38000000 		.4byte	.LFE21
 7829 00c0 00000000 		.4byte	.LFB23
 7830 00c4 36000000 		.4byte	.LFE23
 7831 00c8 00000000 		.4byte	.LFB24
 7832 00cc 26000000 		.4byte	.LFE24
 7833 00d0 00000000 		.4byte	.LFB25
 7834 00d4 26000000 		.4byte	.LFE25
 7835 00d8 00000000 		.4byte	.LFB26
 7836 00dc 28000000 		.4byte	.LFE26
 7837 00e0 00000000 		.4byte	.LFB27
 7838 00e4 36000000 		.4byte	.LFE27
 7839 00e8 00000000 		.4byte	.LFB28
 7840 00ec 26000000 		.4byte	.LFE28
 7841 00f0 00000000 		.4byte	.LFB22
 7842 00f4 58000000 		.4byte	.LFE22
 7843 00f8 00000000 		.4byte	.LFB29
ARM GAS  C:\Users\atsu\AppData\Local\Temp\ccDwwNoN.s 			page 153


 7844 00fc 0C000000 		.4byte	.LFE29
 7845 0100 00000000 		.4byte	.LFB17
 7846 0104 0A000000 		.4byte	.LFE17
 7847 0108 00000000 		.4byte	.LFB30
 7848 010c 0A000000 		.4byte	.LFE30
 7849 0110 00000000 		.4byte	.LFB31
 7850 0114 16000000 		.4byte	.LFE31
 7851 0118 00000000 		.4byte	.LFB32
 7852 011c 0C000000 		.4byte	.LFE32
 7853 0120 00000000 		.4byte	.LFB33
 7854 0124 0C000000 		.4byte	.LFE33
 7855 0128 00000000 		.4byte	.LFB34
 7856 012c 24000000 		.4byte	.LFE34
 7857 0130 00000000 		.4byte	.LFB35
 7858 0134 14000000 		.4byte	.LFE35
 7859 0138 00000000 		.4byte	.LFB36
 7860 013c 14000000 		.4byte	.LFE36
 7861 0140 00000000 		.4byte	.LFB37
 7862 0144 14000000 		.4byte	.LFE37
 7863 0148 00000000 		.4byte	.LFB38
 7864 014c 14000000 		.4byte	.LFE38
 7865 0150 00000000 		.4byte	.LFB39
 7866 0154 4A000000 		.4byte	.LFE39
 7867 0158 00000000 		.4byte	.LFB40
 7868 015c 4A000000 		.4byte	.LFE40
 7869 0160 00000000 		.4byte	.LFB43
 7870 0164 44000000 		.4byte	.LFE43
 7871 0168 00000000 		.4byte	.LFB41
 7872 016c 52000000 		.4byte	.LFE41
 7873 0170 00000000 		.4byte	.LFB44
 7874 0174 44000000 		.4byte	.LFE44
 7875 0178 00000000 		.4byte	.LFB42
 7876 017c 52000000 		.4byte	.LFE42
 7877 0180 00000000 		.4byte	0
 7878 0184 00000000 		.4byte	0
 7879              		.section	.debug_line,"",%progbits
 7880              	.Ldebug_line0:
 7881 0000 9E050000 		.section	.debug_str,"MS",%progbits,1
 7881      0200E700 
 7881      00000201 
 7881      FB0E0D00 
 7881      01010101 
 7882              	.LASF67:
 7883 0000 67657453 		.ascii	"getSn_IR\000"
 7883      6E5F4952 
 7883      00
 7884              	.LASF18:
 7885 0009 534F434B 		.ascii	"SOCKET\000"
 7885      455400
 7886              	.LASF79:
 7887 0010 7372635F 		.ascii	"src_ptr\000"
 7887      70747200 
 7888              	.LASF40:
 7889 0018 72785F73 		.ascii	"rx_size\000"
 7889      697A6500 
 7890              	.LASF42:
 7891 0020 7273756D 		.ascii	"rsum\000"
ARM GAS  C:\Users\atsu\AppData\Local\Temp\ccDwwNoN.s 			page 154


 7891      00
 7892              	.LASF39:
 7893 0025 74785F73 		.ascii	"tx_size\000"
 7893      697A6500 
 7894              	.LASF93:
 7895 002d 7370695F 		.ascii	"spi_cs_low\000"
 7895      63735F6C 
 7895      6F7700
 7896              	.LASF62:
 7897 0038 73657453 		.ascii	"setSn_MSS\000"
 7897      6E5F4D53 
 7897      5300
 7898              	.LASF6:
 7899 0042 6C6F6E67 		.ascii	"long long unsigned int\000"
 7899      206C6F6E 
 7899      6720756E 
 7899      7369676E 
 7899      65642069 
 7900              	.LASF56:
 7901 0059 73657452 		.ascii	"setRTR\000"
 7901      545200
 7902              	.LASF50:
 7903 0060 67657453 		.ascii	"getSHAR\000"
 7903      48415200 
 7904              	.LASF23:
 7905 0068 61646472 		.ascii	"addr\000"
 7905      00
 7906              	.LASF20:
 7907 006d 49494E43 		.ascii	"IINCHIP_CSon\000"
 7907      4849505F 
 7907      43536F6E 
 7907      00
 7908              	.LASF87:
 7909 007a 52425546 		.ascii	"RBUFBASEADDRESS\000"
 7909      42415345 
 7909      41444452 
 7909      45535300 
 7910              	.LASF12:
 7911 008a 696E7431 		.ascii	"int16_t\000"
 7911      365F7400 
 7912              	.LASF65:
 7913 0092 73657453 		.ascii	"setSn_PROTO\000"
 7913      6E5F5052 
 7913      4F544F00 
 7914              	.LASF5:
 7915 009e 6C6F6E67 		.ascii	"long long int\000"
 7915      206C6F6E 
 7915      6720696E 
 7915      7400
 7916              	.LASF1:
 7917 00ac 7369676E 		.ascii	"signed char\000"
 7917      65642063 
 7917      68617200 
 7918              	.LASF91:
 7919 00b8 7072655F 		.ascii	"pre_sent_ptr\000"
 7919      73656E74 
 7919      5F707472 
ARM GAS  C:\Users\atsu\AppData\Local\Temp\ccDwwNoN.s 			page 155


 7919      00
 7920              	.LASF7:
 7921 00c5 6C6F6E67 		.ascii	"long int\000"
 7921      20696E74 
 7921      00
 7922              	.LASF63:
 7923 00ce 536E5F4D 		.ascii	"Sn_MSSR0\000"
 7923      53535230 
 7923      00
 7924              	.LASF77:
 7925 00d7 72656164 		.ascii	"read_data\000"
 7925      5F646174 
 7925      6100
 7926              	.LASF27:
 7927 00e1 67657449 		.ascii	"getIINCHIP_RxMASK\000"
 7927      494E4348 
 7927      49505F52 
 7927      784D4153 
 7927      4B00
 7928              	.LASF37:
 7929 00f3 77697A5F 		.ascii	"wiz_read_buf\000"
 7929      72656164 
 7929      5F627566 
 7929      00
 7930              	.LASF72:
 7931 0100 77726974 		.ascii	"write_data\000"
 7931      655F6461 
 7931      746100
 7932              	.LASF13:
 7933 010b 75696E74 		.ascii	"uint16_t\000"
 7933      31365F74 
 7933      00
 7934              	.LASF16:
 7935 0114 646F7562 		.ascii	"double\000"
 7935      6C6500
 7936              	.LASF38:
 7937 011b 73797369 		.ascii	"sysinit\000"
 7937      6E697400 
 7938              	.LASF84:
 7939 0123 5353495A 		.ascii	"SSIZE\000"
 7939      4500
 7940              	.LASF29:
 7941 0129 67657449 		.ascii	"getIINCHIP_RxMAX\000"
 7941      494E4348 
 7941      49505F52 
 7941      784D4158 
 7941      00
 7942              	.LASF61:
 7943 013a 6D61736B 		.ascii	"mask\000"
 7943      00
 7944              	.LASF74:
 7945 013f 6473745F 		.ascii	"dst_mask\000"
 7945      6D61736B 
 7945      00
 7946              	.LASF68:
 7947 0148 67657453 		.ascii	"getSn_SR\000"
 7947      6E5F5352 
ARM GAS  C:\Users\atsu\AppData\Local\Temp\ccDwwNoN.s 			page 156


 7947      00
 7948              	.LASF0:
 7949 0151 756E7369 		.ascii	"unsigned int\000"
 7949      676E6564 
 7949      20696E74 
 7949      00
 7950              	.LASF44:
 7951 015e 73617665 		.ascii	"saveSUBR\000"
 7951      53554252 
 7951      00
 7952              	.LASF54:
 7953 0167 69696E63 		.ascii	"iinchip_init\000"
 7953      6869705F 
 7953      696E6974 
 7953      00
 7954              	.LASF9:
 7955 0174 6C6F6E67 		.ascii	"long unsigned int\000"
 7955      20756E73 
 7955      69676E65 
 7955      6420696E 
 7955      7400
 7956              	.LASF45:
 7957 0186 73657453 		.ascii	"setSUBR\000"
 7957      55425200 
 7958              	.LASF57:
 7959 018e 74696D65 		.ascii	"timeout\000"
 7959      6F757400 
 7960              	.LASF88:
 7961 0196 5355424E 		.ascii	"SUBNET\000"
 7961      455400
 7962              	.LASF47:
 7963 019d 73657453 		.ascii	"setSIPR\000"
 7963      49505200 
 7964              	.LASF35:
 7965 01a5 64617461 		.ascii	"data\000"
 7965      00
 7966              	.LASF73:
 7967 01aa 73697A65 		.ascii	"size\000"
 7967      00
 7968              	.LASF4:
 7969 01af 73686F72 		.ascii	"short unsigned int\000"
 7969      7420756E 
 7969      7369676E 
 7969      65642069 
 7969      6E7400
 7970              	.LASF76:
 7971 01c2 73656E64 		.ascii	"send_data_processing\000"
 7971      5F646174 
 7971      615F7072 
 7971      6F636573 
 7971      73696E67 
 7972              	.LASF28:
 7973 01d7 67657449 		.ascii	"getIINCHIP_RxBASE\000"
 7973      494E4348 
 7973      49505F52 
 7973      78424153 
 7973      4500
ARM GAS  C:\Users\atsu\AppData\Local\Temp\ccDwwNoN.s 			page 157


 7974              	.LASF22:
 7975 01e9 77697A5F 		.ascii	"wiz_write_buf\000"
 7975      77726974 
 7975      655F6275 
 7975      6600
 7976              	.LASF82:
 7977 01f7 534D4153 		.ascii	"SMASK\000"
 7977      4B00
 7978              	.LASF24:
 7979 01fd 67657449 		.ascii	"getIINCHIP_TxMASK\000"
 7979      494E4348 
 7979      49505F54 
 7979      784D4153 
 7979      4B00
 7980              	.LASF8:
 7981 020f 73697A65 		.ascii	"sizetype\000"
 7981      74797065 
 7981      00
 7982              	.LASF26:
 7983 0218 67657449 		.ascii	"getIINCHIP_TxMAX\000"
 7983      494E4348 
 7983      49505F54 
 7983      784D4158 
 7983      00
 7984              	.LASF30:
 7985 0229 696E6372 		.ascii	"incr_windowfull_retry_cnt\000"
 7985      5F77696E 
 7985      646F7766 
 7985      756C6C5F 
 7985      72657472 
 7986              	.LASF59:
 7987 0243 72657472 		.ascii	"retry\000"
 7987      7900
 7988              	.LASF70:
 7989 0249 76616C31 		.ascii	"val1\000"
 7989      00
 7990              	.LASF46:
 7991 024e 73657453 		.ascii	"setSHAR\000"
 7991      48415200 
 7992              	.LASF43:
 7993 0256 73657447 		.ascii	"setGAR\000"
 7993      415200
 7994              	.LASF98:
 7995 025d 7370695F 		.ascii	"spi_master_send\000"
 7995      6D617374 
 7995      65725F73 
 7995      656E6400 
 7996              	.LASF15:
 7997 026d 666C6F61 		.ascii	"float\000"
 7997      7400
 7998              	.LASF21:
 7999 0273 49494E43 		.ascii	"IINCHIP_SpiSendData\000"
 7999      4849505F 
 7999      53706953 
 7999      656E6444 
 7999      61746100 
 8000              	.LASF85:
ARM GAS  C:\Users\atsu\AppData\Local\Temp\ccDwwNoN.s 			page 158


 8001 0287 5253495A 		.ascii	"RSIZE\000"
 8001      4500
 8002              	.LASF95:
 8003 028d 474E5520 		.ascii	"GNU C 4.7.3 20130312 (release) [ARM/embedded-4_7-br"
 8003      4320342E 
 8003      372E3320 
 8003      32303133 
 8003      30333132 
 8004 02c0 616E6368 		.ascii	"anch revision 196615]\000"
 8004      20726576 
 8004      6973696F 
 8004      6E203139 
 8004      36363135 
 8005              	.LASF2:
 8006 02d6 756E7369 		.ascii	"unsigned char\000"
 8006      676E6564 
 8006      20636861 
 8006      7200
 8007              	.LASF25:
 8008 02e4 67657449 		.ascii	"getIINCHIP_TxBASE\000"
 8008      494E4348 
 8008      49505F54 
 8008      78424153 
 8008      4500
 8009              	.LASF3:
 8010 02f6 73686F72 		.ascii	"short int\000"
 8010      7420696E 
 8010      7400
 8011              	.LASF89:
 8012 0300 49505641 		.ascii	"IPVAL\000"
 8012      4C00
 8013              	.LASF17:
 8014 0306 7675696E 		.ascii	"vuint8_t\000"
 8014      74385F74 
 8014      00
 8015              	.LASF92:
 8016 030f 73656E74 		.ascii	"sent_ptr\000"
 8016      5F707472 
 8016      00
 8017              	.LASF75:
 8018 0318 6473745F 		.ascii	"dst_ptr\000"
 8018      70747200 
 8019              	.LASF69:
 8020 0320 67657453 		.ascii	"getSn_TX_FSR\000"
 8020      6E5F5458 
 8020      5F465352 
 8020      00
 8021              	.LASF66:
 8022 032d 70726F74 		.ascii	"proto\000"
 8022      6F00
 8023              	.LASF64:
 8024 0333 73657453 		.ascii	"setSn_TTL\000"
 8024      6E5F5454 
 8024      4C00
 8025              	.LASF14:
 8026 033d 75696E74 		.ascii	"uint32_t\000"
 8026      33325F74 
ARM GAS  C:\Users\atsu\AppData\Local\Temp\ccDwwNoN.s 			page 159


 8026      00
 8027              	.LASF10:
 8028 0346 63686172 		.ascii	"char\000"
 8028      00
 8029              	.LASF94:
 8030 034b 7370695F 		.ascii	"spi_cs_high\000"
 8030      63735F68 
 8030      69676800 
 8031              	.LASF60:
 8032 0357 73657449 		.ascii	"setIMR\000"
 8032      4D5200
 8033              	.LASF90:
 8034 035e 77696E64 		.ascii	"windowfull_retry_cnt\000"
 8034      6F776675 
 8034      6C6C5F72 
 8034      65747279 
 8034      5F636E74 
 8035              	.LASF83:
 8036 0373 524D4153 		.ascii	"RMASK\000"
 8036      4B00
 8037              	.LASF19:
 8038 0379 49494E43 		.ascii	"IINCHIP_CSoff\000"
 8038      4849505F 
 8038      43536F66 
 8038      6600
 8039              	.LASF36:
 8040 0387 49494E43 		.ascii	"IINCHIP_READ\000"
 8040      4849505F 
 8040      52454144 
 8040      00
 8041              	.LASF58:
 8042 0394 73657452 		.ascii	"setRCR\000"
 8042      435200
 8043              	.LASF55:
 8044 039b 67657449 		.ascii	"getIR\000"
 8044      5200
 8045              	.LASF80:
 8046 03a1 72656376 		.ascii	"recv_data_processing\000"
 8046      5F646174 
 8046      615F7072 
 8046      6F636573 
 8046      73696E67 
 8047              	.LASF49:
 8048 03b6 67657453 		.ascii	"getSUBR\000"
 8048      55425200 
 8049              	.LASF81:
 8050 03be 495F5354 		.ascii	"I_STATUS\000"
 8050      41545553 
 8050      00
 8051              	.LASF51:
 8052 03c7 67657453 		.ascii	"getSIPR\000"
 8052      49505200 
 8053              	.LASF11:
 8054 03cf 75696E74 		.ascii	"uint8_t\000"
 8054      385F7400 
 8055              	.LASF32:
 8056 03d7 696E6974 		.ascii	"init_windowfull_retry_cnt\000"
ARM GAS  C:\Users\atsu\AppData\Local\Temp\ccDwwNoN.s 			page 160


 8056      5F77696E 
 8056      646F7766 
 8056      756C6C5F 
 8056      72657472 
 8057              	.LASF48:
 8058 03f1 67657447 		.ascii	"getGAR\000"
 8058      415200
 8059              	.LASF31:
 8060 03f8 67657449 		.ascii	"getISR\000"
 8060      535200
 8061              	.LASF96:
 8062 03ff 2E5C7735 		.ascii	".\\w5200.c\000"
 8062      3230302E 
 8062      6300
 8063              	.LASF52:
 8064 0409 636C6561 		.ascii	"clearSUBR\000"
 8064      72535542 
 8064      5200
 8065              	.LASF53:
 8066 0413 7365744D 		.ascii	"setMR\000"
 8066      5200
 8067              	.LASF41:
 8068 0419 7373756D 		.ascii	"ssum\000"
 8068      00
 8069              	.LASF97:
 8070 041e 433A5C55 		.ascii	"C:\\Users\\atsu\\Desktop\\W5200_PSoC4_test\\W5200_P"
 8070      73657273 
 8070      5C617473 
 8070      755C4465 
 8070      736B746F 
 8071 044c 536F4334 		.ascii	"SoC4_test\\W5200_PSoC4_test.cydsn\000"
 8071      5F746573 
 8071      745C5735 
 8071      3230305F 
 8071      50536F43 
 8072              	.LASF34:
 8073 046d 49494E43 		.ascii	"IINCHIP_WRITE\000"
 8073      4849505F 
 8073      57524954 
 8073      4500
 8074              	.LASF78:
 8075 047b 7372635F 		.ascii	"src_mask\000"
 8075      6D61736B 
 8075      00
 8076              	.LASF33:
 8077 0484 70757449 		.ascii	"putISR\000"
 8077      535200
 8078              	.LASF86:
 8079 048b 53425546 		.ascii	"SBUFBASEADDRESS\000"
 8079      42415345 
 8079      41444452 
 8079      45535300 
 8080              	.LASF71:
 8081 049b 67657453 		.ascii	"getSn_RX_RSR\000"
 8081      6E5F5258 
 8081      5F525352 
 8081      00
ARM GAS  C:\Users\atsu\AppData\Local\Temp\ccDwwNoN.s 			page 161


 8082              		.ident	"GCC: (GNU Tools for ARM Embedded Processors) 4.7.3 20130312 (release) [ARM/embedded-4_7-br
