ARM GAS  C:\Users\atsu\AppData\Local\Temp\ccDwwNoN.s 			page 1


   1              		.cpu cortex-m0
   2              		.fpu softvfp
   3              		.eabi_attribute 20, 1
   4              		.eabi_attribute 21, 1
   5              		.eabi_attribute 23, 3
   6              		.eabi_attribute 24, 1
   7              		.eabi_attribute 25, 1
   8              		.eabi_attribute 26, 1
   9              		.eabi_attribute 30, 4
  10              		.eabi_attribute 34, 0
  11              		.eabi_attribute 18, 4
  12              		.code	16
  13              		.file	"w5200.c"
  14              		.text
  15              	.Ltext0:
  16              		.cfi_sections	.debug_frame
  17              		.section	.text.incr_windowfull_retry_cnt,"ax",%progbits
  18              		.align	1
  19              		.global	incr_windowfull_retry_cnt
  20              		.code	16
  21              		.thumb_func
  22              		.type	incr_windowfull_retry_cnt, %function
  23              	incr_windowfull_retry_cnt:
  24              	.LFB0:
  25              		.file 1 ".\\w5200.c"
   1:.\w5200.c     **** /*
   2:.\w5200.c     ****  * (c)COPYRIGHT
   3:.\w5200.c     ****  * ALL RIGHT RESERVED
   4:.\w5200.c     ****  *
   5:.\w5200.c     ****  * FileName : w5200.c
   6:.\w5200.c     ****   * -----------------------------------------------------------------
   7:.\w5200.c     ****  */
   8:.\w5200.c     **** #include <stdio.h>
   9:.\w5200.c     **** #include <string.h>
  10:.\w5200.c     **** #include "config.h"
  11:.\w5200.c     **** #include "device_depend.h"		
  12:.\w5200.c     **** #include "w5200.h"
  13:.\w5200.c     **** #include "socket.h"
  14:.\w5200.c     **** 
  15:.\w5200.c     **** #ifdef __DEF_IINCHIP_PPP__
  16:.\w5200.c     ****    #include "md5.h"
  17:.\w5200.c     **** #endif
  18:.\w5200.c     **** 
  19:.\w5200.c     **** static uint8_t I_STATUS[MAX_SOCK_NUM];
  20:.\w5200.c     **** static uint16_t SMASK[MAX_SOCK_NUM]; /**< Variable for Tx buffer MASK in each channel */
  21:.\w5200.c     **** static uint16_t RMASK[MAX_SOCK_NUM]; /**< Variable for Rx buffer MASK in each channel */
  22:.\w5200.c     **** static uint16_t SSIZE[MAX_SOCK_NUM]; /**< Max Tx buffer size by each channel */
  23:.\w5200.c     **** static uint16_t RSIZE[MAX_SOCK_NUM]; /**< Max Rx buffer size by each channel */
  24:.\w5200.c     **** static uint16_t SBUFBASEADDRESS[MAX_SOCK_NUM]; /**< Tx buffer base address by each channel */
  25:.\w5200.c     **** static uint16_t RBUFBASEADDRESS[MAX_SOCK_NUM]; /**< Rx buffer base address by each channel */
  26:.\w5200.c     **** static uint8_t SUBNET[4];
  27:.\w5200.c     **** static uint8_t IPVAL[4];
  28:.\w5200.c     **** 
  29:.\w5200.c     **** uint8_t windowfull_retry_cnt[MAX_SOCK_NUM];
  30:.\w5200.c     **** 
  31:.\w5200.c     **** uint8_t incr_windowfull_retry_cnt(uint8_t s)
  32:.\w5200.c     **** {
ARM GAS  C:\Users\atsu\AppData\Local\Temp\ccDwwNoN.s 			page 2


  26              		.loc 1 32 0
  27              		.cfi_startproc
  28              	.LVL0:
  33:.\w5200.c     ****   return windowfull_retry_cnt[s]++;
  29              		.loc 1 33 0
  30 0000 024A     		ldr	r2, .L2
  34:.\w5200.c     **** }
  31              		.loc 1 34 0
  32              		@ sp needed for prologue
  33:.\w5200.c     ****   return windowfull_retry_cnt[s]++;
  33              		.loc 1 33 0
  34 0002 135C     		ldrb	r3, [r2, r0]
  35 0004 591C     		add	r1, r3, #1
  36 0006 1154     		strb	r1, [r2, r0]
  37              		.loc 1 34 0
  38 0008 181C     		mov	r0, r3
  39              	.LVL1:
  40 000a 7047     		bx	lr
  41              	.L3:
  42              		.align	2
  43              	.L2:
  44 000c 00000000 		.word	windowfull_retry_cnt
  45              		.cfi_endproc
  46              	.LFE0:
  47              		.size	incr_windowfull_retry_cnt, .-incr_windowfull_retry_cnt
  48              		.section	.text.init_windowfull_retry_cnt,"ax",%progbits
  49              		.align	1
  50              		.global	init_windowfull_retry_cnt
  51              		.code	16
  52              		.thumb_func
  53              		.type	init_windowfull_retry_cnt, %function
  54              	init_windowfull_retry_cnt:
  55              	.LFB1:
  35:.\w5200.c     **** 
  36:.\w5200.c     **** void init_windowfull_retry_cnt(uint8_t s)
  37:.\w5200.c     **** {
  56              		.loc 1 37 0
  57              		.cfi_startproc
  58              	.LVL2:
  38:.\w5200.c     ****   windowfull_retry_cnt[s] = 0;
  59              		.loc 1 38 0
  60 0000 014B     		ldr	r3, .L5
  61 0002 0022     		mov	r2, #0
  62 0004 1A54     		strb	r2, [r3, r0]
  39:.\w5200.c     **** }
  63              		.loc 1 39 0
  64              		@ sp needed for prologue
  65 0006 7047     		bx	lr
  66              	.L6:
  67              		.align	2
  68              	.L5:
  69 0008 00000000 		.word	windowfull_retry_cnt
  70              		.cfi_endproc
  71              	.LFE1:
  72              		.size	init_windowfull_retry_cnt, .-init_windowfull_retry_cnt
  73              		.section	.text.getISR,"ax",%progbits
  74              		.align	1
ARM GAS  C:\Users\atsu\AppData\Local\Temp\ccDwwNoN.s 			page 3


  75              		.global	getISR
  76              		.code	16
  77              		.thumb_func
  78              		.type	getISR, %function
  79              	getISR:
  80              	.LFB2:
  40:.\w5200.c     **** 
  41:.\w5200.c     **** uint16_t pre_sent_ptr, sent_ptr;
  42:.\w5200.c     **** 
  43:.\w5200.c     **** uint8_t getISR(uint8_t s)
  44:.\w5200.c     **** {
  81              		.loc 1 44 0
  82              		.cfi_startproc
  83              	.LVL3:
  45:.\w5200.c     **** 	return I_STATUS[s];
  84              		.loc 1 45 0
  85 0000 014B     		ldr	r3, .L8
  46:.\w5200.c     **** }
  86              		.loc 1 46 0
  87              		@ sp needed for prologue
  45:.\w5200.c     **** 	return I_STATUS[s];
  88              		.loc 1 45 0
  89 0002 185C     		ldrb	r0, [r3, r0]
  90              	.LVL4:
  91              		.loc 1 46 0
  92 0004 7047     		bx	lr
  93              	.L9:
  94 0006 C046     		.align	2
  95              	.L8:
  96 0008 00000000 		.word	.LANCHOR0
  97              		.cfi_endproc
  98              	.LFE2:
  99              		.size	getISR, .-getISR
 100              		.section	.text.putISR,"ax",%progbits
 101              		.align	1
 102              		.global	putISR
 103              		.code	16
 104              		.thumb_func
 105              		.type	putISR, %function
 106              	putISR:
 107              	.LFB3:
  47:.\w5200.c     **** void putISR(uint8_t s, uint8_t val)
  48:.\w5200.c     **** {
 108              		.loc 1 48 0
 109              		.cfi_startproc
 110              	.LVL5:
  49:.\w5200.c     ****    I_STATUS[s] = val;
 111              		.loc 1 49 0
 112 0000 014B     		ldr	r3, .L11
  50:.\w5200.c     **** }
 113              		.loc 1 50 0
 114              		@ sp needed for prologue
  49:.\w5200.c     ****    I_STATUS[s] = val;
 115              		.loc 1 49 0
 116 0002 1954     		strb	r1, [r3, r0]
 117              		.loc 1 50 0
 118 0004 7047     		bx	lr
ARM GAS  C:\Users\atsu\AppData\Local\Temp\ccDwwNoN.s 			page 4


 119              	.L12:
 120 0006 C046     		.align	2
 121              	.L11:
 122 0008 00000000 		.word	.LANCHOR0
 123              		.cfi_endproc
 124              	.LFE3:
 125              		.size	putISR, .-putISR
 126              		.section	.text.getIINCHIP_RxMAX,"ax",%progbits
 127              		.align	1
 128              		.global	getIINCHIP_RxMAX
 129              		.code	16
 130              		.thumb_func
 131              		.type	getIINCHIP_RxMAX, %function
 132              	getIINCHIP_RxMAX:
 133              	.LFB4:
  51:.\w5200.c     **** uint16_t getIINCHIP_RxMAX(uint8_t s)
  52:.\w5200.c     **** {
 134              		.loc 1 52 0
 135              		.cfi_startproc
 136              	.LVL6:
  53:.\w5200.c     ****    return RSIZE[s];
 137              		.loc 1 53 0
 138 0000 024B     		ldr	r3, .L14
 139 0002 4000     		lsl	r0, r0, #1
 140              	.LVL7:
 141 0004 1918     		add	r1, r3, r0
 142 0006 8888     		ldrh	r0, [r1, #4]
  54:.\w5200.c     **** }
 143              		.loc 1 54 0
 144              		@ sp needed for prologue
 145 0008 7047     		bx	lr
 146              	.L15:
 147 000a C046     		.align	2
 148              	.L14:
 149 000c 00000000 		.word	.LANCHOR0
 150              		.cfi_endproc
 151              	.LFE4:
 152              		.size	getIINCHIP_RxMAX, .-getIINCHIP_RxMAX
 153              		.section	.text.getIINCHIP_TxMAX,"ax",%progbits
 154              		.align	1
 155              		.global	getIINCHIP_TxMAX
 156              		.code	16
 157              		.thumb_func
 158              		.type	getIINCHIP_TxMAX, %function
 159              	getIINCHIP_TxMAX:
 160              	.LFB5:
  55:.\w5200.c     **** uint16_t getIINCHIP_TxMAX(uint8_t s)
  56:.\w5200.c     **** {
 161              		.loc 1 56 0
 162              		.cfi_startproc
 163              	.LVL8:
  57:.\w5200.c     ****    return SSIZE[s];
 164              		.loc 1 57 0
 165 0000 024B     		ldr	r3, .L17
 166 0002 4000     		lsl	r0, r0, #1
 167              	.LVL9:
 168 0004 1918     		add	r1, r3, r0
ARM GAS  C:\Users\atsu\AppData\Local\Temp\ccDwwNoN.s 			page 5


 169 0006 8889     		ldrh	r0, [r1, #12]
  58:.\w5200.c     **** }
 170              		.loc 1 58 0
 171              		@ sp needed for prologue
 172 0008 7047     		bx	lr
 173              	.L18:
 174 000a C046     		.align	2
 175              	.L17:
 176 000c 00000000 		.word	.LANCHOR0
 177              		.cfi_endproc
 178              	.LFE5:
 179              		.size	getIINCHIP_TxMAX, .-getIINCHIP_TxMAX
 180              		.section	.text.getIINCHIP_RxMASK,"ax",%progbits
 181              		.align	1
 182              		.global	getIINCHIP_RxMASK
 183              		.code	16
 184              		.thumb_func
 185              		.type	getIINCHIP_RxMASK, %function
 186              	getIINCHIP_RxMASK:
 187              	.LFB6:
  59:.\w5200.c     **** uint16_t getIINCHIP_RxMASK(uint8_t s)
  60:.\w5200.c     **** {
 188              		.loc 1 60 0
 189              		.cfi_startproc
 190              	.LVL10:
  61:.\w5200.c     ****    return RMASK[s];
 191              		.loc 1 61 0
 192 0000 024B     		ldr	r3, .L20
 193 0002 4000     		lsl	r0, r0, #1
 194              	.LVL11:
 195 0004 1918     		add	r1, r3, r0
 196 0006 888A     		ldrh	r0, [r1, #20]
  62:.\w5200.c     **** }
 197              		.loc 1 62 0
 198              		@ sp needed for prologue
 199 0008 7047     		bx	lr
 200              	.L21:
 201 000a C046     		.align	2
 202              	.L20:
 203 000c 00000000 		.word	.LANCHOR0
 204              		.cfi_endproc
 205              	.LFE6:
 206              		.size	getIINCHIP_RxMASK, .-getIINCHIP_RxMASK
 207              		.section	.text.getIINCHIP_TxMASK,"ax",%progbits
 208              		.align	1
 209              		.global	getIINCHIP_TxMASK
 210              		.code	16
 211              		.thumb_func
 212              		.type	getIINCHIP_TxMASK, %function
 213              	getIINCHIP_TxMASK:
 214              	.LFB7:
  63:.\w5200.c     **** uint16_t getIINCHIP_TxMASK(uint8_t s)
  64:.\w5200.c     **** {
 215              		.loc 1 64 0
 216              		.cfi_startproc
 217              	.LVL12:
  65:.\w5200.c     ****    return SMASK[s];
ARM GAS  C:\Users\atsu\AppData\Local\Temp\ccDwwNoN.s 			page 6


 218              		.loc 1 65 0
 219 0000 024B     		ldr	r3, .L23
 220 0002 4000     		lsl	r0, r0, #1
 221              	.LVL13:
 222 0004 1918     		add	r1, r3, r0
 223 0006 888B     		ldrh	r0, [r1, #28]
  66:.\w5200.c     **** }
 224              		.loc 1 66 0
 225              		@ sp needed for prologue
 226 0008 7047     		bx	lr
 227              	.L24:
 228 000a C046     		.align	2
 229              	.L23:
 230 000c 00000000 		.word	.LANCHOR0
 231              		.cfi_endproc
 232              	.LFE7:
 233              		.size	getIINCHIP_TxMASK, .-getIINCHIP_TxMASK
 234              		.section	.text.getIINCHIP_RxBASE,"ax",%progbits
 235              		.align	1
 236              		.global	getIINCHIP_RxBASE
 237              		.code	16
 238              		.thumb_func
 239              		.type	getIINCHIP_RxBASE, %function
 240              	getIINCHIP_RxBASE:
 241              	.LFB8:
  67:.\w5200.c     **** uint16_t getIINCHIP_RxBASE(uint8_t s)
  68:.\w5200.c     **** {
 242              		.loc 1 68 0
 243              		.cfi_startproc
 244              	.LVL14:
  69:.\w5200.c     ****    return RBUFBASEADDRESS[s];
 245              		.loc 1 69 0
 246 0000 024B     		ldr	r3, .L26
 247 0002 4000     		lsl	r0, r0, #1
 248              	.LVL15:
 249 0004 1918     		add	r1, r3, r0
 250 0006 888C     		ldrh	r0, [r1, #36]
  70:.\w5200.c     **** }
 251              		.loc 1 70 0
 252              		@ sp needed for prologue
 253 0008 7047     		bx	lr
 254              	.L27:
 255 000a C046     		.align	2
 256              	.L26:
 257 000c 00000000 		.word	.LANCHOR0
 258              		.cfi_endproc
 259              	.LFE8:
 260              		.size	getIINCHIP_RxBASE, .-getIINCHIP_RxBASE
 261              		.section	.text.getIINCHIP_TxBASE,"ax",%progbits
 262              		.align	1
 263              		.global	getIINCHIP_TxBASE
 264              		.code	16
 265              		.thumb_func
 266              		.type	getIINCHIP_TxBASE, %function
 267              	getIINCHIP_TxBASE:
 268              	.LFB9:
  71:.\w5200.c     **** uint16_t getIINCHIP_TxBASE(uint8_t s)
ARM GAS  C:\Users\atsu\AppData\Local\Temp\ccDwwNoN.s 			page 7


  72:.\w5200.c     **** {
 269              		.loc 1 72 0
 270              		.cfi_startproc
 271              	.LVL16:
  73:.\w5200.c     ****    return SBUFBASEADDRESS[s];
 272              		.loc 1 73 0
 273 0000 024B     		ldr	r3, .L29
 274 0002 4000     		lsl	r0, r0, #1
 275              	.LVL17:
 276 0004 1918     		add	r1, r3, r0
 277 0006 888D     		ldrh	r0, [r1, #44]
  74:.\w5200.c     **** }
 278              		.loc 1 74 0
 279              		@ sp needed for prologue
 280 0008 7047     		bx	lr
 281              	.L30:
 282 000a C046     		.align	2
 283              	.L29:
 284 000c 00000000 		.word	.LANCHOR0
 285              		.cfi_endproc
 286              	.LFE9:
 287              		.size	getIINCHIP_TxBASE, .-getIINCHIP_TxBASE
 288              		.section	.text.IINCHIP_CSoff,"ax",%progbits
 289              		.align	1
 290              		.global	IINCHIP_CSoff
 291              		.code	16
 292              		.thumb_func
 293              		.type	IINCHIP_CSoff, %function
 294              	IINCHIP_CSoff:
 295              	.LFB10:
  75:.\w5200.c     **** void IINCHIP_CSoff(void)
  76:.\w5200.c     **** {
 296              		.loc 1 76 0
 297              		.cfi_startproc
 298 0000 08B5     		push	{r3, lr}
 299              	.LCFI0:
 300              		.cfi_def_cfa_offset 8
 301              		.cfi_offset 3, -8
 302              		.cfi_offset 14, -4
  77:.\w5200.c     **** 	spi_cs_low();
 303              		.loc 1 77 0
 304 0002 FFF7FEFF 		bl	spi_cs_low
 305              	.LVL18:
  78:.\w5200.c     **** }
 306              		.loc 1 78 0
 307              		@ sp needed for prologue
 308 0006 08BD     		pop	{r3, pc}
 309              		.cfi_endproc
 310              	.LFE10:
 311              		.size	IINCHIP_CSoff, .-IINCHIP_CSoff
 312              		.section	.text.IINCHIP_CSon,"ax",%progbits
 313              		.align	1
 314              		.global	IINCHIP_CSon
 315              		.code	16
 316              		.thumb_func
 317              		.type	IINCHIP_CSon, %function
 318              	IINCHIP_CSon:
ARM GAS  C:\Users\atsu\AppData\Local\Temp\ccDwwNoN.s 			page 8


 319              	.LFB11:
  79:.\w5200.c     **** void IINCHIP_CSon(void)
  80:.\w5200.c     **** {
 320              		.loc 1 80 0
 321              		.cfi_startproc
 322 0000 08B5     		push	{r3, lr}
 323              	.LCFI1:
 324              		.cfi_def_cfa_offset 8
 325              		.cfi_offset 3, -8
 326              		.cfi_offset 14, -4
  81:.\w5200.c     **** 	spi_cs_high();
 327              		.loc 1 81 0
 328 0002 FFF7FEFF 		bl	spi_cs_high
 329              	.LVL19:
  82:.\w5200.c     **** }
 330              		.loc 1 82 0
 331              		@ sp needed for prologue
 332 0006 08BD     		pop	{r3, pc}
 333              		.cfi_endproc
 334              	.LFE11:
 335              		.size	IINCHIP_CSon, .-IINCHIP_CSon
 336              		.section	.text.IINCHIP_SpiSendData,"ax",%progbits
 337              		.align	1
 338              		.global	IINCHIP_SpiSendData
 339              		.code	16
 340              		.thumb_func
 341              		.type	IINCHIP_SpiSendData, %function
 342              	IINCHIP_SpiSendData:
 343              	.LFB12:
  83:.\w5200.c     **** uint8_t IINCHIP_SpiSendData(uint8_t dat)
  84:.\w5200.c     **** {
 344              		.loc 1 84 0
 345              		.cfi_startproc
 346              	.LVL20:
 347 0000 08B5     		push	{r3, lr}
 348              	.LCFI2:
 349              		.cfi_def_cfa_offset 8
 350              		.cfi_offset 3, -8
 351              		.cfi_offset 14, -4
  85:.\w5200.c     **** 	return(spi_master_send(dat));
 352              		.loc 1 85 0
 353 0002 FFF7FEFF 		bl	spi_master_send
 354              	.LVL21:
  86:.\w5200.c     **** }
 355              		.loc 1 86 0
 356              		@ sp needed for prologue
 357 0006 08BD     		pop	{r3, pc}
 358              		.cfi_endproc
 359              	.LFE12:
 360              		.size	IINCHIP_SpiSendData, .-IINCHIP_SpiSendData
 361              		.section	.text.IINCHIP_WRITE,"ax",%progbits
 362              		.align	1
 363              		.global	IINCHIP_WRITE
 364              		.code	16
 365              		.thumb_func
 366              		.type	IINCHIP_WRITE, %function
 367              	IINCHIP_WRITE:
ARM GAS  C:\Users\atsu\AppData\Local\Temp\ccDwwNoN.s 			page 9


 368              	.LFB13:
  87:.\w5200.c     **** 
  88:.\w5200.c     **** 
  89:.\w5200.c     ****  /**
  90:.\w5200.c     **** @brief	This function writes the data into W5200 registers.
  91:.\w5200.c     **** */
  92:.\w5200.c     **** 
  93:.\w5200.c     **** uint8_t IINCHIP_WRITE(uint16_t addr,uint8_t data)
  94:.\w5200.c     **** {
 369              		.loc 1 94 0
 370              		.cfi_startproc
 371              	.LVL22:
 372 0000 38B5     		push	{r3, r4, r5, lr}
 373              	.LCFI3:
 374              		.cfi_def_cfa_offset 16
 375              		.cfi_offset 3, -16
 376              		.cfi_offset 4, -12
 377              		.cfi_offset 5, -8
 378              		.cfi_offset 14, -4
 379              		.loc 1 94 0
 380 0002 041C     		mov	r4, r0
 381 0004 0D1C     		mov	r5, r1
 382              	.LBB46:
 383              	.LBB47:
  77:.\w5200.c     **** 	spi_cs_low();
 384              		.loc 1 77 0
 385 0006 FFF7FEFF 		bl	spi_cs_low
 386              	.LVL23:
 387              	.LBE47:
 388              	.LBE46:
  95:.\w5200.c     ****         IINCHIP_ISR_DISABLE();                      // Interrupt Service Routine Disable
  96:.\w5200.c     **** 
  97:.\w5200.c     **** 	//SPI MODE I/F
  98:.\w5200.c     **** 	IINCHIP_CSoff();                            // CS=0, SPI start
  99:.\w5200.c     **** 
 100:.\w5200.c     **** 	IINCHIP_SpiSendData((addr & 0xFF00) >> 8);  // Address byte 1
 389              		.loc 1 100 0
 390 000a 200A     		lsr	r0, r4, #8
 391 000c FFF7FEFF 		bl	IINCHIP_SpiSendData
 392              	.LVL24:
 101:.\w5200.c     **** 	IINCHIP_SpiSendData(addr & 0x00FF);         // Address byte 2
 393              		.loc 1 101 0
 394 0010 E0B2     		uxtb	r0, r4
 395 0012 FFF7FEFF 		bl	IINCHIP_SpiSendData
 396              	.LVL25:
 102:.\w5200.c     **** 	IINCHIP_SpiSendData(0x80);                  // Data write command and Write data length 1
 397              		.loc 1 102 0
 398 0016 8020     		mov	r0, #128
 399 0018 FFF7FEFF 		bl	IINCHIP_SpiSendData
 400              	.LVL26:
 103:.\w5200.c     **** 	IINCHIP_SpiSendData(0x01);                  // Write data length 2
 401              		.loc 1 103 0
 402 001c 0120     		mov	r0, #1
 403 001e FFF7FEFF 		bl	IINCHIP_SpiSendData
 404              	.LVL27:
 104:.\w5200.c     **** 	IINCHIP_SpiSendData(data);                  // Data write (write 1byte data)
 405              		.loc 1 104 0
ARM GAS  C:\Users\atsu\AppData\Local\Temp\ccDwwNoN.s 			page 10


 406 0022 281C     		mov	r0, r5
 407 0024 FFF7FEFF 		bl	IINCHIP_SpiSendData
 408              	.LVL28:
 105:.\w5200.c     **** 
 106:.\w5200.c     **** 	IINCHIP_CSon();                             // CS=1,  SPI end
 107:.\w5200.c     **** 
 108:.\w5200.c     ****         IINCHIP_ISR_ENABLE();                       // Interrupt Service Routine Enable
 109:.\w5200.c     **** 	return 1;
 110:.\w5200.c     **** }
 409              		.loc 1 110 0
 410              		@ sp needed for prologue
 411              	.LBB48:
 412              	.LBB49:
  81:.\w5200.c     **** 	spi_cs_high();
 413              		.loc 1 81 0
 414 0028 FFF7FEFF 		bl	spi_cs_high
 415              	.LVL29:
 416              	.LBE49:
 417              	.LBE48:
 418              		.loc 1 110 0
 419 002c 0120     		mov	r0, #1
 420 002e 38BD     		pop	{r3, r4, r5, pc}
 421              		.cfi_endproc
 422              	.LFE13:
 423              		.size	IINCHIP_WRITE, .-IINCHIP_WRITE
 424              		.section	.text.IINCHIP_READ,"ax",%progbits
 425              		.align	1
 426              		.global	IINCHIP_READ
 427              		.code	16
 428              		.thumb_func
 429              		.type	IINCHIP_READ, %function
 430              	IINCHIP_READ:
 431              	.LFB14:
 111:.\w5200.c     **** /**
 112:.\w5200.c     **** @brief	This function reads the value from W5200 registers.
 113:.\w5200.c     **** */
 114:.\w5200.c     **** uint8_t IINCHIP_READ(uint16_t addr)
 115:.\w5200.c     **** {
 432              		.loc 1 115 0
 433              		.cfi_startproc
 434              	.LVL30:
 435 0000 10B5     		push	{r4, lr}
 436              	.LCFI4:
 437              		.cfi_def_cfa_offset 8
 438              		.cfi_offset 4, -8
 439              		.cfi_offset 14, -4
 440              		.loc 1 115 0
 441 0002 041C     		mov	r4, r0
 442              	.LBB50:
 443              	.LBB51:
  77:.\w5200.c     **** 	spi_cs_low();
 444              		.loc 1 77 0
 445 0004 FFF7FEFF 		bl	spi_cs_low
 446              	.LVL31:
 447              	.LBE51:
 448              	.LBE50:
 116:.\w5200.c     **** 	uint8_t data;
ARM GAS  C:\Users\atsu\AppData\Local\Temp\ccDwwNoN.s 			page 11


 117:.\w5200.c     ****         
 118:.\w5200.c     **** 	IINCHIP_ISR_DISABLE();                       // Interrupt Service Routine Disable
 119:.\w5200.c     **** 	
 120:.\w5200.c     **** 	IINCHIP_CSoff();                             // CS=0, SPI start
 121:.\w5200.c     **** 	
 122:.\w5200.c     ****         IINCHIP_SpiSendData((addr & 0xFF00) >> 8);   // Address byte 1
 449              		.loc 1 122 0
 450 0008 200A     		lsr	r0, r4, #8
 451 000a FFF7FEFF 		bl	IINCHIP_SpiSendData
 452              	.LVL32:
 123:.\w5200.c     **** 	IINCHIP_SpiSendData(addr & 0x00FF);          // Address byte 2
 453              		.loc 1 123 0
 454 000e E0B2     		uxtb	r0, r4
 455 0010 FFF7FEFF 		bl	IINCHIP_SpiSendData
 456              	.LVL33:
 124:.\w5200.c     **** 	IINCHIP_SpiSendData(0x00);                   // Data read command and Read data length 1
 457              		.loc 1 124 0
 458 0014 0020     		mov	r0, #0
 459 0016 FFF7FEFF 		bl	IINCHIP_SpiSendData
 460              	.LVL34:
 125:.\w5200.c     **** 	IINCHIP_SpiSendData(0x01);                   // Read data length 2   	
 461              		.loc 1 125 0
 462 001a 0120     		mov	r0, #1
 463 001c FFF7FEFF 		bl	IINCHIP_SpiSendData
 464              	.LVL35:
 465              	.LBB52:
 466              	.LBB53:
  85:.\w5200.c     **** 	return(spi_master_send(dat));
 467              		.loc 1 85 0
 468 0020 0020     		mov	r0, #0
 469 0022 FFF7FEFF 		bl	spi_master_send
 470              	.LVL36:
 471 0026 041C     		mov	r4, r0
 472              	.LBE53:
 473              	.LBE52:
 126:.\w5200.c     **** 	data = IINCHIP_SpiSendData(0x00);            // Data read (read 1byte data)
 127:.\w5200.c     **** 	
 128:.\w5200.c     ****         IINCHIP_CSon();                              // CS=1,  SPI end
 129:.\w5200.c     **** 	
 130:.\w5200.c     ****         IINCHIP_ISR_ENABLE();                        // Interrupt Service Routine Enable
 131:.\w5200.c     **** 	return data;
 132:.\w5200.c     **** }
 474              		.loc 1 132 0
 475              		@ sp needed for prologue
 476              	.LBB54:
 477              	.LBB55:
  81:.\w5200.c     **** 	spi_cs_high();
 478              		.loc 1 81 0
 479 0028 FFF7FEFF 		bl	spi_cs_high
 480              	.LVL37:
 481              	.LBE55:
 482              	.LBE54:
 483              		.loc 1 132 0
 484 002c 201C     		mov	r0, r4
 485 002e 10BD     		pop	{r4, pc}
 486              		.cfi_endproc
 487              	.LFE14:
ARM GAS  C:\Users\atsu\AppData\Local\Temp\ccDwwNoN.s 			page 12


 488              		.size	IINCHIP_READ, .-IINCHIP_READ
 489              		.section	.text.wiz_write_buf,"ax",%progbits
 490              		.align	1
 491              		.global	wiz_write_buf
 492              		.code	16
 493              		.thumb_func
 494              		.type	wiz_write_buf, %function
 495              	wiz_write_buf:
 496              	.LFB15:
 133:.\w5200.c     **** 
 134:.\w5200.c     **** /**
 135:.\w5200.c     **** @brief	This function writes into W5200 memory(Buffer)
 136:.\w5200.c     **** */ 
 137:.\w5200.c     **** uint16_t wiz_write_buf(uint16_t addr,uint8_t* buf,uint16_t len)
 138:.\w5200.c     **** {
 497              		.loc 1 138 0
 498              		.cfi_startproc
 499              	.LVL38:
 500 0000 70B5     		push	{r4, r5, r6, lr}
 501              	.LCFI5:
 502              		.cfi_def_cfa_offset 16
 503              		.cfi_offset 4, -16
 504              		.cfi_offset 5, -12
 505              		.cfi_offset 6, -8
 506              		.cfi_offset 14, -4
 507              		.loc 1 138 0
 508 0002 051C     		mov	r5, r0
 509 0004 0E1C     		mov	r6, r1
 510 0006 141E     		sub	r4, r2, #0
 139:.\w5200.c     **** 	uint16_t idx = 0;
 140:.\w5200.c     **** 	
 141:.\w5200.c     **** 	IINCHIP_ISR_DISABLE();
 142:.\w5200.c     ****         
 143:.\w5200.c     ****         if(len == 0)
 511              		.loc 1 143 0
 512 0008 1CD0     		beq	.L37
 513              	.LVL39:
 514              	.LBB62:
 515              	.LBB63:
 516              	.LBB64:
 517              	.LBB65:
  77:.\w5200.c     **** 	spi_cs_low();
 518              		.loc 1 77 0
 519 000a FFF7FEFF 		bl	spi_cs_low
 520              	.LVL40:
 521              	.LBE65:
 522              	.LBE64:
 144:.\w5200.c     ****         {
 145:.\w5200.c     ****           //// printf("len is '0'\r\n");
 146:.\w5200.c     ****           return 0;
 147:.\w5200.c     ****         }
 148:.\w5200.c     ****      
 149:.\w5200.c     **** 	//SPI MODE I/F
 150:.\w5200.c     **** 	IINCHIP_CSoff();                                        // CS=0, SPI start 
 151:.\w5200.c     **** 	
 152:.\w5200.c     ****         IINCHIP_SpiSendData(((addr+idx) & 0xFF00) >> 8);        // Address byte 1
 523              		.loc 1 152 0
ARM GAS  C:\Users\atsu\AppData\Local\Temp\ccDwwNoN.s 			page 13


 524 000e 280A     		lsr	r0, r5, #8
 525 0010 FFF7FEFF 		bl	IINCHIP_SpiSendData
 526              	.LVL41:
 153:.\w5200.c     **** 	IINCHIP_SpiSendData((addr+idx) & 0x00FF);               // Address byte 2
 527              		.loc 1 153 0
 528 0014 E8B2     		uxtb	r0, r5
 529 0016 FFF7FEFF 		bl	IINCHIP_SpiSendData
 530              	.LVL42:
 154:.\w5200.c     **** 	IINCHIP_SpiSendData((0x80 | ((len & 0x7F00) >> 8)));    // Data write command and Write data lengt
 531              		.loc 1 154 0
 532 001a 6004     		lsl	r0, r4, #17
 533              	.LBE63:
 534 001c 8023     		mov	r3, #128
 535              	.LBB68:
 536 001e 400E     		lsr	r0, r0, #25
 537 0020 1843     		orr	r0, r3
 538 0022 FFF7FEFF 		bl	IINCHIP_SpiSendData
 539              	.LVL43:
 155:.\w5200.c     **** 	IINCHIP_SpiSendData((len & 0x00FF));                    // Write data length 2
 540              		.loc 1 155 0
 541 0026 E0B2     		uxtb	r0, r4
 542 0028 FFF7FEFF 		bl	IINCHIP_SpiSendData
 543              	.LVL44:
 544 002c 351C     		mov	r5, r6
 545              	.LVL45:
 546              	.L38:
 156:.\w5200.c     **** 	for(idx = 0; idx < len; idx++)                          // Write data in loop
 547              		.loc 1 156 0
 548 002e A91B     		sub	r1, r5, r6
 549 0030 8AB2     		uxth	r2, r1
 550 0032 A242     		cmp	r2, r4
 551 0034 04D2     		bcs	.L44
 552              	.L39:
 157:.\w5200.c     **** 	{		
 158:.\w5200.c     **** 		IINCHIP_SpiSendData(buf[idx]);
 553              		.loc 1 158 0
 554 0036 2878     		ldrb	r0, [r5]
 555 0038 FFF7FEFF 		bl	IINCHIP_SpiSendData
 556              	.LVL46:
 557 003c 0135     		add	r5, r5, #1
 558 003e F6E7     		b	.L38
 559              	.L44:
 560              	.LBB66:
 561              	.LBB67:
  81:.\w5200.c     **** 	spi_cs_high();
 562              		.loc 1 81 0
 563 0040 FFF7FEFF 		bl	spi_cs_high
 564              	.LVL47:
 565              	.L37:
 566              	.LBE67:
 567              	.LBE66:
 568              	.LBE68:
 569              	.LBE62:
 159:.\w5200.c     **** 	}
 160:.\w5200.c     **** 	
 161:.\w5200.c     ****         IINCHIP_CSon();                                         // CS=1, SPI end 
 162:.\w5200.c     ****         
ARM GAS  C:\Users\atsu\AppData\Local\Temp\ccDwwNoN.s 			page 14


 163:.\w5200.c     ****         IINCHIP_ISR_ENABLE();                                   // Interrupt Service Routine Enable
 164:.\w5200.c     **** 	return len;
 165:.\w5200.c     **** }
 570              		.loc 1 165 0
 571 0044 201C     		mov	r0, r4
 572              		@ sp needed for prologue
 573              	.LVL48:
 574 0046 70BD     		pop	{r4, r5, r6, pc}
 575              		.cfi_endproc
 576              	.LFE15:
 577              		.size	wiz_write_buf, .-wiz_write_buf
 578              		.section	.text.wiz_read_buf,"ax",%progbits
 579              		.align	1
 580              		.global	wiz_read_buf
 581              		.code	16
 582              		.thumb_func
 583              		.type	wiz_read_buf, %function
 584              	wiz_read_buf:
 585              	.LFB16:
 166:.\w5200.c     **** 
 167:.\w5200.c     **** 
 168:.\w5200.c     **** /**
 169:.\w5200.c     **** @brief	This function reads into W5200 memory(Buffer)
 170:.\w5200.c     **** */ 
 171:.\w5200.c     **** uint16_t wiz_read_buf(uint16_t addr, uint8_t* buf,uint16_t len)
 172:.\w5200.c     **** {
 586              		.loc 1 172 0
 587              		.cfi_startproc
 588              	.LVL49:
 589 0000 70B5     		push	{r4, r5, r6, lr}
 590              	.LCFI6:
 591              		.cfi_def_cfa_offset 16
 592              		.cfi_offset 4, -16
 593              		.cfi_offset 5, -12
 594              		.cfi_offset 6, -8
 595              		.cfi_offset 14, -4
 596              		.loc 1 172 0
 597 0002 051C     		mov	r5, r0
 598 0004 141C     		mov	r4, r2
 599 0006 0E1C     		mov	r6, r1
 600              	.LBB69:
 601              	.LBB70:
  77:.\w5200.c     **** 	spi_cs_low();
 602              		.loc 1 77 0
 603 0008 FFF7FEFF 		bl	spi_cs_low
 604              	.LVL50:
 605              	.LBE70:
 606              	.LBE69:
 173:.\w5200.c     **** 	uint16_t idx = 0;
 174:.\w5200.c     ****         
 175:.\w5200.c     **** 	IINCHIP_ISR_DISABLE();                                  // Interrupt Service Routine Disable
 176:.\w5200.c     ****         
 177:.\w5200.c     **** 	IINCHIP_CSoff();                                        // CS=0, SPI start 
 178:.\w5200.c     ****         
 179:.\w5200.c     **** 	IINCHIP_SpiSendData(((addr+idx) & 0xFF00) >> 8);        // Address byte 1
 607              		.loc 1 179 0
 608 000c 280A     		lsr	r0, r5, #8
ARM GAS  C:\Users\atsu\AppData\Local\Temp\ccDwwNoN.s 			page 15


 609 000e FFF7FEFF 		bl	IINCHIP_SpiSendData
 610              	.LVL51:
 180:.\w5200.c     **** 	IINCHIP_SpiSendData((addr+idx) & 0x00FF);               // Address byte 2
 611              		.loc 1 180 0
 612 0012 E8B2     		uxtb	r0, r5
 613 0014 FFF7FEFF 		bl	IINCHIP_SpiSendData
 614              	.LVL52:
 181:.\w5200.c     **** 	IINCHIP_SpiSendData((0x00 | ((len & 0x7F00) >> 8)));    // Data read command
 615              		.loc 1 181 0
 616 0018 6004     		lsl	r0, r4, #17
 617 001a 400E     		lsr	r0, r0, #25
 618 001c FFF7FEFF 		bl	IINCHIP_SpiSendData
 619              	.LVL53:
 182:.\w5200.c     **** 	IINCHIP_SpiSendData((len & 0x00FF));		        
 620              		.loc 1 182 0
 621 0020 E0B2     		uxtb	r0, r4
 622 0022 FFF7FEFF 		bl	IINCHIP_SpiSendData
 623              	.LVL54:
 183:.\w5200.c     **** 
 184:.\w5200.c     **** 	for(idx = 0; idx < len; idx++)                          // Read data in loop
 624              		.loc 1 184 0
 625 0026 351C     		mov	r5, r6
 626              	.LVL55:
 627              	.L46:
 628              		.loc 1 184 0 is_stmt 0 discriminator 1
 629 0028 AB1B     		sub	r3, r5, r6
 630 002a 99B2     		uxth	r1, r3
 631 002c A142     		cmp	r1, r4
 632 002e 05D2     		bcs	.L48
 633              	.L47:
 634              	.LVL56:
 635              	.LBB71:
 636              	.LBB72:
  85:.\w5200.c     **** 	return(spi_master_send(dat));
 637              		.loc 1 85 0 is_stmt 1 discriminator 2
 638 0030 0020     		mov	r0, #0
 639 0032 FFF7FEFF 		bl	spi_master_send
 640              	.LVL57:
 641              	.LBE72:
 642              	.LBE71:
 185:.\w5200.c     **** 	{
 186:.\w5200.c     **** 	 	buf[idx] = IINCHIP_SpiSendData(0x00);
 643              		.loc 1 186 0 discriminator 2
 644 0036 2870     		strb	r0, [r5]
 645 0038 0135     		add	r5, r5, #1
 646 003a F5E7     		b	.L46
 647              	.LVL58:
 648              	.L48:
 649              	.LBB73:
 650              	.LBB74:
  81:.\w5200.c     **** 	spi_cs_high();
 651              		.loc 1 81 0
 652 003c FFF7FEFF 		bl	spi_cs_high
 653              	.LVL59:
 654              	.LBE74:
 655              	.LBE73:
 187:.\w5200.c     **** 		
ARM GAS  C:\Users\atsu\AppData\Local\Temp\ccDwwNoN.s 			page 16


 188:.\w5200.c     **** 	}
 189:.\w5200.c     ****         
 190:.\w5200.c     **** 	IINCHIP_CSon();                                         // CS=0, SPI end 	   	
 191:.\w5200.c     ****         
 192:.\w5200.c     **** 	IINCHIP_ISR_ENABLE();                                   // Interrupt Service Routine Enable
 193:.\w5200.c     **** 	return len;
 194:.\w5200.c     **** }
 656              		.loc 1 194 0
 657              		@ sp needed for prologue
 658 0040 201C     		mov	r0, r4
 659              	.LVL60:
 660 0042 70BD     		pop	{r4, r5, r6, pc}
 661              		.cfi_endproc
 662              	.LFE16:
 663              		.size	wiz_read_buf, .-wiz_read_buf
 664              		.section	.text.sysinit,"ax",%progbits
 665              		.align	1
 666              		.global	sysinit
 667              		.code	16
 668              		.thumb_func
 669              		.type	sysinit, %function
 670              	sysinit:
 671              	.LFB18:
 195:.\w5200.c     **** 
 196:.\w5200.c     **** 
 197:.\w5200.c     **** /**
 198:.\w5200.c     **** @brief	This function is for resetting of the iinchip. Initializes the iinchip to work in whether DI
 199:.\w5200.c     **** */ 
 200:.\w5200.c     **** void iinchip_init(void)
 201:.\w5200.c     **** {	
 202:.\w5200.c     **** 	setMR( MR_RST );
 203:.\w5200.c     **** #ifdef __DEF_IINCHIP_DBG__	
 204:.\w5200.c     **** 	// printf("MR value is %02x \r\n",IINCHIP_READ(MR));
 205:.\w5200.c     **** #endif	
 206:.\w5200.c     **** }
 207:.\w5200.c     **** 
 208:.\w5200.c     **** 
 209:.\w5200.c     **** /**
 210:.\w5200.c     **** @brief	This function set the transmit & receive buffer size as per the channels is used
 211:.\w5200.c     **** Note for TMSR and RMSR bits are as follows\n
 212:.\w5200.c     **** bit 1-0 : memory size of channel #0 \n
 213:.\w5200.c     **** bit 3-2 : memory size of channel #1 \n
 214:.\w5200.c     **** bit 5-4 : memory size of channel #2 \n
 215:.\w5200.c     **** bit 7-6 : memory size of channel #3 \n
 216:.\w5200.c     **** bit 9-8 : memory size of channel #4 \n
 217:.\w5200.c     **** bit 11-10 : memory size of channel #5 \n
 218:.\w5200.c     **** bit 12-12 : memory size of channel #6 \n
 219:.\w5200.c     **** bit 15-14 : memory size of channel #7 \n
 220:.\w5200.c     **** Maximum memory size for Tx, Rx in the W5200 is 16K Bytes,\n
 221:.\w5200.c     **** In the range of 16KBytes, the memory size could be allocated dynamically by each channel.\n
 222:.\w5200.c     **** Be attentive to sum of memory size shouldn't exceed 8Kbytes\n
 223:.\w5200.c     **** and to data transmission and receiption from non-allocated channel may cause some problems.\n
 224:.\w5200.c     **** If the 16KBytes memory is already  assigned to centain channel, \n
 225:.\w5200.c     **** other 3 channels couldn't be used, for there's no available memory.\n
 226:.\w5200.c     **** If two 4KBytes memory are assigned to two each channels, \n
 227:.\w5200.c     **** other 2 channels couldn't be used, for there's no available memory.\n
 228:.\w5200.c     **** */ 
ARM GAS  C:\Users\atsu\AppData\Local\Temp\ccDwwNoN.s 			page 17


 229:.\w5200.c     **** void sysinit( uint8_t * tx_size, uint8_t * rx_size	)
 230:.\w5200.c     **** {
 672              		.loc 1 230 0
 673              		.cfi_startproc
 674              	.LVL61:
 675 0000 F0B5     		push	{r4, r5, r6, r7, lr}
 676              	.LCFI7:
 677              		.cfi_def_cfa_offset 20
 678              		.cfi_offset 4, -20
 679              		.cfi_offset 5, -16
 680              		.cfi_offset 6, -12
 681              		.cfi_offset 7, -8
 682              		.cfi_offset 14, -4
 683 0002 85B0     		sub	sp, sp, #20
 684              	.LCFI8:
 685              		.cfi_def_cfa_offset 40
 231:.\w5200.c     **** 	int16_t i;
 232:.\w5200.c     **** 	int16_t ssum,rsum;
 233:.\w5200.c     **** 
 234:.\w5200.c     **** #ifdef __DEF_IINCHIP_DBG__
 235:.\w5200.c     **** 	// printf("sysinit()\r\n"); 
 236:.\w5200.c     **** #endif
 237:.\w5200.c     **** 
 238:.\w5200.c     **** 	ssum = 0;
 239:.\w5200.c     **** 	rsum = 0;
 240:.\w5200.c     **** 	
 241:.\w5200.c     **** 	SBUFBASEADDRESS[0] = (uint16_t)(__DEF_IINCHIP_MAP_TXBUF__);		/* Set base address of Tx memory for 
 686              		.loc 1 241 0
 687 0004 624B     		ldr	r3, .L72
 230:.\w5200.c     **** {
 688              		.loc 1 230 0
 689 0006 0290     		str	r0, [sp, #8]
 690              		.loc 1 241 0
 691 0008 624A     		ldr	r2, .L72+4
 242:.\w5200.c     **** 	RBUFBASEADDRESS[0] = (uint16_t)(__DEF_IINCHIP_MAP_RXBUF__);		/* Set base address of Rx memory for 
 692              		.loc 1 242 0
 693 000a 6348     		ldr	r0, .L72+8
 694              	.LVL62:
 695 000c 0024     		mov	r4, #0
 230:.\w5200.c     **** {
 696              		.loc 1 230 0
 697 000e 0391     		str	r1, [sp, #12]
 241:.\w5200.c     **** 	SBUFBASEADDRESS[0] = (uint16_t)(__DEF_IINCHIP_MAP_TXBUF__);		/* Set base address of Tx memory for 
 698              		.loc 1 241 0
 699 0010 9A85     		strh	r2, [r3, #44]
 700              		.loc 1 242 0
 701 0012 9884     		strh	r0, [r3, #36]
 702              	.LVL63:
 703 0014 251C     		mov	r5, r4
 239:.\w5200.c     **** 	rsum = 0;
 704              		.loc 1 239 0
 705 0016 0194     		str	r4, [sp, #4]
 238:.\w5200.c     **** 	ssum = 0;
 706              		.loc 1 238 0
 707 0018 261C     		mov	r6, r4
 708              	.LVL64:
 709              	.L65:
ARM GAS  C:\Users\atsu\AppData\Local\Temp\ccDwwNoN.s 			page 18


 229:.\w5200.c     **** void sysinit( uint8_t * tx_size, uint8_t * rx_size	)
 710              		.loc 1 229 0
 711 001a 6049     		ldr	r1, .L72+12
 712 001c 2F02     		lsl	r7, r5, #8
 243:.\w5200.c     **** 
 244:.\w5200.c     ****   for (i = 0 ; i < MAX_SOCK_NUM; i++)       // Set the size, masking and base address of Tx & Rx me
 245:.\w5200.c     **** 	{
 246:.\w5200.c     ****     IINCHIP_WRITE((Sn_TXMEM_SIZE(i)),tx_size[i]);
 713              		.loc 1 246 0
 714 001e 029A     		ldr	r2, [sp, #8]
 229:.\w5200.c     **** void sysinit( uint8_t * tx_size, uint8_t * rx_size	)
 715              		.loc 1 229 0
 716 0020 BFB2     		uxth	r7, r7
 717 0022 7B18     		add	r3, r7, r1
 718              		.loc 1 246 0
 719 0024 98B2     		uxth	r0, r3
 720 0026 515D     		ldrb	r1, [r2, r5]
 721 0028 FFF7FEFF 		bl	IINCHIP_WRITE
 722              	.LVL65:
 229:.\w5200.c     **** void sysinit( uint8_t * tx_size, uint8_t * rx_size	)
 723              		.loc 1 229 0
 724 002c 5C48     		ldr	r0, .L72+16
 247:.\w5200.c     ****     IINCHIP_WRITE((Sn_RXMEM_SIZE(i)),rx_size[i]);
 725              		.loc 1 247 0
 726 002e 0399     		ldr	r1, [sp, #12]
 229:.\w5200.c     **** void sysinit( uint8_t * tx_size, uint8_t * rx_size	)
 727              		.loc 1 229 0
 728 0030 3F18     		add	r7, r7, r0
 729              		.loc 1 247 0
 730 0032 B8B2     		uxth	r0, r7
 731 0034 495D     		ldrb	r1, [r1, r5]
 732 0036 FFF7FEFF 		bl	IINCHIP_WRITE
 733              	.LVL66:
 248:.\w5200.c     **** 
 249:.\w5200.c     **** #ifdef __DEF_IINCHIP_DBG__
 250:.\w5200.c     ****          // printf("Sn_TXMEM_SIZE = %d\r\n",IINCHIP_READ(Sn_TXMEM_SIZE(i)));
 251:.\w5200.c     ****          // printf("Sn_RXMEM_SIZE = %d\r\n",IINCHIP_READ(Sn_RXMEM_SIZE(i)));
 252:.\w5200.c     **** #endif
 253:.\w5200.c     **** 
 254:.\w5200.c     **** 		SSIZE[i] = (int16_t)(0);
 734              		.loc 1 254 0
 735 003a 554B     		ldr	r3, .L72
 736 003c 0022     		mov	r2, #0
 737 003e 181C     		mov	r0, r3
 738 0040 0C30     		add	r0, r0, #12
 739 0042 2252     		strh	r2, [r4, r0]
 255:.\w5200.c     **** 		RSIZE[i] = (int16_t)(0);
 740              		.loc 1 255 0
 741 0044 1F1D     		add	r7, r3, #4
 742 0046 8020     		mov	r0, #128
 256:.\w5200.c     **** 
 257:.\w5200.c     **** 		if (ssum <= 16384)
 743              		.loc 1 257 0
 744 0048 31B2     		sxth	r1, r6
 255:.\w5200.c     **** 		RSIZE[i] = (int16_t)(0);
 745              		.loc 1 255 0
 746 004a E253     		strh	r2, [r4, r7]
ARM GAS  C:\Users\atsu\AppData\Local\Temp\ccDwwNoN.s 			page 19


 747 004c C201     		lsl	r2, r0, #7
 748              		.loc 1 257 0
 749 004e 9142     		cmp	r1, r2
 750 0050 39DC     		bgt	.L50
 258:.\w5200.c     **** 		{
 259:.\w5200.c     ****          switch( tx_size[i] )
 751              		.loc 1 259 0
 752 0052 029F     		ldr	r7, [sp, #8]
 753 0054 785D     		ldrb	r0, [r7, r5]
 754 0056 0138     		sub	r0, r0, #1
 755 0058 0F28     		cmp	r0, #15
 756 005a 34D8     		bhi	.L50
 757 005c FFF7FEFF 		bl	__gnu_thumb1_case_uqi
 758              	.L56:
 759 0060 08       		.byte	(.L51-.L56)/2
 760 0061 11       		.byte	(.L52-.L56)/2
 761 0062 33       		.byte	(.L50-.L56)/2
 762 0063 1A       		.byte	(.L53-.L56)/2
 763 0064 33       		.byte	(.L50-.L56)/2
 764 0065 33       		.byte	(.L50-.L56)/2
 765 0066 33       		.byte	(.L50-.L56)/2
 766 0067 23       		.byte	(.L54-.L56)/2
 767 0068 33       		.byte	(.L50-.L56)/2
 768 0069 33       		.byte	(.L50-.L56)/2
 769 006a 33       		.byte	(.L50-.L56)/2
 770 006b 33       		.byte	(.L50-.L56)/2
 771 006c 33       		.byte	(.L50-.L56)/2
 772 006d 33       		.byte	(.L50-.L56)/2
 773 006e 33       		.byte	(.L50-.L56)/2
 774 006f 2C       		.byte	(.L55-.L56)/2
 775              		.align	1
 776              	.L51:
 260:.\w5200.c     **** 			{
 261:.\w5200.c     **** 			case 1:
 262:.\w5200.c     **** 				SSIZE[i] = (int16_t)(1024);
 777              		.loc 1 262 0
 778 0070 8027     		mov	r7, #128
 779 0072 191C     		mov	r1, r3
 780 0074 F800     		lsl	r0, r7, #3
 781 0076 0C31     		add	r1, r1, #12
 263:.\w5200.c     **** 				SMASK[i] = (uint16_t)(0x03FF);
 782              		.loc 1 263 0
 783 0078 1F1C     		mov	r7, r3
 262:.\w5200.c     **** 				SSIZE[i] = (int16_t)(1024);
 784              		.loc 1 262 0
 785 007a 6052     		strh	r0, [r4, r1]
 786              		.loc 1 263 0
 787 007c 1C37     		add	r7, r7, #28
 788 007e 4948     		ldr	r0, .L72+20
 789 0080 20E0     		b	.L70
 790              	.L52:
 264:.\w5200.c     **** 				break;
 265:.\w5200.c     **** 			case 2:
 266:.\w5200.c     **** 				SSIZE[i] = (int16_t)(2048);
 791              		.loc 1 266 0
 792 0082 8027     		mov	r7, #128
 793 0084 191C     		mov	r1, r3
ARM GAS  C:\Users\atsu\AppData\Local\Temp\ccDwwNoN.s 			page 20


 794 0086 3801     		lsl	r0, r7, #4
 795 0088 0C31     		add	r1, r1, #12
 267:.\w5200.c     **** 				SMASK[i] = (uint16_t)(0x07FF);
 796              		.loc 1 267 0
 797 008a 1F1C     		mov	r7, r3
 266:.\w5200.c     **** 				SSIZE[i] = (int16_t)(2048);
 798              		.loc 1 266 0
 799 008c 6052     		strh	r0, [r4, r1]
 800              		.loc 1 267 0
 801 008e 1C37     		add	r7, r7, #28
 802 0090 4548     		ldr	r0, .L72+24
 803 0092 17E0     		b	.L70
 804              	.L53:
 268:.\w5200.c     **** 				break;
 269:.\w5200.c     **** 			case 4:
 270:.\w5200.c     **** 				SSIZE[i] = (int16_t)(4096);
 805              		.loc 1 270 0
 806 0094 8027     		mov	r7, #128
 807 0096 191C     		mov	r1, r3
 808 0098 7801     		lsl	r0, r7, #5
 809 009a 0C31     		add	r1, r1, #12
 271:.\w5200.c     **** 				SMASK[i] = (uint16_t)(0x0FFF);
 810              		.loc 1 271 0
 811 009c 1F1C     		mov	r7, r3
 270:.\w5200.c     **** 				SSIZE[i] = (int16_t)(4096);
 812              		.loc 1 270 0
 813 009e 6052     		strh	r0, [r4, r1]
 814              		.loc 1 271 0
 815 00a0 1C37     		add	r7, r7, #28
 816 00a2 4248     		ldr	r0, .L72+28
 817 00a4 0EE0     		b	.L70
 818              	.L54:
 272:.\w5200.c     **** 				break;
 273:.\w5200.c     **** 			case 8:
 274:.\w5200.c     **** 				SSIZE[i] = (int16_t)(8192);
 819              		.loc 1 274 0
 820 00a6 8027     		mov	r7, #128
 821 00a8 191C     		mov	r1, r3
 822 00aa B801     		lsl	r0, r7, #6
 823 00ac 0C31     		add	r1, r1, #12
 275:.\w5200.c     **** 				SMASK[i] = (uint16_t)(0x1FFF);
 824              		.loc 1 275 0
 825 00ae 1F1C     		mov	r7, r3
 274:.\w5200.c     **** 				SSIZE[i] = (int16_t)(8192);
 826              		.loc 1 274 0
 827 00b0 6052     		strh	r0, [r4, r1]
 828              		.loc 1 275 0
 829 00b2 1C37     		add	r7, r7, #28
 830 00b4 3E48     		ldr	r0, .L72+32
 831 00b6 05E0     		b	.L70
 832              	.L55:
 276:.\w5200.c     **** 				break;
 277:.\w5200.c     **** 			case 16:
 278:.\w5200.c     **** 				SSIZE[i] = (int16_t)(16384);
 833              		.loc 1 278 0
 834 00b8 191C     		mov	r1, r3
 835 00ba 0C31     		add	r1, r1, #12
ARM GAS  C:\Users\atsu\AppData\Local\Temp\ccDwwNoN.s 			page 21


 279:.\w5200.c     **** 				SMASK[i] = (uint16_t)(0x3FFF);
 836              		.loc 1 279 0
 837 00bc 1F1C     		mov	r7, r3
 838 00be 3D48     		ldr	r0, .L72+36
 278:.\w5200.c     **** 				SSIZE[i] = (int16_t)(16384);
 839              		.loc 1 278 0
 840 00c0 6252     		strh	r2, [r4, r1]
 841              		.loc 1 279 0
 842 00c2 1C37     		add	r7, r7, #28
 843              	.L70:
 844 00c4 E053     		strh	r0, [r4, r7]
 845              	.L50:
 280:.\w5200.c     **** 			break;
 281:.\w5200.c     **** 			}
 282:.\w5200.c     **** 		}
 283:.\w5200.c     **** 
 284:.\w5200.c     **** 		if (rsum <= 16384)
 846              		.loc 1 284 0
 847 00c6 6946     		mov	r1, sp
 848 00c8 0420     		mov	r0, #4
 849 00ca 0F5E     		ldrsh	r7, [r1, r0]
 850 00cc 9742     		cmp	r7, r2
 851 00ce 36DC     		bgt	.L57
 285:.\w5200.c     **** 		{
 286:.\w5200.c     ****          switch( rx_size[i] )
 852              		.loc 1 286 0
 853 00d0 039A     		ldr	r2, [sp, #12]
 854 00d2 505D     		ldrb	r0, [r2, r5]
 855 00d4 0138     		sub	r0, r0, #1
 856 00d6 0F28     		cmp	r0, #15
 857 00d8 31D8     		bhi	.L57
 858 00da FFF7FEFF 		bl	__gnu_thumb1_case_uqi
 859              	.L63:
 860 00de 08       		.byte	(.L58-.L63)/2
 861 00df 10       		.byte	(.L59-.L63)/2
 862 00e0 30       		.byte	(.L57-.L63)/2
 863 00e1 18       		.byte	(.L60-.L63)/2
 864 00e2 30       		.byte	(.L57-.L63)/2
 865 00e3 30       		.byte	(.L57-.L63)/2
 866 00e4 30       		.byte	(.L57-.L63)/2
 867 00e5 20       		.byte	(.L61-.L63)/2
 868 00e6 30       		.byte	(.L57-.L63)/2
 869 00e7 30       		.byte	(.L57-.L63)/2
 870 00e8 30       		.byte	(.L57-.L63)/2
 871 00e9 30       		.byte	(.L57-.L63)/2
 872 00ea 30       		.byte	(.L57-.L63)/2
 873 00eb 30       		.byte	(.L57-.L63)/2
 874 00ec 30       		.byte	(.L57-.L63)/2
 875 00ed 28       		.byte	(.L62-.L63)/2
 876              		.align	1
 877              	.L58:
 287:.\w5200.c     **** 			{
 288:.\w5200.c     **** 			case 1:
 289:.\w5200.c     **** 				RSIZE[i] = (int16_t)(1024);
 878              		.loc 1 289 0
 879 00ee 8021     		mov	r1, #128
 880 00f0 1A1D     		add	r2, r3, #4
ARM GAS  C:\Users\atsu\AppData\Local\Temp\ccDwwNoN.s 			page 22


 881 00f2 C800     		lsl	r0, r1, #3
 882 00f4 A052     		strh	r0, [r4, r2]
 290:.\w5200.c     **** 				RMASK[i] = (uint16_t)(0x03FF);
 883              		.loc 1 290 0
 884 00f6 1A1C     		mov	r2, r3
 885 00f8 1432     		add	r2, r2, #20
 886 00fa 2A48     		ldr	r0, .L72+20
 887 00fc 1EE0     		b	.L71
 888              	.L59:
 291:.\w5200.c     **** 				break;
 292:.\w5200.c     **** 			case 2:
 293:.\w5200.c     **** 				RSIZE[i] = (int16_t)(2048);
 889              		.loc 1 293 0
 890 00fe 8020     		mov	r0, #128
 891 0100 1A1D     		add	r2, r3, #4
 892 0102 0701     		lsl	r7, r0, #4
 893 0104 A752     		strh	r7, [r4, r2]
 294:.\w5200.c     **** 				RMASK[i] = (uint16_t)(0x07FF);
 894              		.loc 1 294 0
 895 0106 1A1C     		mov	r2, r3
 896 0108 1432     		add	r2, r2, #20
 897 010a 2748     		ldr	r0, .L72+24
 898 010c 16E0     		b	.L71
 899              	.L60:
 295:.\w5200.c     **** 				break;
 296:.\w5200.c     **** 			case 4:
 297:.\w5200.c     **** 				RSIZE[i] = (int16_t)(4096);
 900              		.loc 1 297 0
 901 010e 8027     		mov	r7, #128
 902 0110 181D     		add	r0, r3, #4
 903 0112 7901     		lsl	r1, r7, #5
 298:.\w5200.c     **** 				RMASK[i] = (uint16_t)(0x0FFF);
 904              		.loc 1 298 0
 905 0114 1A1C     		mov	r2, r3
 297:.\w5200.c     **** 				RSIZE[i] = (int16_t)(4096);
 906              		.loc 1 297 0
 907 0116 2152     		strh	r1, [r4, r0]
 908              		.loc 1 298 0
 909 0118 1432     		add	r2, r2, #20
 910 011a 2448     		ldr	r0, .L72+28
 911 011c 0EE0     		b	.L71
 912              	.L61:
 299:.\w5200.c     **** 				break;
 300:.\w5200.c     **** 			case 8:
 301:.\w5200.c     **** 				RSIZE[i] = (int16_t)(8192);
 913              		.loc 1 301 0
 914 011e 8021     		mov	r1, #128
 915 0120 8A01     		lsl	r2, r1, #6
 916 0122 1F1D     		add	r7, r3, #4
 917 0124 E253     		strh	r2, [r4, r7]
 302:.\w5200.c     **** 				RMASK[i] = (uint16_t)(0x1FFF);
 918              		.loc 1 302 0
 919 0126 1A1C     		mov	r2, r3
 920 0128 1432     		add	r2, r2, #20
 921 012a 2148     		ldr	r0, .L72+32
 922 012c 06E0     		b	.L71
 923              	.L62:
ARM GAS  C:\Users\atsu\AppData\Local\Temp\ccDwwNoN.s 			page 23


 303:.\w5200.c     **** 				break;
 304:.\w5200.c     **** 			case 16:
 305:.\w5200.c     **** 				RSIZE[i] = (int16_t)(16384);
 924              		.loc 1 305 0
 925 012e 8021     		mov	r1, #128
 926 0130 181D     		add	r0, r3, #4
 927 0132 CF01     		lsl	r7, r1, #7
 928 0134 2752     		strh	r7, [r4, r0]
 306:.\w5200.c     **** 				RMASK[i] = (uint16_t)(0x3FFF);
 929              		.loc 1 306 0
 930 0136 1A1C     		mov	r2, r3
 931 0138 1E48     		ldr	r0, .L72+36
 932 013a 1432     		add	r2, r2, #20
 933              	.L71:
 934 013c A052     		strh	r0, [r4, r2]
 935              	.L57:
 307:.\w5200.c     **** 				break;
 308:.\w5200.c     **** 			}
 309:.\w5200.c     **** 		}
 310:.\w5200.c     **** 		ssum += SSIZE[i];
 936              		.loc 1 310 0
 937 013e 181C     		mov	r0, r3
 938 0140 0C30     		add	r0, r0, #12
 939 0142 275A     		ldrh	r7, [r4, r0]
 311:.\w5200.c     **** 		rsum += RSIZE[i];
 940              		.loc 1 311 0
 941 0144 1A1D     		add	r2, r3, #4
 310:.\w5200.c     **** 		ssum += SSIZE[i];
 942              		.loc 1 310 0
 943 0146 BE19     		add	r6, r7, r6
 944              		.loc 1 311 0
 945 0148 A15A     		ldrh	r1, [r4, r2]
 946 014a 019F     		ldr	r7, [sp, #4]
 310:.\w5200.c     **** 		ssum += SSIZE[i];
 947              		.loc 1 310 0
 948 014c B6B2     		uxth	r6, r6
 949              	.LVL67:
 950              		.loc 1 311 0
 951 014e C919     		add	r1, r1, r7
 952 0150 8FB2     		uxth	r7, r1
 312:.\w5200.c     **** 
 313:.\w5200.c     ****         if (i != 0)             // Sets base address of Tx and Rx memory for channel #1,#2,#3
 953              		.loc 1 313 0
 954 0152 29B2     		sxth	r1, r5
 311:.\w5200.c     **** 		rsum += RSIZE[i];
 955              		.loc 1 311 0
 956 0154 0197     		str	r7, [sp, #4]
 957              	.LVL68:
 958              		.loc 1 313 0
 959 0156 0029     		cmp	r1, #0
 960 0158 12D0     		beq	.L64
 314:.\w5200.c     **** 		{
 315:.\w5200.c     **** 			SBUFBASEADDRESS[i] = SBUFBASEADDRESS[i-1] + SSIZE[i-1];
 961              		.loc 1 315 0
 962 015a 191C     		mov	r1, r3
 963 015c 2C31     		add	r1, r1, #44
 229:.\w5200.c     **** void sysinit( uint8_t * tx_size, uint8_t * rx_size	)
ARM GAS  C:\Users\atsu\AppData\Local\Temp\ccDwwNoN.s 			page 24


 964              		.loc 1 229 0
 965 015e 0019     		add	r0, r0, r4
 966 0160 871E     		sub	r7, r0, #2
 967 0162 0819     		add	r0, r1, r4
 968 0164 0238     		sub	r0, r0, #2
 969              		.loc 1 315 0
 970 0166 0088     		ldrh	r0, [r0]
 971 0168 3F88     		ldrh	r7, [r7]
 316:.\w5200.c     **** 			RBUFBASEADDRESS[i] = RBUFBASEADDRESS[i-1] + RSIZE[i-1];
 972              		.loc 1 316 0
 973 016a 2433     		add	r3, r3, #36
 315:.\w5200.c     **** 			SBUFBASEADDRESS[i] = SBUFBASEADDRESS[i-1] + SSIZE[i-1];
 974              		.loc 1 315 0
 975 016c 3F18     		add	r7, r7, r0
 229:.\w5200.c     **** void sysinit( uint8_t * tx_size, uint8_t * rx_size	)
 976              		.loc 1 229 0
 977 016e 1219     		add	r2, r2, r4
 978 0170 1819     		add	r0, r3, r4
 979 0172 023A     		sub	r2, r2, #2
 980 0174 0238     		sub	r0, r0, #2
 315:.\w5200.c     **** 			SBUFBASEADDRESS[i] = SBUFBASEADDRESS[i-1] + SSIZE[i-1];
 981              		.loc 1 315 0
 982 0176 6752     		strh	r7, [r4, r1]
 983              		.loc 1 316 0
 984 0178 0788     		ldrh	r7, [r0]
 985 017a 1188     		ldrh	r1, [r2]
 986 017c CA19     		add	r2, r1, r7
 987 017e E252     		strh	r2, [r4, r3]
 988              	.L64:
 989 0180 0135     		add	r5, r5, #1
 990 0182 0234     		add	r4, r4, #2
 244:.\w5200.c     ****   for (i = 0 ; i < MAX_SOCK_NUM; i++)       // Set the size, masking and base address of Tx & Rx me
 991              		.loc 1 244 0
 992 0184 042D     		cmp	r5, #4
 993 0186 00D0     		beq	.LCB851
 994 0188 47E7     		b	.L65	@long jump
 995              	.LCB851:
 317:.\w5200.c     **** 		}
 318:.\w5200.c     **** #ifdef __DEF_IINCHIP_DBG__
 319:.\w5200.c     **** 		// printf("ch = %d\r\n",i);
 320:.\w5200.c     **** 		// printf("SBUFBASEADDRESS = %d\r\n",(uint16_t)SBUFBASEADDRESS[i]);
 321:.\w5200.c     **** 		// printf("RBUFBASEADDRESS = %d\r\n",(uint16_t)RBUFBASEADDRESS[i]);
 322:.\w5200.c     **** 		// printf("SSIZE = %d\r\n",SSIZE[i]);
 323:.\w5200.c     **** 		// printf("RSIZE = %d\r\n",RSIZE[i]);		
 324:.\w5200.c     **** #endif
 325:.\w5200.c     **** 	}
 326:.\w5200.c     **** }
 996              		.loc 1 326 0
 997 018a 05B0     		add	sp, sp, #20
 998              		@ sp needed for prologue
 999              	.LVL69:
 1000 018c F0BD     		pop	{r4, r5, r6, r7, pc}
 1001              	.L73:
 1002 018e C046     		.align	2
 1003              	.L72:
 1004 0190 00000000 		.word	.LANCHOR0
 1005 0194 0080FFFF 		.word	-32768
ARM GAS  C:\Users\atsu\AppData\Local\Temp\ccDwwNoN.s 			page 25


 1006 0198 00C0FFFF 		.word	-16384
 1007 019c 1F400000 		.word	16415
 1008 01a0 1E400000 		.word	16414
 1009 01a4 FF030000 		.word	1023
 1010 01a8 FF070000 		.word	2047
 1011 01ac FF0F0000 		.word	4095
 1012 01b0 FF1F0000 		.word	8191
 1013 01b4 FF3F0000 		.word	16383
 1014              		.cfi_endproc
 1015              	.LFE18:
 1016              		.size	sysinit, .-sysinit
 1017              		.section	.text.setGAR,"ax",%progbits
 1018              		.align	1
 1019              		.global	setGAR
 1020              		.code	16
 1021              		.thumb_func
 1022              		.type	setGAR, %function
 1023              	setGAR:
 1024              	.LFB19:
 327:.\w5200.c     **** 
 328:.\w5200.c     **** // added
 329:.\w5200.c     **** 
 330:.\w5200.c     **** /**
 331:.\w5200.c     **** @brief	This function sets up gateway IP address.
 332:.\w5200.c     **** */ 
 333:.\w5200.c     **** void setGAR(
 334:.\w5200.c     **** 	uint8_t * addr	/**< a pointer to a 4 -byte array responsible to set the Gateway IP address. */
 335:.\w5200.c     **** 	)
 336:.\w5200.c     **** {
 1025              		.loc 1 336 0
 1026              		.cfi_startproc
 1027              	.LVL70:
 1028 0000 10B5     		push	{r4, lr}
 1029              	.LCFI9:
 1030              		.cfi_def_cfa_offset 8
 1031              		.cfi_offset 4, -8
 1032              		.cfi_offset 14, -4
 1033              		.loc 1 336 0
 1034 0002 041C     		mov	r4, r0
 337:.\w5200.c     **** 	IINCHIP_WRITE((GAR0 + 0),addr[0]);
 1035              		.loc 1 337 0
 1036 0004 0178     		ldrb	r1, [r0]
 1037 0006 0120     		mov	r0, #1
 1038              	.LVL71:
 1039 0008 FFF7FEFF 		bl	IINCHIP_WRITE
 1040              	.LVL72:
 338:.\w5200.c     **** 	IINCHIP_WRITE((GAR0 + 1),addr[1]);
 1041              		.loc 1 338 0
 1042 000c 6178     		ldrb	r1, [r4, #1]
 1043 000e 0220     		mov	r0, #2
 1044 0010 FFF7FEFF 		bl	IINCHIP_WRITE
 1045              	.LVL73:
 339:.\w5200.c     **** 	IINCHIP_WRITE((GAR0 + 2),addr[2]);
 1046              		.loc 1 339 0
 1047 0014 A178     		ldrb	r1, [r4, #2]
 1048 0016 0320     		mov	r0, #3
 1049 0018 FFF7FEFF 		bl	IINCHIP_WRITE
ARM GAS  C:\Users\atsu\AppData\Local\Temp\ccDwwNoN.s 			page 26


 1050              	.LVL74:
 340:.\w5200.c     **** 	IINCHIP_WRITE((GAR0 + 3),addr[3]);
 1051              		.loc 1 340 0
 1052 001c E178     		ldrb	r1, [r4, #3]
 1053 001e 0420     		mov	r0, #4
 1054 0020 FFF7FEFF 		bl	IINCHIP_WRITE
 1055              	.LVL75:
 341:.\w5200.c     **** }
 1056              		.loc 1 341 0
 1057              		@ sp needed for prologue
 1058              	.LVL76:
 1059 0024 10BD     		pop	{r4, pc}
 1060              		.cfi_endproc
 1061              	.LFE19:
 1062              		.size	setGAR, .-setGAR
 1063              		.section	.text.saveSUBR,"ax",%progbits
 1064              		.align	1
 1065              		.global	saveSUBR
 1066              		.code	16
 1067              		.thumb_func
 1068              		.type	saveSUBR, %function
 1069              	saveSUBR:
 1070              	.LFB20:
 342:.\w5200.c     **** 
 343:.\w5200.c     **** /*
 344:.\w5200.c     **** void getGWIP(uint8_t * addr)
 345:.\w5200.c     **** {
 346:.\w5200.c     **** 	addr[0] = IINCHIP_READ((GAR0 + 0));
 347:.\w5200.c     **** 	addr[1] = IINCHIP_READ((GAR0 + 1));
 348:.\w5200.c     **** 	addr[2] = IINCHIP_READ((GAR0 + 2));
 349:.\w5200.c     **** 	addr[3] = IINCHIP_READ((GAR0 + 3));
 350:.\w5200.c     **** }
 351:.\w5200.c     **** */
 352:.\w5200.c     **** 
 353:.\w5200.c     **** /**
 354:.\w5200.c     **** @brief	It sets up SubnetMask address
 355:.\w5200.c     **** */ 
 356:.\w5200.c     **** void saveSUBR(
 357:.\w5200.c     **** 	uint8_t * addr	/**< a pointer to a 4 -byte array responsible to set the SubnetMask address */
 358:.\w5200.c     **** 	)
 359:.\w5200.c     **** {
 1071              		.loc 1 359 0
 1072              		.cfi_startproc
 1073              	.LVL77:
 360:.\w5200.c     **** 	SUBNET[0] = addr[0];
 1074              		.loc 1 360 0
 1075 0000 084B     		ldr	r3, .L76
 1076 0002 0178     		ldrb	r1, [r0]
 1077 0004 1A1C     		mov	r2, r3
 1078 0006 3432     		add	r2, r2, #52
 1079 0008 1170     		strb	r1, [r2]
 361:.\w5200.c     **** 	SUBNET[1] = addr[1];
 1080              		.loc 1 361 0
 1081 000a 4178     		ldrb	r1, [r0, #1]
 1082 000c 1A1C     		mov	r2, r3
 1083 000e 3532     		add	r2, r2, #53
 1084 0010 1170     		strb	r1, [r2]
ARM GAS  C:\Users\atsu\AppData\Local\Temp\ccDwwNoN.s 			page 27


 362:.\w5200.c     **** 	SUBNET[2] = addr[2];
 1085              		.loc 1 362 0
 1086 0012 8178     		ldrb	r1, [r0, #2]
 1087 0014 1A1C     		mov	r2, r3
 363:.\w5200.c     **** 	SUBNET[3] = addr[3];
 1088              		.loc 1 363 0
 1089 0016 C078     		ldrb	r0, [r0, #3]
 1090              	.LVL78:
 362:.\w5200.c     **** 	SUBNET[2] = addr[2];
 1091              		.loc 1 362 0
 1092 0018 3632     		add	r2, r2, #54
 1093              		.loc 1 363 0
 1094 001a 3733     		add	r3, r3, #55
 362:.\w5200.c     **** 	SUBNET[2] = addr[2];
 1095              		.loc 1 362 0
 1096 001c 1170     		strb	r1, [r2]
 1097              		.loc 1 363 0
 1098 001e 1870     		strb	r0, [r3]
 364:.\w5200.c     **** }
 1099              		.loc 1 364 0
 1100              		@ sp needed for prologue
 1101 0020 7047     		bx	lr
 1102              	.L77:
 1103 0022 C046     		.align	2
 1104              	.L76:
 1105 0024 00000000 		.word	.LANCHOR0
 1106              		.cfi_endproc
 1107              	.LFE20:
 1108              		.size	saveSUBR, .-saveSUBR
 1109              		.section	.text.setSUBR,"ax",%progbits
 1110              		.align	1
 1111              		.global	setSUBR
 1112              		.code	16
 1113              		.thumb_func
 1114              		.type	setSUBR, %function
 1115              	setSUBR:
 1116              	.LFB21:
 365:.\w5200.c     **** 
 366:.\w5200.c     **** void setSUBR(void)
 367:.\w5200.c     **** {   
 1117              		.loc 1 367 0
 1118              		.cfi_startproc
 1119 0000 10B5     		push	{r4, lr}
 1120              	.LCFI10:
 1121              		.cfi_def_cfa_offset 8
 1122              		.cfi_offset 4, -8
 1123              		.cfi_offset 14, -4
 368:.\w5200.c     **** 	IINCHIP_WRITE((SUBR0 + 0), SUBNET[0]);
 1124              		.loc 1 368 0
 1125 0002 0C4C     		ldr	r4, .L79
 1126 0004 0520     		mov	r0, #5
 1127 0006 231C     		mov	r3, r4
 1128 0008 3433     		add	r3, r3, #52
 1129 000a 1978     		ldrb	r1, [r3]
 1130 000c FFF7FEFF 		bl	IINCHIP_WRITE
 1131              	.LVL79:
 369:.\w5200.c     **** 	IINCHIP_WRITE((SUBR0 + 1), SUBNET[1]);
ARM GAS  C:\Users\atsu\AppData\Local\Temp\ccDwwNoN.s 			page 28


 1132              		.loc 1 369 0
 1133 0010 201C     		mov	r0, r4
 1134 0012 3530     		add	r0, r0, #53
 1135 0014 0178     		ldrb	r1, [r0]
 1136 0016 0620     		mov	r0, #6
 1137 0018 FFF7FEFF 		bl	IINCHIP_WRITE
 1138              	.LVL80:
 370:.\w5200.c     **** 	IINCHIP_WRITE((SUBR0 + 2), SUBNET[2]);
 1139              		.loc 1 370 0
 1140 001c 211C     		mov	r1, r4
 1141 001e 3631     		add	r1, r1, #54
 1142 0020 0978     		ldrb	r1, [r1]
 371:.\w5200.c     **** 	IINCHIP_WRITE((SUBR0 + 3), SUBNET[3]);
 1143              		.loc 1 371 0
 1144 0022 3734     		add	r4, r4, #55
 370:.\w5200.c     **** 	IINCHIP_WRITE((SUBR0 + 2), SUBNET[2]);
 1145              		.loc 1 370 0
 1146 0024 0720     		mov	r0, #7
 1147 0026 FFF7FEFF 		bl	IINCHIP_WRITE
 1148              	.LVL81:
 1149              		.loc 1 371 0
 1150 002a 2178     		ldrb	r1, [r4]
 1151 002c 0820     		mov	r0, #8
 1152 002e FFF7FEFF 		bl	IINCHIP_WRITE
 1153              	.LVL82:
 372:.\w5200.c     **** }
 1154              		.loc 1 372 0
 1155              		@ sp needed for prologue
 1156 0032 10BD     		pop	{r4, pc}
 1157              	.L80:
 1158              		.align	2
 1159              	.L79:
 1160 0034 00000000 		.word	.LANCHOR0
 1161              		.cfi_endproc
 1162              	.LFE21:
 1163              		.size	setSUBR, .-setSUBR
 1164              		.section	.text.setSHAR,"ax",%progbits
 1165              		.align	1
 1166              		.global	setSHAR
 1167              		.code	16
 1168              		.thumb_func
 1169              		.type	setSHAR, %function
 1170              	setSHAR:
 1171              	.LFB23:
 373:.\w5200.c     **** 
 374:.\w5200.c     **** void clearSUBR(void)
 375:.\w5200.c     **** {
 376:.\w5200.c     **** 	getSIPR(&IPVAL[0]);
 377:.\w5200.c     **** 	if(IPVAL[0] ==0 &&IPVAL[1] ==0 &&IPVAL[2] ==0&&IPVAL[3] ==0)
 378:.\w5200.c     **** 	{
 379:.\w5200.c     **** 		IINCHIP_WRITE((SUBR0 + 0), 0);
 380:.\w5200.c     **** 		IINCHIP_WRITE((SUBR0 + 1), 0);
 381:.\w5200.c     **** 		IINCHIP_WRITE((SUBR0 + 2), 0);
 382:.\w5200.c     **** 		IINCHIP_WRITE((SUBR0 + 3), 0);
 383:.\w5200.c     **** 	}
 384:.\w5200.c     **** }
 385:.\w5200.c     **** 
ARM GAS  C:\Users\atsu\AppData\Local\Temp\ccDwwNoN.s 			page 29


 386:.\w5200.c     **** 
 387:.\w5200.c     **** /**
 388:.\w5200.c     **** @brief	This function sets up MAC address.
 389:.\w5200.c     **** */ 
 390:.\w5200.c     **** void setSHAR(
 391:.\w5200.c     **** 	uint8_t * addr	/**< a pointer to a 6 -byte array responsible to set the MAC address. */
 392:.\w5200.c     **** 	)
 393:.\w5200.c     **** {
 1172              		.loc 1 393 0
 1173              		.cfi_startproc
 1174              	.LVL83:
 1175 0000 10B5     		push	{r4, lr}
 1176              	.LCFI11:
 1177              		.cfi_def_cfa_offset 8
 1178              		.cfi_offset 4, -8
 1179              		.cfi_offset 14, -4
 1180              		.loc 1 393 0
 1181 0002 041C     		mov	r4, r0
 394:.\w5200.c     **** 	IINCHIP_WRITE((SHAR0 + 0),addr[0]);
 1182              		.loc 1 394 0
 1183 0004 0178     		ldrb	r1, [r0]
 1184 0006 0920     		mov	r0, #9
 1185              	.LVL84:
 1186 0008 FFF7FEFF 		bl	IINCHIP_WRITE
 1187              	.LVL85:
 395:.\w5200.c     **** 	IINCHIP_WRITE((SHAR0 + 1),addr[1]);
 1188              		.loc 1 395 0
 1189 000c 6178     		ldrb	r1, [r4, #1]
 1190 000e 0A20     		mov	r0, #10
 1191 0010 FFF7FEFF 		bl	IINCHIP_WRITE
 1192              	.LVL86:
 396:.\w5200.c     **** 	IINCHIP_WRITE((SHAR0 + 2),addr[2]);
 1193              		.loc 1 396 0
 1194 0014 A178     		ldrb	r1, [r4, #2]
 1195 0016 0B20     		mov	r0, #11
 1196 0018 FFF7FEFF 		bl	IINCHIP_WRITE
 1197              	.LVL87:
 397:.\w5200.c     **** 	IINCHIP_WRITE((SHAR0 + 3),addr[3]);
 1198              		.loc 1 397 0
 1199 001c E178     		ldrb	r1, [r4, #3]
 1200 001e 0C20     		mov	r0, #12
 1201 0020 FFF7FEFF 		bl	IINCHIP_WRITE
 1202              	.LVL88:
 398:.\w5200.c     **** 	IINCHIP_WRITE((SHAR0 + 4),addr[4]);
 1203              		.loc 1 398 0
 1204 0024 2179     		ldrb	r1, [r4, #4]
 1205 0026 0D20     		mov	r0, #13
 1206 0028 FFF7FEFF 		bl	IINCHIP_WRITE
 1207              	.LVL89:
 399:.\w5200.c     **** 	IINCHIP_WRITE((SHAR0 + 5),addr[5]);
 1208              		.loc 1 399 0
 1209 002c 6179     		ldrb	r1, [r4, #5]
 1210 002e 0E20     		mov	r0, #14
 1211 0030 FFF7FEFF 		bl	IINCHIP_WRITE
 1212              	.LVL90:
 400:.\w5200.c     **** }
 1213              		.loc 1 400 0
ARM GAS  C:\Users\atsu\AppData\Local\Temp\ccDwwNoN.s 			page 30


 1214              		@ sp needed for prologue
 1215              	.LVL91:
 1216 0034 10BD     		pop	{r4, pc}
 1217              		.cfi_endproc
 1218              	.LFE23:
 1219              		.size	setSHAR, .-setSHAR
 1220              		.section	.text.setSIPR,"ax",%progbits
 1221              		.align	1
 1222              		.global	setSIPR
 1223              		.code	16
 1224              		.thumb_func
 1225              		.type	setSIPR, %function
 1226              	setSIPR:
 1227              	.LFB24:
 401:.\w5200.c     **** 
 402:.\w5200.c     **** /**
 403:.\w5200.c     **** @brief	This function sets up Source IP address.
 404:.\w5200.c     **** */
 405:.\w5200.c     **** void setSIPR(
 406:.\w5200.c     **** 	uint8_t * addr	/**< a pointer to a 4 -byte array responsible to set the Source IP address. */
 407:.\w5200.c     **** 	)
 408:.\w5200.c     **** {
 1228              		.loc 1 408 0
 1229              		.cfi_startproc
 1230              	.LVL92:
 1231 0000 10B5     		push	{r4, lr}
 1232              	.LCFI12:
 1233              		.cfi_def_cfa_offset 8
 1234              		.cfi_offset 4, -8
 1235              		.cfi_offset 14, -4
 1236              		.loc 1 408 0
 1237 0002 041C     		mov	r4, r0
 409:.\w5200.c     **** 	IINCHIP_WRITE((SIPR0 + 0),addr[0]);
 1238              		.loc 1 409 0
 1239 0004 0178     		ldrb	r1, [r0]
 1240 0006 0F20     		mov	r0, #15
 1241              	.LVL93:
 1242 0008 FFF7FEFF 		bl	IINCHIP_WRITE
 1243              	.LVL94:
 410:.\w5200.c     **** 	IINCHIP_WRITE((SIPR0 + 1),addr[1]);
 1244              		.loc 1 410 0
 1245 000c 6178     		ldrb	r1, [r4, #1]
 1246 000e 1020     		mov	r0, #16
 1247 0010 FFF7FEFF 		bl	IINCHIP_WRITE
 1248              	.LVL95:
 411:.\w5200.c     **** 	IINCHIP_WRITE((SIPR0 + 2),addr[2]);
 1249              		.loc 1 411 0
 1250 0014 A178     		ldrb	r1, [r4, #2]
 1251 0016 1120     		mov	r0, #17
 1252 0018 FFF7FEFF 		bl	IINCHIP_WRITE
 1253              	.LVL96:
 412:.\w5200.c     **** 	IINCHIP_WRITE((SIPR0 + 3),addr[3]);
 1254              		.loc 1 412 0
 1255 001c E178     		ldrb	r1, [r4, #3]
 1256 001e 1220     		mov	r0, #18
 1257 0020 FFF7FEFF 		bl	IINCHIP_WRITE
 1258              	.LVL97:
ARM GAS  C:\Users\atsu\AppData\Local\Temp\ccDwwNoN.s 			page 31


 413:.\w5200.c     **** }
 1259              		.loc 1 413 0
 1260              		@ sp needed for prologue
 1261              	.LVL98:
 1262 0024 10BD     		pop	{r4, pc}
 1263              		.cfi_endproc
 1264              	.LFE24:
 1265              		.size	setSIPR, .-setSIPR
 1266              		.section	.text.getGAR,"ax",%progbits
 1267              		.align	1
 1268              		.global	getGAR
 1269              		.code	16
 1270              		.thumb_func
 1271              		.type	getGAR, %function
 1272              	getGAR:
 1273              	.LFB25:
 414:.\w5200.c     **** 
 415:.\w5200.c     **** /**
 416:.\w5200.c     **** @brief	This function sets up Source IP address.
 417:.\w5200.c     **** */
 418:.\w5200.c     **** void getGAR(uint8_t * addr)
 419:.\w5200.c     **** {
 1274              		.loc 1 419 0
 1275              		.cfi_startproc
 1276              	.LVL99:
 1277 0000 10B5     		push	{r4, lr}
 1278              	.LCFI13:
 1279              		.cfi_def_cfa_offset 8
 1280              		.cfi_offset 4, -8
 1281              		.cfi_offset 14, -4
 1282              		.loc 1 419 0
 1283 0002 041C     		mov	r4, r0
 420:.\w5200.c     **** 	addr[0] = IINCHIP_READ(GAR0);
 1284              		.loc 1 420 0
 1285 0004 0120     		mov	r0, #1
 1286              	.LVL100:
 1287 0006 FFF7FEFF 		bl	IINCHIP_READ
 1288              	.LVL101:
 1289 000a 2070     		strb	r0, [r4]
 421:.\w5200.c     **** 	addr[1] = IINCHIP_READ(GAR0+1);
 1290              		.loc 1 421 0
 1291 000c 0220     		mov	r0, #2
 1292 000e FFF7FEFF 		bl	IINCHIP_READ
 1293              	.LVL102:
 1294 0012 6070     		strb	r0, [r4, #1]
 422:.\w5200.c     **** 	addr[2] = IINCHIP_READ(GAR0+2);
 1295              		.loc 1 422 0
 1296 0014 0320     		mov	r0, #3
 1297 0016 FFF7FEFF 		bl	IINCHIP_READ
 1298              	.LVL103:
 1299 001a A070     		strb	r0, [r4, #2]
 423:.\w5200.c     **** 	addr[3] = IINCHIP_READ(GAR0+3);
 1300              		.loc 1 423 0
 1301 001c 0420     		mov	r0, #4
 1302 001e FFF7FEFF 		bl	IINCHIP_READ
 1303              	.LVL104:
 424:.\w5200.c     **** }
ARM GAS  C:\Users\atsu\AppData\Local\Temp\ccDwwNoN.s 			page 32


 1304              		.loc 1 424 0
 1305              		@ sp needed for prologue
 423:.\w5200.c     **** 	addr[3] = IINCHIP_READ(GAR0+3);
 1306              		.loc 1 423 0
 1307 0022 E070     		strb	r0, [r4, #3]
 1308              	.LVL105:
 1309              		.loc 1 424 0
 1310 0024 10BD     		pop	{r4, pc}
 1311              		.cfi_endproc
 1312              	.LFE25:
 1313              		.size	getGAR, .-getGAR
 1314              		.section	.text.getSUBR,"ax",%progbits
 1315              		.align	1
 1316              		.global	getSUBR
 1317              		.code	16
 1318              		.thumb_func
 1319              		.type	getSUBR, %function
 1320              	getSUBR:
 1321              	.LFB26:
 425:.\w5200.c     **** void getSUBR(uint8_t * addr)
 426:.\w5200.c     **** {
 1322              		.loc 1 426 0
 1323              		.cfi_startproc
 1324              	.LVL106:
 427:.\w5200.c     **** 	addr[0] = SUBNET[0];
 1325              		.loc 1 427 0
 1326 0000 084B     		ldr	r3, .L85
 428:.\w5200.c     **** 	addr[1] = SUBNET[1];
 429:.\w5200.c     **** 	addr[2] = SUBNET[2];
 430:.\w5200.c     **** 	addr[3] = SUBNET[3];
 431:.\w5200.c     **** }
 1327              		.loc 1 431 0
 1328              		@ sp needed for prologue
 427:.\w5200.c     **** 	addr[0] = SUBNET[0];
 1329              		.loc 1 427 0
 1330 0002 1A1C     		mov	r2, r3
 1331 0004 3432     		add	r2, r2, #52
 1332 0006 1178     		ldrb	r1, [r2]
 428:.\w5200.c     **** 	addr[1] = SUBNET[1];
 1333              		.loc 1 428 0
 1334 0008 1A1C     		mov	r2, r3
 427:.\w5200.c     **** 	addr[0] = SUBNET[0];
 1335              		.loc 1 427 0
 1336 000a 0170     		strb	r1, [r0]
 428:.\w5200.c     **** 	addr[1] = SUBNET[1];
 1337              		.loc 1 428 0
 1338 000c 3532     		add	r2, r2, #53
 1339 000e 1178     		ldrb	r1, [r2]
 429:.\w5200.c     **** 	addr[2] = SUBNET[2];
 1340              		.loc 1 429 0
 1341 0010 1A1C     		mov	r2, r3
 428:.\w5200.c     **** 	addr[1] = SUBNET[1];
 1342              		.loc 1 428 0
 1343 0012 4170     		strb	r1, [r0, #1]
 429:.\w5200.c     **** 	addr[2] = SUBNET[2];
 1344              		.loc 1 429 0
 1345 0014 3632     		add	r2, r2, #54
ARM GAS  C:\Users\atsu\AppData\Local\Temp\ccDwwNoN.s 			page 33


 1346 0016 1178     		ldrb	r1, [r2]
 430:.\w5200.c     **** 	addr[3] = SUBNET[3];
 1347              		.loc 1 430 0
 1348 0018 3733     		add	r3, r3, #55
 429:.\w5200.c     **** 	addr[2] = SUBNET[2];
 1349              		.loc 1 429 0
 1350 001a 8170     		strb	r1, [r0, #2]
 430:.\w5200.c     **** 	addr[3] = SUBNET[3];
 1351              		.loc 1 430 0
 1352 001c 1B78     		ldrb	r3, [r3]
 1353 001e C370     		strb	r3, [r0, #3]
 1354              		.loc 1 431 0
 1355 0020 7047     		bx	lr
 1356              	.L86:
 1357 0022 C046     		.align	2
 1358              	.L85:
 1359 0024 00000000 		.word	.LANCHOR0
 1360              		.cfi_endproc
 1361              	.LFE26:
 1362              		.size	getSUBR, .-getSUBR
 1363              		.section	.text.getSHAR,"ax",%progbits
 1364              		.align	1
 1365              		.global	getSHAR
 1366              		.code	16
 1367              		.thumb_func
 1368              		.type	getSHAR, %function
 1369              	getSHAR:
 1370              	.LFB27:
 432:.\w5200.c     **** void getSHAR(uint8_t * addr)
 433:.\w5200.c     **** {
 1371              		.loc 1 433 0
 1372              		.cfi_startproc
 1373              	.LVL107:
 1374 0000 10B5     		push	{r4, lr}
 1375              	.LCFI14:
 1376              		.cfi_def_cfa_offset 8
 1377              		.cfi_offset 4, -8
 1378              		.cfi_offset 14, -4
 1379              		.loc 1 433 0
 1380 0002 041C     		mov	r4, r0
 434:.\w5200.c     **** 	addr[0] = IINCHIP_READ(SHAR0);
 1381              		.loc 1 434 0
 1382 0004 0920     		mov	r0, #9
 1383              	.LVL108:
 1384 0006 FFF7FEFF 		bl	IINCHIP_READ
 1385              	.LVL109:
 1386 000a 2070     		strb	r0, [r4]
 435:.\w5200.c     **** 	addr[1] = IINCHIP_READ(SHAR0+1);
 1387              		.loc 1 435 0
 1388 000c 0A20     		mov	r0, #10
 1389 000e FFF7FEFF 		bl	IINCHIP_READ
 1390              	.LVL110:
 1391 0012 6070     		strb	r0, [r4, #1]
 436:.\w5200.c     **** 	addr[2] = IINCHIP_READ(SHAR0+2);
 1392              		.loc 1 436 0
 1393 0014 0B20     		mov	r0, #11
 1394 0016 FFF7FEFF 		bl	IINCHIP_READ
ARM GAS  C:\Users\atsu\AppData\Local\Temp\ccDwwNoN.s 			page 34


 1395              	.LVL111:
 1396 001a A070     		strb	r0, [r4, #2]
 437:.\w5200.c     **** 	addr[3] = IINCHIP_READ(SHAR0+3);
 1397              		.loc 1 437 0
 1398 001c 0C20     		mov	r0, #12
 1399 001e FFF7FEFF 		bl	IINCHIP_READ
 1400              	.LVL112:
 1401 0022 E070     		strb	r0, [r4, #3]
 438:.\w5200.c     **** 	addr[4] = IINCHIP_READ(SHAR0+4);
 1402              		.loc 1 438 0
 1403 0024 0D20     		mov	r0, #13
 1404 0026 FFF7FEFF 		bl	IINCHIP_READ
 1405              	.LVL113:
 1406 002a 2071     		strb	r0, [r4, #4]
 439:.\w5200.c     **** 	addr[5] = IINCHIP_READ(SHAR0+5);
 1407              		.loc 1 439 0
 1408 002c 0E20     		mov	r0, #14
 1409 002e FFF7FEFF 		bl	IINCHIP_READ
 1410              	.LVL114:
 440:.\w5200.c     **** }
 1411              		.loc 1 440 0
 1412              		@ sp needed for prologue
 439:.\w5200.c     **** 	addr[5] = IINCHIP_READ(SHAR0+5);
 1413              		.loc 1 439 0
 1414 0032 6071     		strb	r0, [r4, #5]
 1415              	.LVL115:
 1416              		.loc 1 440 0
 1417 0034 10BD     		pop	{r4, pc}
 1418              		.cfi_endproc
 1419              	.LFE27:
 1420              		.size	getSHAR, .-getSHAR
 1421              		.section	.text.getSIPR,"ax",%progbits
 1422              		.align	1
 1423              		.global	getSIPR
 1424              		.code	16
 1425              		.thumb_func
 1426              		.type	getSIPR, %function
 1427              	getSIPR:
 1428              	.LFB28:
 441:.\w5200.c     **** void getSIPR(uint8_t * addr)
 442:.\w5200.c     **** {
 1429              		.loc 1 442 0
 1430              		.cfi_startproc
 1431              	.LVL116:
 1432 0000 10B5     		push	{r4, lr}
 1433              	.LCFI15:
 1434              		.cfi_def_cfa_offset 8
 1435              		.cfi_offset 4, -8
 1436              		.cfi_offset 14, -4
 1437              		.loc 1 442 0
 1438 0002 041C     		mov	r4, r0
 443:.\w5200.c     **** 	addr[0] = IINCHIP_READ(SIPR0);
 1439              		.loc 1 443 0
 1440 0004 0F20     		mov	r0, #15
 1441              	.LVL117:
 1442 0006 FFF7FEFF 		bl	IINCHIP_READ
 1443              	.LVL118:
ARM GAS  C:\Users\atsu\AppData\Local\Temp\ccDwwNoN.s 			page 35


 1444 000a 2070     		strb	r0, [r4]
 444:.\w5200.c     **** 	addr[1] = IINCHIP_READ(SIPR0+1);
 1445              		.loc 1 444 0
 1446 000c 1020     		mov	r0, #16
 1447 000e FFF7FEFF 		bl	IINCHIP_READ
 1448              	.LVL119:
 1449 0012 6070     		strb	r0, [r4, #1]
 445:.\w5200.c     **** 	addr[2] = IINCHIP_READ(SIPR0+2);
 1450              		.loc 1 445 0
 1451 0014 1120     		mov	r0, #17
 1452 0016 FFF7FEFF 		bl	IINCHIP_READ
 1453              	.LVL120:
 1454 001a A070     		strb	r0, [r4, #2]
 446:.\w5200.c     **** 	addr[3] = IINCHIP_READ(SIPR0+3);
 1455              		.loc 1 446 0
 1456 001c 1220     		mov	r0, #18
 1457 001e FFF7FEFF 		bl	IINCHIP_READ
 1458              	.LVL121:
 447:.\w5200.c     **** }
 1459              		.loc 1 447 0
 1460              		@ sp needed for prologue
 446:.\w5200.c     **** 	addr[3] = IINCHIP_READ(SIPR0+3);
 1461              		.loc 1 446 0
 1462 0022 E070     		strb	r0, [r4, #3]
 1463              	.LVL122:
 1464              		.loc 1 447 0
 1465 0024 10BD     		pop	{r4, pc}
 1466              		.cfi_endproc
 1467              	.LFE28:
 1468              		.size	getSIPR, .-getSIPR
 1469              		.section	.text.clearSUBR,"ax",%progbits
 1470              		.align	1
 1471              		.global	clearSUBR
 1472              		.code	16
 1473              		.thumb_func
 1474              		.type	clearSUBR, %function
 1475              	clearSUBR:
 1476              	.LFB22:
 375:.\w5200.c     **** {
 1477              		.loc 1 375 0
 1478              		.cfi_startproc
 1479 0000 38B5     		push	{r3, r4, r5, lr}
 1480              	.LCFI16:
 1481              		.cfi_def_cfa_offset 16
 1482              		.cfi_offset 3, -16
 1483              		.cfi_offset 4, -12
 1484              		.cfi_offset 5, -8
 1485              		.cfi_offset 14, -4
 376:.\w5200.c     **** 	getSIPR(&IPVAL[0]);
 1486              		.loc 1 376 0
 1487 0002 144C     		ldr	r4, .L91
 1488 0004 251C     		mov	r5, r4
 1489 0006 3835     		add	r5, r5, #56
 1490 0008 281C     		mov	r0, r5
 1491 000a FFF7FEFF 		bl	getSIPR
 1492              	.LVL123:
 377:.\w5200.c     **** 	if(IPVAL[0] ==0 &&IPVAL[1] ==0 &&IPVAL[2] ==0&&IPVAL[3] ==0)
ARM GAS  C:\Users\atsu\AppData\Local\Temp\ccDwwNoN.s 			page 36


 1493              		.loc 1 377 0
 1494 000e 2B78     		ldrb	r3, [r5]
 1495 0010 002B     		cmp	r3, #0
 1496 0012 1DD1     		bne	.L89
 377:.\w5200.c     **** 	if(IPVAL[0] ==0 &&IPVAL[1] ==0 &&IPVAL[2] ==0&&IPVAL[3] ==0)
 1497              		.loc 1 377 0 is_stmt 0 discriminator 1
 1498 0014 201C     		mov	r0, r4
 1499 0016 3930     		add	r0, r0, #57
 1500 0018 0178     		ldrb	r1, [r0]
 1501 001a 0029     		cmp	r1, #0
 1502 001c 18D1     		bne	.L89
 1503 001e 221C     		mov	r2, r4
 1504 0020 3A32     		add	r2, r2, #58
 1505 0022 1578     		ldrb	r5, [r2]
 1506 0024 002D     		cmp	r5, #0
 1507 0026 13D1     		bne	.L89
 1508 0028 3B34     		add	r4, r4, #59
 1509 002a 2478     		ldrb	r4, [r4]
 1510 002c 002C     		cmp	r4, #0
 1511 002e 0FD1     		bne	.L89
 379:.\w5200.c     **** 		IINCHIP_WRITE((SUBR0 + 0), 0);
 1512              		.loc 1 379 0 is_stmt 1
 1513 0030 211C     		mov	r1, r4
 1514 0032 0520     		mov	r0, #5
 1515 0034 FFF7FEFF 		bl	IINCHIP_WRITE
 1516              	.LVL124:
 380:.\w5200.c     **** 		IINCHIP_WRITE((SUBR0 + 1), 0);
 1517              		.loc 1 380 0
 1518 0038 211C     		mov	r1, r4
 1519 003a 0620     		mov	r0, #6
 1520 003c FFF7FEFF 		bl	IINCHIP_WRITE
 1521              	.LVL125:
 381:.\w5200.c     **** 		IINCHIP_WRITE((SUBR0 + 2), 0);
 1522              		.loc 1 381 0
 1523 0040 211C     		mov	r1, r4
 1524 0042 0720     		mov	r0, #7
 1525 0044 FFF7FEFF 		bl	IINCHIP_WRITE
 1526              	.LVL126:
 382:.\w5200.c     **** 		IINCHIP_WRITE((SUBR0 + 3), 0);
 1527              		.loc 1 382 0
 1528 0048 0820     		mov	r0, #8
 1529 004a 211C     		mov	r1, r4
 1530 004c FFF7FEFF 		bl	IINCHIP_WRITE
 1531              	.LVL127:
 1532              	.L89:
 384:.\w5200.c     **** }
 1533              		.loc 1 384 0
 1534              		@ sp needed for prologue
 1535 0050 38BD     		pop	{r3, r4, r5, pc}
 1536              	.L92:
 1537 0052 C046     		.align	2
 1538              	.L91:
 1539 0054 00000000 		.word	.LANCHOR0
 1540              		.cfi_endproc
 1541              	.LFE22:
 1542              		.size	clearSUBR, .-clearSUBR
 1543              		.section	.text.setMR,"ax",%progbits
ARM GAS  C:\Users\atsu\AppData\Local\Temp\ccDwwNoN.s 			page 37


 1544              		.align	1
 1545              		.global	setMR
 1546              		.code	16
 1547              		.thumb_func
 1548              		.type	setMR, %function
 1549              	setMR:
 1550              	.LFB29:
 448:.\w5200.c     **** 
 449:.\w5200.c     **** void setMR(uint8_t val)
 450:.\w5200.c     **** {
 1551              		.loc 1 450 0
 1552              		.cfi_startproc
 1553              	.LVL128:
 1554 0000 08B5     		push	{r3, lr}
 1555              	.LCFI17:
 1556              		.cfi_def_cfa_offset 8
 1557              		.cfi_offset 3, -8
 1558              		.cfi_offset 14, -4
 1559              		.loc 1 450 0
 1560 0002 011C     		mov	r1, r0
 451:.\w5200.c     **** 	IINCHIP_WRITE(MR,val);
 1561              		.loc 1 451 0
 1562 0004 0020     		mov	r0, #0
 1563              	.LVL129:
 1564 0006 FFF7FEFF 		bl	IINCHIP_WRITE
 1565              	.LVL130:
 452:.\w5200.c     **** }
 1566              		.loc 1 452 0
 1567              		@ sp needed for prologue
 1568 000a 08BD     		pop	{r3, pc}
 1569              		.cfi_endproc
 1570              	.LFE29:
 1571              		.size	setMR, .-setMR
 1572              		.section	.text.iinchip_init,"ax",%progbits
 1573              		.align	1
 1574              		.global	iinchip_init
 1575              		.code	16
 1576              		.thumb_func
 1577              		.type	iinchip_init, %function
 1578              	iinchip_init:
 1579              	.LFB17:
 201:.\w5200.c     **** {	
 1580              		.loc 1 201 0
 1581              		.cfi_startproc
 1582 0000 08B5     		push	{r3, lr}
 1583              	.LCFI18:
 1584              		.cfi_def_cfa_offset 8
 1585              		.cfi_offset 3, -8
 1586              		.cfi_offset 14, -4
 202:.\w5200.c     **** 	setMR( MR_RST );
 1587              		.loc 1 202 0
 1588 0002 8020     		mov	r0, #128
 1589 0004 FFF7FEFF 		bl	setMR
 1590              	.LVL131:
 206:.\w5200.c     **** }
 1591              		.loc 1 206 0
 1592              		@ sp needed for prologue
ARM GAS  C:\Users\atsu\AppData\Local\Temp\ccDwwNoN.s 			page 38


 1593 0008 08BD     		pop	{r3, pc}
 1594              		.cfi_endproc
 1595              	.LFE17:
 1596              		.size	iinchip_init, .-iinchip_init
 1597              		.section	.text.getIR,"ax",%progbits
 1598              		.align	1
 1599              		.global	getIR
 1600              		.code	16
 1601              		.thumb_func
 1602              		.type	getIR, %function
 1603              	getIR:
 1604              	.LFB30:
 453:.\w5200.c     **** 
 454:.\w5200.c     **** /**
 455:.\w5200.c     **** @brief	This function gets Interrupt register in common register.
 456:.\w5200.c     ****  */
 457:.\w5200.c     **** uint8_t getIR( void )
 458:.\w5200.c     **** {
 1605              		.loc 1 458 0
 1606              		.cfi_startproc
 1607 0000 08B5     		push	{r3, lr}
 1608              	.LCFI19:
 1609              		.cfi_def_cfa_offset 8
 1610              		.cfi_offset 3, -8
 1611              		.cfi_offset 14, -4
 459:.\w5200.c     ****    return IINCHIP_READ(IR);
 1612              		.loc 1 459 0
 1613 0002 1520     		mov	r0, #21
 1614 0004 FFF7FEFF 		bl	IINCHIP_READ
 1615              	.LVL132:
 460:.\w5200.c     **** }
 1616              		.loc 1 460 0
 1617              		@ sp needed for prologue
 1618 0008 08BD     		pop	{r3, pc}
 1619              		.cfi_endproc
 1620              	.LFE30:
 1621              		.size	getIR, .-getIR
 1622              		.section	.text.setRTR,"ax",%progbits
 1623              		.align	1
 1624              		.global	setRTR
 1625              		.code	16
 1626              		.thumb_func
 1627              		.type	setRTR, %function
 1628              	setRTR:
 1629              	.LFB31:
 461:.\w5200.c     **** 
 462:.\w5200.c     **** 
 463:.\w5200.c     **** /**
 464:.\w5200.c     ****  Retransmittion 
 465:.\w5200.c     ****  **/
 466:.\w5200.c     ****  
 467:.\w5200.c     **** /**
 468:.\w5200.c     **** @brief	This function sets up Retransmission time.
 469:.\w5200.c     **** 
 470:.\w5200.c     **** If there is no response from the peer or delay in response then retransmission 
 471:.\w5200.c     **** will be there as per RTR (Retry Time-value Register)setting
 472:.\w5200.c     **** */
ARM GAS  C:\Users\atsu\AppData\Local\Temp\ccDwwNoN.s 			page 39


 473:.\w5200.c     **** void setRTR(uint16_t timeout)
 474:.\w5200.c     **** {
 1630              		.loc 1 474 0
 1631              		.cfi_startproc
 1632              	.LVL133:
 1633 0000 10B5     		push	{r4, lr}
 1634              	.LCFI20:
 1635              		.cfi_def_cfa_offset 8
 1636              		.cfi_offset 4, -8
 1637              		.cfi_offset 14, -4
 475:.\w5200.c     **** 	IINCHIP_WRITE(RTR,(uint8_t)((timeout & 0xff00) >> 8));
 1638              		.loc 1 475 0
 1639 0002 010A     		lsr	r1, r0, #8
 474:.\w5200.c     **** {
 1640              		.loc 1 474 0
 1641 0004 041C     		mov	r4, r0
 1642              		.loc 1 475 0
 1643 0006 1720     		mov	r0, #23
 1644              	.LVL134:
 1645 0008 FFF7FEFF 		bl	IINCHIP_WRITE
 1646              	.LVL135:
 476:.\w5200.c     **** 	IINCHIP_WRITE((RTR + 1),(uint8_t)(timeout & 0x00ff));
 1647              		.loc 1 476 0
 1648 000c E1B2     		uxtb	r1, r4
 1649 000e 1820     		mov	r0, #24
 1650 0010 FFF7FEFF 		bl	IINCHIP_WRITE
 1651              	.LVL136:
 477:.\w5200.c     **** }
 1652              		.loc 1 477 0
 1653              		@ sp needed for prologue
 1654 0014 10BD     		pop	{r4, pc}
 1655              		.cfi_endproc
 1656              	.LFE31:
 1657              		.size	setRTR, .-setRTR
 1658              		.section	.text.setRCR,"ax",%progbits
 1659              		.align	1
 1660              		.global	setRCR
 1661              		.code	16
 1662              		.thumb_func
 1663              		.type	setRCR, %function
 1664              	setRCR:
 1665              	.LFB32:
 478:.\w5200.c     **** 
 479:.\w5200.c     **** /**
 480:.\w5200.c     **** @brief	This function set the number of Retransmission.
 481:.\w5200.c     **** 
 482:.\w5200.c     **** If there is no response from the peer or delay in response then recorded time 
 483:.\w5200.c     **** as per RTR & RCR register seeting then time out will occur.
 484:.\w5200.c     **** */
 485:.\w5200.c     **** void setRCR(uint8_t retry)
 486:.\w5200.c     **** {
 1666              		.loc 1 486 0
 1667              		.cfi_startproc
 1668              	.LVL137:
 1669 0000 08B5     		push	{r3, lr}
 1670              	.LCFI21:
 1671              		.cfi_def_cfa_offset 8
ARM GAS  C:\Users\atsu\AppData\Local\Temp\ccDwwNoN.s 			page 40


 1672              		.cfi_offset 3, -8
 1673              		.cfi_offset 14, -4
 1674              		.loc 1 486 0
 1675 0002 011C     		mov	r1, r0
 487:.\w5200.c     **** 	IINCHIP_WRITE(RCR,retry);
 1676              		.loc 1 487 0
 1677 0004 1920     		mov	r0, #25
 1678              	.LVL138:
 1679 0006 FFF7FEFF 		bl	IINCHIP_WRITE
 1680              	.LVL139:
 488:.\w5200.c     **** }
 1681              		.loc 1 488 0
 1682              		@ sp needed for prologue
 1683 000a 08BD     		pop	{r3, pc}
 1684              		.cfi_endproc
 1685              	.LFE32:
 1686              		.size	setRCR, .-setRCR
 1687              		.section	.text.setIMR,"ax",%progbits
 1688              		.align	1
 1689              		.global	setIMR
 1690              		.code	16
 1691              		.thumb_func
 1692              		.type	setIMR, %function
 1693              	setIMR:
 1694              	.LFB33:
 489:.\w5200.c     **** 
 490:.\w5200.c     **** 
 491:.\w5200.c     **** 
 492:.\w5200.c     **** 
 493:.\w5200.c     **** /**
 494:.\w5200.c     **** @brief	This function set the interrupt mask Enable/Disable appropriate Interrupt. ('1' : interrupt 
 495:.\w5200.c     **** 
 496:.\w5200.c     **** If any bit in IMR is set as '0' then there is not interrupt signal though the bit is
 497:.\w5200.c     **** set in IR register.
 498:.\w5200.c     **** */
 499:.\w5200.c     **** void setIMR(uint8_t mask)
 500:.\w5200.c     **** {
 1695              		.loc 1 500 0
 1696              		.cfi_startproc
 1697              	.LVL140:
 1698 0000 08B5     		push	{r3, lr}
 1699              	.LCFI22:
 1700              		.cfi_def_cfa_offset 8
 1701              		.cfi_offset 3, -8
 1702              		.cfi_offset 14, -4
 1703              		.loc 1 500 0
 1704 0002 011C     		mov	r1, r0
 501:.\w5200.c     **** 	IINCHIP_WRITE(IMR,mask); // must be setted 0x10.
 1705              		.loc 1 501 0
 1706 0004 3620     		mov	r0, #54
 1707              	.LVL141:
 1708 0006 FFF7FEFF 		bl	IINCHIP_WRITE
 1709              	.LVL142:
 502:.\w5200.c     **** }
 1710              		.loc 1 502 0
 1711              		@ sp needed for prologue
 1712 000a 08BD     		pop	{r3, pc}
ARM GAS  C:\Users\atsu\AppData\Local\Temp\ccDwwNoN.s 			page 41


 1713              		.cfi_endproc
 1714              	.LFE33:
 1715              		.size	setIMR, .-setIMR
 1716              		.section	.text.setSn_MSS,"ax",%progbits
 1717              		.align	1
 1718              		.global	setSn_MSS
 1719              		.code	16
 1720              		.thumb_func
 1721              		.type	setSn_MSS, %function
 1722              	setSn_MSS:
 1723              	.LFB34:
 503:.\w5200.c     **** 
 504:.\w5200.c     **** /**
 505:.\w5200.c     **** @brief	This sets the maximum segment size of TCP in Active Mode), while in Passive Mode this is set
 506:.\w5200.c     **** */
 507:.\w5200.c     **** void setSn_MSS(SOCKET s, uint16_t Sn_MSSR0)
 508:.\w5200.c     **** {
 1724              		.loc 1 508 0
 1725              		.cfi_startproc
 1726              	.LVL143:
 1727 0000 38B5     		push	{r3, r4, r5, lr}
 1728              	.LCFI23:
 1729              		.cfi_def_cfa_offset 16
 1730              		.cfi_offset 3, -16
 1731              		.cfi_offset 4, -12
 1732              		.cfi_offset 5, -8
 1733              		.cfi_offset 14, -4
 509:.\w5200.c     **** 	IINCHIP_WRITE(Sn_MSSR0(s),(uint8_t)((Sn_MSSR0 & 0xff00) >> 8));
 1734              		.loc 1 509 0
 1735 0002 051C     		mov	r5, r0
 1736 0004 4035     		add	r5, r5, #64
 1737 0006 2802     		lsl	r0, r5, #8
 1738              	.LVL144:
 1739 0008 85B2     		uxth	r5, r0
 508:.\w5200.c     **** {
 1740              		.loc 1 508 0
 1741 000a 0C1C     		mov	r4, r1
 1742              		.loc 1 509 0
 1743 000c 291C     		mov	r1, r5
 1744              	.LVL145:
 1745 000e 1231     		add	r1, r1, #18
 510:.\w5200.c     **** 	IINCHIP_WRITE((Sn_MSSR0(s) + 1),(uint8_t)(Sn_MSSR0 & 0x00ff));
 1746              		.loc 1 510 0
 1747 0010 1335     		add	r5, r5, #19
 509:.\w5200.c     **** 	IINCHIP_WRITE(Sn_MSSR0(s),(uint8_t)((Sn_MSSR0 & 0xff00) >> 8));
 1748              		.loc 1 509 0
 1749 0012 88B2     		uxth	r0, r1
 1750 0014 210A     		lsr	r1, r4, #8
 1751 0016 FFF7FEFF 		bl	IINCHIP_WRITE
 1752              	.LVL146:
 1753              		.loc 1 510 0
 1754 001a A8B2     		uxth	r0, r5
 1755 001c E1B2     		uxtb	r1, r4
 1756 001e FFF7FEFF 		bl	IINCHIP_WRITE
 1757              	.LVL147:
 511:.\w5200.c     **** }
 1758              		.loc 1 511 0
ARM GAS  C:\Users\atsu\AppData\Local\Temp\ccDwwNoN.s 			page 42


 1759              		@ sp needed for prologue
 1760 0022 38BD     		pop	{r3, r4, r5, pc}
 1761              		.cfi_endproc
 1762              	.LFE34:
 1763              		.size	setSn_MSS, .-setSn_MSS
 1764              		.section	.text.setSn_TTL,"ax",%progbits
 1765              		.align	1
 1766              		.global	setSn_TTL
 1767              		.code	16
 1768              		.thumb_func
 1769              		.type	setSn_TTL, %function
 1770              	setSn_TTL:
 1771              	.LFB35:
 512:.\w5200.c     **** 
 513:.\w5200.c     **** void setSn_TTL(SOCKET s, uint8_t ttl)
 514:.\w5200.c     **** {
 1772              		.loc 1 514 0
 1773              		.cfi_startproc
 1774              	.LVL148:
 1775 0000 08B5     		push	{r3, lr}
 1776              	.LCFI24:
 1777              		.cfi_def_cfa_offset 8
 1778              		.cfi_offset 3, -8
 1779              		.cfi_offset 14, -4
 515:.\w5200.c     ****    IINCHIP_WRITE(Sn_TTL(s), ttl);
 1780              		.loc 1 515 0
 1781 0002 034B     		ldr	r3, .L101
 1782 0004 0002     		lsl	r0, r0, #8
 1783              	.LVL149:
 1784 0006 C218     		add	r2, r0, r3
 1785 0008 90B2     		uxth	r0, r2
 1786 000a FFF7FEFF 		bl	IINCHIP_WRITE
 1787              	.LVL150:
 516:.\w5200.c     **** }
 1788              		.loc 1 516 0
 1789              		@ sp needed for prologue
 1790 000e 08BD     		pop	{r3, pc}
 1791              	.L102:
 1792              		.align	2
 1793              	.L101:
 1794 0010 16400000 		.word	16406
 1795              		.cfi_endproc
 1796              	.LFE35:
 1797              		.size	setSn_TTL, .-setSn_TTL
 1798              		.section	.text.setSn_PROTO,"ax",%progbits
 1799              		.align	1
 1800              		.global	setSn_PROTO
 1801              		.code	16
 1802              		.thumb_func
 1803              		.type	setSn_PROTO, %function
 1804              	setSn_PROTO:
 1805              	.LFB36:
 517:.\w5200.c     **** 
 518:.\w5200.c     **** 
 519:.\w5200.c     **** /**
 520:.\w5200.c     **** @brief	These below function is used to setup the Protocol Field of IP Header when
 521:.\w5200.c     **** 		executing the IP Layer RAW mode.
ARM GAS  C:\Users\atsu\AppData\Local\Temp\ccDwwNoN.s 			page 43


 522:.\w5200.c     **** */
 523:.\w5200.c     **** void setSn_PROTO(SOCKET s, uint8_t proto)
 524:.\w5200.c     **** {
 1806              		.loc 1 524 0
 1807              		.cfi_startproc
 1808              	.LVL151:
 1809 0000 08B5     		push	{r3, lr}
 1810              	.LCFI25:
 1811              		.cfi_def_cfa_offset 8
 1812              		.cfi_offset 3, -8
 1813              		.cfi_offset 14, -4
 525:.\w5200.c     **** 	IINCHIP_WRITE(Sn_PROTO(s),proto);
 1814              		.loc 1 525 0
 1815 0002 034B     		ldr	r3, .L104
 1816 0004 0002     		lsl	r0, r0, #8
 1817              	.LVL152:
 1818 0006 C218     		add	r2, r0, r3
 1819 0008 90B2     		uxth	r0, r2
 1820 000a FFF7FEFF 		bl	IINCHIP_WRITE
 1821              	.LVL153:
 526:.\w5200.c     **** }
 1822              		.loc 1 526 0
 1823              		@ sp needed for prologue
 1824 000e 08BD     		pop	{r3, pc}
 1825              	.L105:
 1826              		.align	2
 1827              	.L104:
 1828 0010 14400000 		.word	16404
 1829              		.cfi_endproc
 1830              	.LFE36:
 1831              		.size	setSn_PROTO, .-setSn_PROTO
 1832              		.section	.text.getSn_IR,"ax",%progbits
 1833              		.align	1
 1834              		.global	getSn_IR
 1835              		.code	16
 1836              		.thumb_func
 1837              		.type	getSn_IR, %function
 1838              	getSn_IR:
 1839              	.LFB37:
 527:.\w5200.c     **** 
 528:.\w5200.c     **** 
 529:.\w5200.c     **** /**
 530:.\w5200.c     **** @brief	get socket interrupt status
 531:.\w5200.c     **** 
 532:.\w5200.c     **** These below functions are used to read the Interrupt & Soket Status register
 533:.\w5200.c     **** */
 534:.\w5200.c     **** uint8_t getSn_IR(SOCKET s)
 535:.\w5200.c     **** {
 1840              		.loc 1 535 0
 1841              		.cfi_startproc
 1842              	.LVL154:
 1843 0000 08B5     		push	{r3, lr}
 1844              	.LCFI26:
 1845              		.cfi_def_cfa_offset 8
 1846              		.cfi_offset 3, -8
 1847              		.cfi_offset 14, -4
 536:.\w5200.c     ****    return IINCHIP_READ(Sn_IR(s));
ARM GAS  C:\Users\atsu\AppData\Local\Temp\ccDwwNoN.s 			page 44


 1848              		.loc 1 536 0
 1849 0002 034B     		ldr	r3, .L107
 1850 0004 0002     		lsl	r0, r0, #8
 1851              	.LVL155:
 1852 0006 C118     		add	r1, r0, r3
 1853 0008 88B2     		uxth	r0, r1
 1854 000a FFF7FEFF 		bl	IINCHIP_READ
 1855              	.LVL156:
 537:.\w5200.c     **** }
 1856              		.loc 1 537 0
 1857              		@ sp needed for prologue
 1858 000e 08BD     		pop	{r3, pc}
 1859              	.L108:
 1860              		.align	2
 1861              	.L107:
 1862 0010 02400000 		.word	16386
 1863              		.cfi_endproc
 1864              	.LFE37:
 1865              		.size	getSn_IR, .-getSn_IR
 1866              		.section	.text.getSn_SR,"ax",%progbits
 1867              		.align	1
 1868              		.global	getSn_SR
 1869              		.code	16
 1870              		.thumb_func
 1871              		.type	getSn_SR, %function
 1872              	getSn_SR:
 1873              	.LFB38:
 538:.\w5200.c     **** 
 539:.\w5200.c     **** 
 540:.\w5200.c     **** /**
 541:.\w5200.c     **** @brief	 get socket status
 542:.\w5200.c     **** */
 543:.\w5200.c     **** uint8_t getSn_SR(SOCKET s)
 544:.\w5200.c     **** {
 1874              		.loc 1 544 0
 1875              		.cfi_startproc
 1876              	.LVL157:
 1877 0000 08B5     		push	{r3, lr}
 1878              	.LCFI27:
 1879              		.cfi_def_cfa_offset 8
 1880              		.cfi_offset 3, -8
 1881              		.cfi_offset 14, -4
 545:.\w5200.c     ****    return IINCHIP_READ(Sn_SR(s));
 1882              		.loc 1 545 0
 1883 0002 034B     		ldr	r3, .L110
 1884 0004 0002     		lsl	r0, r0, #8
 1885              	.LVL158:
 1886 0006 C118     		add	r1, r0, r3
 1887 0008 88B2     		uxth	r0, r1
 1888 000a FFF7FEFF 		bl	IINCHIP_READ
 1889              	.LVL159:
 546:.\w5200.c     **** }
 1890              		.loc 1 546 0
 1891              		@ sp needed for prologue
 1892 000e 08BD     		pop	{r3, pc}
 1893              	.L111:
 1894              		.align	2
ARM GAS  C:\Users\atsu\AppData\Local\Temp\ccDwwNoN.s 			page 45


 1895              	.L110:
 1896 0010 03400000 		.word	16387
 1897              		.cfi_endproc
 1898              	.LFE38:
 1899              		.size	getSn_SR, .-getSn_SR
 1900              		.section	.text.getSn_TX_FSR,"ax",%progbits
 1901              		.align	1
 1902              		.global	getSn_TX_FSR
 1903              		.code	16
 1904              		.thumb_func
 1905              		.type	getSn_TX_FSR, %function
 1906              	getSn_TX_FSR:
 1907              	.LFB39:
 547:.\w5200.c     **** 
 548:.\w5200.c     **** 
 549:.\w5200.c     **** /**
 550:.\w5200.c     **** @brief	get socket TX free buf size
 551:.\w5200.c     **** 
 552:.\w5200.c     **** This gives free buffer size of transmit buffer. This is the data size that user can transmit.
 553:.\w5200.c     **** User shuold check this value first and control the size of transmitting data
 554:.\w5200.c     **** */
 555:.\w5200.c     **** uint16_t getSn_TX_FSR(SOCKET s)
 556:.\w5200.c     **** {
 1908              		.loc 1 556 0
 1909              		.cfi_startproc
 1910              	.LVL160:
 1911 0000 F8B5     		push	{r3, r4, r5, r6, r7, lr}
 1912              	.LCFI28:
 1913              		.cfi_def_cfa_offset 24
 1914              		.cfi_offset 3, -24
 1915              		.cfi_offset 4, -20
 1916              		.cfi_offset 5, -16
 1917              		.cfi_offset 6, -12
 1918              		.cfi_offset 7, -8
 1919              		.cfi_offset 14, -4
 557:.\w5200.c     **** 	uint16_t val=0,val1=0;
 558:.\w5200.c     **** 	do
 559:.\w5200.c     **** 	{
 560:.\w5200.c     **** 		val1 = IINCHIP_READ(Sn_TX_FSR0(s));
 1920              		.loc 1 560 0
 1921 0002 071C     		mov	r7, r0
 1922 0004 4037     		add	r7, r7, #64
 1923 0006 3802     		lsl	r0, r7, #8
 1924              	.LVL161:
 1925 0008 81B2     		uxth	r1, r0
 1926 000a 0E1C     		mov	r6, r1
 1927 000c 2036     		add	r6, r6, #32
 561:.\w5200.c     **** 		val1 = (val1 << 8) + IINCHIP_READ(Sn_TX_FSR0(s) + 1);
 1928              		.loc 1 561 0
 1929 000e 2131     		add	r1, r1, #33
 560:.\w5200.c     **** 		val1 = IINCHIP_READ(Sn_TX_FSR0(s));
 1930              		.loc 1 560 0
 1931 0010 B6B2     		uxth	r6, r6
 1932              		.loc 1 561 0
 1933 0012 8FB2     		uxth	r7, r1
 557:.\w5200.c     **** 	uint16_t val=0,val1=0;
 1934              		.loc 1 557 0
ARM GAS  C:\Users\atsu\AppData\Local\Temp\ccDwwNoN.s 			page 46


 1935 0014 0024     		mov	r4, #0
 1936              	.LVL162:
 1937              	.L114:
 560:.\w5200.c     **** 		val1 = IINCHIP_READ(Sn_TX_FSR0(s));
 1938              		.loc 1 560 0
 1939 0016 301C     		mov	r0, r6
 1940 0018 FFF7FEFF 		bl	IINCHIP_READ
 1941              	.LVL163:
 1942              		.loc 1 561 0
 1943 001c 0502     		lsl	r5, r0, #8
 1944 001e 381C     		mov	r0, r7
 1945              	.LVL164:
 1946 0020 FFF7FEFF 		bl	IINCHIP_READ
 1947              	.LVL165:
 1948 0024 ADB2     		uxth	r5, r5
 1949 0026 2A18     		add	r2, r5, r0
 1950 0028 95B2     		uxth	r5, r2
 1951              	.LVL166:
 562:.\w5200.c     ****       if (val1 != 0)
 1952              		.loc 1 562 0
 1953 002a 002D     		cmp	r5, #0
 1954 002c 09D0     		beq	.L113
 563:.\w5200.c     **** 		{
 564:.\w5200.c     ****    			val = IINCHIP_READ(Sn_TX_FSR0(s));
 1955              		.loc 1 564 0
 1956 002e 301C     		mov	r0, r6
 1957 0030 FFF7FEFF 		bl	IINCHIP_READ
 1958              	.LVL167:
 565:.\w5200.c     ****    			val = (val << 8) + IINCHIP_READ(Sn_TX_FSR0(s) + 1);
 1959              		.loc 1 565 0
 1960 0034 0402     		lsl	r4, r0, #8
 1961 0036 381C     		mov	r0, r7
 1962              	.LVL168:
 1963 0038 FFF7FEFF 		bl	IINCHIP_READ
 1964              	.LVL169:
 1965 003c A4B2     		uxth	r4, r4
 1966 003e 2318     		add	r3, r4, r0
 1967 0040 9CB2     		uxth	r4, r3
 1968              	.LVL170:
 1969              	.L113:
 566:.\w5200.c     **** 		}
 567:.\w5200.c     **** 	} while (val != val1);
 1970              		.loc 1 567 0
 1971 0042 AC42     		cmp	r4, r5
 1972 0044 E7D1     		bne	.L114
 568:.\w5200.c     ****    return val;
 569:.\w5200.c     **** }
 1973              		.loc 1 569 0
 1974 0046 201C     		mov	r0, r4
 1975              		@ sp needed for prologue
 1976              	.LVL171:
 1977              	.LVL172:
 1978 0048 F8BD     		pop	{r3, r4, r5, r6, r7, pc}
 1979              		.cfi_endproc
 1980              	.LFE39:
 1981              		.size	getSn_TX_FSR, .-getSn_TX_FSR
 1982              		.section	.text.getSn_RX_RSR,"ax",%progbits
ARM GAS  C:\Users\atsu\AppData\Local\Temp\ccDwwNoN.s 			page 47


 1983              		.align	1
 1984              		.global	getSn_RX_RSR
 1985              		.code	16
 1986              		.thumb_func
 1987              		.type	getSn_RX_RSR, %function
 1988              	getSn_RX_RSR:
 1989              	.LFB40:
 570:.\w5200.c     **** 
 571:.\w5200.c     **** 
 572:.\w5200.c     **** /**
 573:.\w5200.c     **** @brief	 get socket RX recv buf size
 574:.\w5200.c     **** 
 575:.\w5200.c     **** This gives size of received data in receive buffer. 
 576:.\w5200.c     **** */
 577:.\w5200.c     **** uint16_t getSn_RX_RSR(SOCKET s)
 578:.\w5200.c     **** {
 1990              		.loc 1 578 0
 1991              		.cfi_startproc
 1992              	.LVL173:
 1993 0000 F8B5     		push	{r3, r4, r5, r6, r7, lr}
 1994              	.LCFI29:
 1995              		.cfi_def_cfa_offset 24
 1996              		.cfi_offset 3, -24
 1997              		.cfi_offset 4, -20
 1998              		.cfi_offset 5, -16
 1999              		.cfi_offset 6, -12
 2000              		.cfi_offset 7, -8
 2001              		.cfi_offset 14, -4
 579:.\w5200.c     **** 	uint16_t val=0,val1=0;
 580:.\w5200.c     **** 	do
 581:.\w5200.c     **** 	{
 582:.\w5200.c     **** 		val1 = IINCHIP_READ(Sn_RX_RSR0(s));
 2002              		.loc 1 582 0
 2003 0002 071C     		mov	r7, r0
 2004 0004 4037     		add	r7, r7, #64
 2005 0006 3802     		lsl	r0, r7, #8
 2006              	.LVL174:
 2007 0008 81B2     		uxth	r1, r0
 2008 000a 0E1C     		mov	r6, r1
 2009 000c 2636     		add	r6, r6, #38
 583:.\w5200.c     **** 		val1 = (val1 << 8) + IINCHIP_READ(Sn_RX_RSR0(s) + 1);
 2010              		.loc 1 583 0
 2011 000e 2731     		add	r1, r1, #39
 582:.\w5200.c     **** 		val1 = IINCHIP_READ(Sn_RX_RSR0(s));
 2012              		.loc 1 582 0
 2013 0010 B6B2     		uxth	r6, r6
 2014              		.loc 1 583 0
 2015 0012 8FB2     		uxth	r7, r1
 579:.\w5200.c     **** 	uint16_t val=0,val1=0;
 2016              		.loc 1 579 0
 2017 0014 0024     		mov	r4, #0
 2018              	.LVL175:
 2019              	.L121:
 582:.\w5200.c     **** 		val1 = IINCHIP_READ(Sn_RX_RSR0(s));
 2020              		.loc 1 582 0
 2021 0016 301C     		mov	r0, r6
 2022 0018 FFF7FEFF 		bl	IINCHIP_READ
ARM GAS  C:\Users\atsu\AppData\Local\Temp\ccDwwNoN.s 			page 48


 2023              	.LVL176:
 2024              		.loc 1 583 0
 2025 001c 0502     		lsl	r5, r0, #8
 2026 001e 381C     		mov	r0, r7
 2027              	.LVL177:
 2028 0020 FFF7FEFF 		bl	IINCHIP_READ
 2029              	.LVL178:
 2030 0024 ADB2     		uxth	r5, r5
 2031 0026 2A18     		add	r2, r5, r0
 2032 0028 95B2     		uxth	r5, r2
 2033              	.LVL179:
 584:.\w5200.c     ****       if(val1 != 0)
 2034              		.loc 1 584 0
 2035 002a 002D     		cmp	r5, #0
 2036 002c 09D0     		beq	.L120
 585:.\w5200.c     **** 		{
 586:.\w5200.c     ****    			val = IINCHIP_READ(Sn_RX_RSR0(s));
 2037              		.loc 1 586 0
 2038 002e 301C     		mov	r0, r6
 2039 0030 FFF7FEFF 		bl	IINCHIP_READ
 2040              	.LVL180:
 587:.\w5200.c     ****    			val = (val << 8) + IINCHIP_READ(Sn_RX_RSR0(s) + 1);
 2041              		.loc 1 587 0
 2042 0034 0402     		lsl	r4, r0, #8
 2043 0036 381C     		mov	r0, r7
 2044              	.LVL181:
 2045 0038 FFF7FEFF 		bl	IINCHIP_READ
 2046              	.LVL182:
 2047 003c A4B2     		uxth	r4, r4
 2048 003e 2318     		add	r3, r4, r0
 2049 0040 9CB2     		uxth	r4, r3
 2050              	.LVL183:
 2051              	.L120:
 588:.\w5200.c     **** 		}
 589:.\w5200.c     **** 	} while (val != val1);
 2052              		.loc 1 589 0
 2053 0042 AC42     		cmp	r4, r5
 2054 0044 E7D1     		bne	.L121
 590:.\w5200.c     ****    return val;
 591:.\w5200.c     **** }
 2055              		.loc 1 591 0
 2056 0046 201C     		mov	r0, r4
 2057              		@ sp needed for prologue
 2058              	.LVL184:
 2059              	.LVL185:
 2060 0048 F8BD     		pop	{r3, r4, r5, r6, r7, pc}
 2061              		.cfi_endproc
 2062              	.LFE40:
 2063              		.size	getSn_RX_RSR, .-getSn_RX_RSR
 2064              		.section	.text.write_data,"ax",%progbits
 2065              		.align	1
 2066              		.global	write_data
 2067              		.code	16
 2068              		.thumb_func
 2069              		.type	write_data, %function
 2070              	write_data:
 2071              	.LFB43:
ARM GAS  C:\Users\atsu\AppData\Local\Temp\ccDwwNoN.s 			page 49


 592:.\w5200.c     **** 
 593:.\w5200.c     **** 
 594:.\w5200.c     **** /**
 595:.\w5200.c     **** @brief	 This function is being called by send() and sendto() function also. 
 596:.\w5200.c     **** 
 597:.\w5200.c     **** This function read the Tx write pointer register and after copy the data in buffer update the Tx wr
 598:.\w5200.c     **** register. User should read upper byte first and lower byte later to get proper value.
 599:.\w5200.c     **** */
 600:.\w5200.c     **** void send_data_processing(SOCKET s, uint8_t *data, uint16_t len)
 601:.\w5200.c     **** {
 602:.\w5200.c     **** 	
 603:.\w5200.c     **** 	uint16_t ptr;
 604:.\w5200.c     **** 	ptr = IINCHIP_READ(Sn_TX_WR0(s));
 605:.\w5200.c     **** 	ptr = (ptr << 8) + IINCHIP_READ(Sn_TX_WR0(s) + 1);
 606:.\w5200.c     **** 	write_data(s, data, (uint8_t *)(ptr), len);
 607:.\w5200.c     **** 	ptr += len;
 608:.\w5200.c     **** 
 609:.\w5200.c     **** 	IINCHIP_WRITE(Sn_TX_WR0(s),(uint8_t)((ptr & 0xff00) >> 8));
 610:.\w5200.c     **** 	IINCHIP_WRITE((Sn_TX_WR0(s) + 1),(uint8_t)(ptr & 0x00ff));
 611:.\w5200.c     **** 	
 612:.\w5200.c     **** }
 613:.\w5200.c     **** 
 614:.\w5200.c     **** 
 615:.\w5200.c     **** /**
 616:.\w5200.c     **** @brief	This function is being called by recv() also.
 617:.\w5200.c     **** 
 618:.\w5200.c     **** This function read the Rx read pointer register
 619:.\w5200.c     **** and after copy the data from receive buffer update the Rx write pointer register.
 620:.\w5200.c     **** User should read upper byte first and lower byte later to get proper value.
 621:.\w5200.c     **** */
 622:.\w5200.c     **** void recv_data_processing(SOCKET s, uint8_t *data, uint16_t len)
 623:.\w5200.c     **** {
 624:.\w5200.c     **** 	uint16_t ptr;
 625:.\w5200.c     **** 	ptr = IINCHIP_READ(Sn_RX_RD0(s));
 626:.\w5200.c     **** 	ptr = ((ptr & 0x00ff) << 8) + IINCHIP_READ(Sn_RX_RD0(s) + 1);
 627:.\w5200.c     **** 	
 628:.\w5200.c     **** #ifdef __DEF_IINCHIP_DBG__
 629:.\w5200.c     **** 	// printf(" ISR_RX: rd_ptr : %.4x\r\n", ptr);
 630:.\w5200.c     **** #endif
 631:.\w5200.c     **** 
 632:.\w5200.c     **** 	read_data(s, (uint8_t *)ptr, data, len); // read data
 633:.\w5200.c     **** 	ptr += len;
 634:.\w5200.c     **** 	IINCHIP_WRITE(Sn_RX_RD0(s),(uint8_t)((ptr & 0xff00) >> 8));
 635:.\w5200.c     **** 	IINCHIP_WRITE((Sn_RX_RD0(s) + 1),(uint8_t)(ptr & 0x00ff));
 636:.\w5200.c     **** }
 637:.\w5200.c     **** 
 638:.\w5200.c     **** 
 639:.\w5200.c     **** /**
 640:.\w5200.c     **** @brief	for copy the data form application buffer to Transmite buffer of the chip.
 641:.\w5200.c     **** 
 642:.\w5200.c     **** This function is being used for copy the data form application buffer to Transmite
 643:.\w5200.c     **** buffer of the chip. It calculate the actual physical address where one has to write
 644:.\w5200.c     **** the data in transmite buffer. Here also take care of the condition while it exceed
 645:.\w5200.c     **** the Tx memory uper-bound of socket.
 646:.\w5200.c     **** */
 647:.\w5200.c     **** void write_data(SOCKET s, vuint8_t * src, vuint8_t * dst, uint16_t len)
 648:.\w5200.c     **** {
ARM GAS  C:\Users\atsu\AppData\Local\Temp\ccDwwNoN.s 			page 50


 2072              		.loc 1 648 0
 2073              		.cfi_startproc
 2074              	.LVL186:
 2075 0000 F8B5     		push	{r3, r4, r5, r6, r7, lr}
 2076              	.LCFI30:
 2077              		.cfi_def_cfa_offset 24
 2078              		.cfi_offset 3, -24
 2079              		.cfi_offset 4, -20
 2080              		.cfi_offset 5, -16
 2081              		.cfi_offset 6, -12
 2082              		.cfi_offset 7, -8
 2083              		.cfi_offset 14, -4
 2084              	.LBB75:
 2085              	.LBB76:
  65:.\w5200.c     ****    return SMASK[s];
 2086              		.loc 1 65 0
 2087 0002 0F4C     		ldr	r4, .L130
 2088 0004 4000     		lsl	r0, r0, #1
 2089              	.LVL187:
 2090 0006 2418     		add	r4, r4, r0
 2091              	.LBE76:
 2092              	.LBE75:
 649:.\w5200.c     **** 	uint16_t size;
 650:.\w5200.c     **** 	uint16_t dst_mask;
 651:.\w5200.c     **** 	uint8_t * dst_ptr;
 652:.\w5200.c     **** 
 653:.\w5200.c     **** 	dst_mask = (uint32_t)dst & getIINCHIP_TxMASK(s);
 2093              		.loc 1 653 0
 2094 0008 A78B     		ldrh	r7, [r4, #28]
 648:.\w5200.c     **** {
 2095              		.loc 1 648 0
 2096 000a 0E1C     		mov	r6, r1
 654:.\w5200.c     **** 	dst_ptr = (uint8_t *)(getIINCHIP_TxBASE(s) + dst_mask);
 2097              		.loc 1 654 0
 2098 000c A18D     		ldrh	r1, [r4, #44]
 2099              	.LVL188:
 653:.\w5200.c     **** 	dst_mask = (uint32_t)dst & getIINCHIP_TxMASK(s);
 2100              		.loc 1 653 0
 2101 000e 3A40     		and	r2, r7
 2102              	.LVL189:
 2103              	.LBB77:
 2104              	.LBB78:
  57:.\w5200.c     ****    return SSIZE[s];
 2105              		.loc 1 57 0
 2106 0010 A789     		ldrh	r7, [r4, #12]
 2107              	.LBE78:
 2108              	.LBE77:
 648:.\w5200.c     **** {
 2109              		.loc 1 648 0
 2110 0012 1D1C     		mov	r5, r3
 2111              		.loc 1 654 0
 2112 0014 8818     		add	r0, r1, r2
 2113              	.LVL190:
 655:.\w5200.c     **** 	
 656:.\w5200.c     **** 	if (dst_mask + len > getIINCHIP_TxMAX(s)) 
 2114              		.loc 1 656 0
 2115 0016 D318     		add	r3, r2, r3
ARM GAS  C:\Users\atsu\AppData\Local\Temp\ccDwwNoN.s 			page 51


 2116              	.LVL191:
 2117 0018 80B2     		uxth	r0, r0
 2118              	.LVL192:
 2119 001a BB42     		cmp	r3, r7
 2120 001c 0ADD     		ble	.L127
 657:.\w5200.c     **** 	{
 658:.\w5200.c     **** 		size = getIINCHIP_TxMAX(s) - dst_mask;
 2121              		.loc 1 658 0
 2122 001e BA1A     		sub	r2, r7, r2
 2123              	.LVL193:
 2124 0020 97B2     		uxth	r7, r2
 2125              	.LVL194:
 659:.\w5200.c     **** 		wiz_write_buf((uint32_t)dst_ptr, (uint8_t*)src, size);
 2126              		.loc 1 659 0
 2127 0022 311C     		mov	r1, r6
 2128              	.LVL195:
 2129 0024 3A1C     		mov	r2, r7
 2130 0026 FFF7FEFF 		bl	wiz_write_buf
 2131              	.LVL196:
 660:.\w5200.c     **** 		src += size;
 2132              		.loc 1 660 0
 2133 002a F119     		add	r1, r6, r7
 661:.\w5200.c     **** 		size = len - size;
 2134              		.loc 1 661 0
 2135 002c EE1B     		sub	r6, r5, r7
 2136              	.LVL197:
 662:.\w5200.c     **** 		dst_ptr = (uint8_t *)(getIINCHIP_TxBASE(s));
 663:.\w5200.c     **** 		wiz_write_buf((uint32_t)dst_ptr, (uint8_t*)src, size);
 2137              		.loc 1 663 0
 2138 002e A08D     		ldrh	r0, [r4, #44]
 2139 0030 B2B2     		uxth	r2, r6
 2140 0032 01E0     		b	.L129
 2141              	.LVL198:
 2142              	.L127:
 664:.\w5200.c     **** 	} 
 665:.\w5200.c     **** 	else
 666:.\w5200.c     **** 	{
 667:.\w5200.c     **** 		wiz_write_buf((uint32_t)dst_ptr, (uint8_t*)src, len);
 2143              		.loc 1 667 0
 2144 0034 311C     		mov	r1, r6
 2145              	.LVL199:
 2146 0036 2A1C     		mov	r2, r5
 2147              	.LVL200:
 2148              	.L129:
 2149 0038 FFF7FEFF 		bl	wiz_write_buf
 2150              	.LVL201:
 668:.\w5200.c     **** 	}
 669:.\w5200.c     **** }
 2151              		.loc 1 669 0
 2152              		@ sp needed for prologue
 2153 003c F8BD     		pop	{r3, r4, r5, r6, r7, pc}
 2154              	.L131:
 2155 003e C046     		.align	2
 2156              	.L130:
 2157 0040 00000000 		.word	.LANCHOR0
 2158              		.cfi_endproc
 2159              	.LFE43:
ARM GAS  C:\Users\atsu\AppData\Local\Temp\ccDwwNoN.s 			page 52


 2160              		.size	write_data, .-write_data
 2161              		.section	.text.send_data_processing,"ax",%progbits
 2162              		.align	1
 2163              		.global	send_data_processing
 2164              		.code	16
 2165              		.thumb_func
 2166              		.type	send_data_processing, %function
 2167              	send_data_processing:
 2168              	.LFB41:
 601:.\w5200.c     **** {
 2169              		.loc 1 601 0
 2170              		.cfi_startproc
 2171              	.LVL202:
 2172 0000 F7B5     		push	{r0, r1, r2, r4, r5, r6, r7, lr}
 2173              	.LCFI31:
 2174              		.cfi_def_cfa_offset 32
 2175              		.cfi_offset 0, -32
 2176              		.cfi_offset 1, -28
 2177              		.cfi_offset 2, -24
 2178              		.cfi_offset 4, -20
 2179              		.cfi_offset 5, -16
 2180              		.cfi_offset 6, -12
 2181              		.cfi_offset 7, -8
 2182              		.cfi_offset 14, -4
 604:.\w5200.c     **** 	ptr = IINCHIP_READ(Sn_TX_WR0(s));
 2183              		.loc 1 604 0
 2184 0002 041C     		mov	r4, r0
 2185 0004 4034     		add	r4, r4, #64
 601:.\w5200.c     **** {
 2186              		.loc 1 601 0
 2187 0006 071C     		mov	r7, r0
 604:.\w5200.c     **** 	ptr = IINCHIP_READ(Sn_TX_WR0(s));
 2188              		.loc 1 604 0
 2189 0008 2002     		lsl	r0, r4, #8
 2190              	.LVL203:
 2191 000a 84B2     		uxth	r4, r0
 2192 000c 251C     		mov	r5, r4
 2193 000e 2435     		add	r5, r5, #36
 2194 0010 ADB2     		uxth	r5, r5
 2195 0012 281C     		mov	r0, r5
 601:.\w5200.c     **** {
 2196              		.loc 1 601 0
 2197 0014 0191     		str	r1, [sp, #4]
 2198 0016 0092     		str	r2, [sp]
 604:.\w5200.c     **** 	ptr = IINCHIP_READ(Sn_TX_WR0(s));
 2199              		.loc 1 604 0
 2200 0018 FFF7FEFF 		bl	IINCHIP_READ
 2201              	.LVL204:
 605:.\w5200.c     **** 	ptr = (ptr << 8) + IINCHIP_READ(Sn_TX_WR0(s) + 1);
 2202              		.loc 1 605 0
 2203 001c 2534     		add	r4, r4, #37
 2204 001e A4B2     		uxth	r4, r4
 2205 0020 0602     		lsl	r6, r0, #8
 2206 0022 201C     		mov	r0, r4
 2207              	.LVL205:
 2208 0024 FFF7FEFF 		bl	IINCHIP_READ
 2209              	.LVL206:
ARM GAS  C:\Users\atsu\AppData\Local\Temp\ccDwwNoN.s 			page 53


 2210 0028 B6B2     		uxth	r6, r6
 2211 002a 3118     		add	r1, r6, r0
 2212 002c 8EB2     		uxth	r6, r1
 2213              	.LVL207:
 606:.\w5200.c     **** 	write_data(s, data, (uint8_t *)(ptr), len);
 2214              		.loc 1 606 0
 2215 002e 321C     		mov	r2, r6
 2216 0030 381C     		mov	r0, r7
 2217 0032 0199     		ldr	r1, [sp, #4]
 2218              	.LVL208:
 2219 0034 009B     		ldr	r3, [sp]
 2220 0036 FFF7FEFF 		bl	write_data
 2221              	.LVL209:
 607:.\w5200.c     **** 	ptr += len;
 2222              		.loc 1 607 0
 2223 003a 009B     		ldr	r3, [sp]
 609:.\w5200.c     **** 	IINCHIP_WRITE(Sn_TX_WR0(s),(uint8_t)((ptr & 0xff00) >> 8));
 2224              		.loc 1 609 0
 2225 003c 281C     		mov	r0, r5
 607:.\w5200.c     **** 	ptr += len;
 2226              		.loc 1 607 0
 2227 003e F218     		add	r2, r6, r3
 2228 0040 97B2     		uxth	r7, r2
 2229              	.LVL210:
 609:.\w5200.c     **** 	IINCHIP_WRITE(Sn_TX_WR0(s),(uint8_t)((ptr & 0xff00) >> 8));
 2230              		.loc 1 609 0
 2231 0042 390A     		lsr	r1, r7, #8
 2232 0044 FFF7FEFF 		bl	IINCHIP_WRITE
 2233              	.LVL211:
 610:.\w5200.c     **** 	IINCHIP_WRITE((Sn_TX_WR0(s) + 1),(uint8_t)(ptr & 0x00ff));
 2234              		.loc 1 610 0
 2235 0048 F9B2     		uxtb	r1, r7
 2236 004a 201C     		mov	r0, r4
 2237 004c FFF7FEFF 		bl	IINCHIP_WRITE
 2238              	.LVL212:
 612:.\w5200.c     **** }
 2239              		.loc 1 612 0
 2240              		@ sp needed for prologue
 2241              	.LVL213:
 2242 0050 F7BD     		pop	{r0, r1, r2, r4, r5, r6, r7, pc}
 2243              		.cfi_endproc
 2244              	.LFE41:
 2245              		.size	send_data_processing, .-send_data_processing
 2246              		.section	.text.read_data,"ax",%progbits
 2247              		.align	1
 2248              		.global	read_data
 2249              		.code	16
 2250              		.thumb_func
 2251              		.type	read_data, %function
 2252              	read_data:
 2253              	.LFB44:
 670:.\w5200.c     **** 
 671:.\w5200.c     **** 
 672:.\w5200.c     **** /**
 673:.\w5200.c     **** @brief	This function is being used for copy the data form Receive buffer of the chip to application
 674:.\w5200.c     **** 
 675:.\w5200.c     **** It calculate the actual physical address where one has to read
ARM GAS  C:\Users\atsu\AppData\Local\Temp\ccDwwNoN.s 			page 54


 676:.\w5200.c     **** the data from Receive buffer. Here also take care of the condition while it exceed
 677:.\w5200.c     **** the Rx memory uper-bound of socket.
 678:.\w5200.c     **** */
 679:.\w5200.c     **** void read_data(SOCKET s, vuint8_t * src, vuint8_t * dst, uint16_t len)
 680:.\w5200.c     **** {
 2254              		.loc 1 680 0
 2255              		.cfi_startproc
 2256              	.LVL214:
 2257 0000 F8B5     		push	{r3, r4, r5, r6, r7, lr}
 2258              	.LCFI32:
 2259              		.cfi_def_cfa_offset 24
 2260              		.cfi_offset 3, -24
 2261              		.cfi_offset 4, -20
 2262              		.cfi_offset 5, -16
 2263              		.cfi_offset 6, -12
 2264              		.cfi_offset 7, -8
 2265              		.cfi_offset 14, -4
 2266              	.LBB79:
 2267              	.LBB80:
  61:.\w5200.c     ****    return RMASK[s];
 2268              		.loc 1 61 0
 2269 0002 0F4C     		ldr	r4, .L137
 2270 0004 4000     		lsl	r0, r0, #1
 2271              	.LVL215:
 2272 0006 2418     		add	r4, r4, r0
 2273              	.LBE80:
 2274              	.LBE79:
 681:.\w5200.c     **** 	uint16_t size;
 682:.\w5200.c     **** 	uint16_t src_mask;
 683:.\w5200.c     **** 	uint8_t * src_ptr;
 684:.\w5200.c     **** 
 685:.\w5200.c     **** 	src_mask = (uint32_t)src & getIINCHIP_RxMASK(s);
 2275              		.loc 1 685 0
 2276 0008 A78A     		ldrh	r7, [r4, #20]
 680:.\w5200.c     **** {
 2277              		.loc 1 680 0
 2278 000a 161C     		mov	r6, r2
 686:.\w5200.c     **** 	src_ptr = (uint8_t *)(getIINCHIP_RxBASE(s) + src_mask);
 2279              		.loc 1 686 0
 2280 000c A28C     		ldrh	r2, [r4, #36]
 2281              	.LVL216:
 685:.\w5200.c     **** 	src_mask = (uint32_t)src & getIINCHIP_RxMASK(s);
 2282              		.loc 1 685 0
 2283 000e 3940     		and	r1, r7
 2284              	.LVL217:
 2285              	.LBB81:
 2286              	.LBB82:
  53:.\w5200.c     ****    return RSIZE[s];
 2287              		.loc 1 53 0
 2288 0010 A788     		ldrh	r7, [r4, #4]
 2289              	.LBE82:
 2290              	.LBE81:
 680:.\w5200.c     **** {
 2291              		.loc 1 680 0
 2292 0012 1D1C     		mov	r5, r3
 2293              		.loc 1 686 0
 2294 0014 5018     		add	r0, r2, r1
ARM GAS  C:\Users\atsu\AppData\Local\Temp\ccDwwNoN.s 			page 55


 2295              	.LVL218:
 687:.\w5200.c     **** 	
 688:.\w5200.c     **** 	if( (src_mask + len) > getIINCHIP_RxMAX(s) ) 
 2296              		.loc 1 688 0
 2297 0016 CB18     		add	r3, r1, r3
 2298              	.LVL219:
 2299 0018 80B2     		uxth	r0, r0
 2300              	.LVL220:
 2301 001a BB42     		cmp	r3, r7
 2302 001c 0ADD     		ble	.L134
 689:.\w5200.c     **** 	{
 690:.\w5200.c     **** 		size = getIINCHIP_RxMAX(s) - src_mask;
 2303              		.loc 1 690 0
 2304 001e 791A     		sub	r1, r7, r1
 2305              	.LVL221:
 2306 0020 8FB2     		uxth	r7, r1
 2307              	.LVL222:
 691:.\w5200.c     **** 		wiz_read_buf((uint32_t)src_ptr, (uint8_t*)dst,size);
 2308              		.loc 1 691 0
 2309 0022 3A1C     		mov	r2, r7
 2310              	.LVL223:
 2311 0024 311C     		mov	r1, r6
 2312              	.LVL224:
 2313 0026 FFF7FEFF 		bl	wiz_read_buf
 2314              	.LVL225:
 692:.\w5200.c     **** 		dst += size;
 2315              		.loc 1 692 0
 2316 002a F119     		add	r1, r6, r7
 693:.\w5200.c     **** 		size = len - size;
 2317              		.loc 1 693 0
 2318 002c EE1B     		sub	r6, r5, r7
 2319              	.LVL226:
 694:.\w5200.c     **** 		src_ptr = (uint8_t *)(getIINCHIP_RxBASE(s));
 695:.\w5200.c     **** 		wiz_read_buf((uint32_t)src_ptr, (uint8_t*) dst,size);
 2320              		.loc 1 695 0
 2321 002e A08C     		ldrh	r0, [r4, #36]
 2322 0030 B2B2     		uxth	r2, r6
 2323 0032 01E0     		b	.L136
 2324              	.LVL227:
 2325              	.L134:
 696:.\w5200.c     **** 	} 
 697:.\w5200.c     **** 	else
 698:.\w5200.c     **** 	{
 699:.\w5200.c     **** 		wiz_read_buf((uint32_t)src_ptr, (uint8_t*) dst,len);
 2326              		.loc 1 699 0
 2327 0034 311C     		mov	r1, r6
 2328              	.LVL228:
 2329 0036 2A1C     		mov	r2, r5
 2330              	.LVL229:
 2331              	.L136:
 2332 0038 FFF7FEFF 		bl	wiz_read_buf
 2333              	.LVL230:
 700:.\w5200.c     **** 	}
 701:.\w5200.c     **** }
 2334              		.loc 1 701 0
 2335              		@ sp needed for prologue
 2336 003c F8BD     		pop	{r3, r4, r5, r6, r7, pc}
ARM GAS  C:\Users\atsu\AppData\Local\Temp\ccDwwNoN.s 			page 56


 2337              	.L138:
 2338 003e C046     		.align	2
 2339              	.L137:
 2340 0040 00000000 		.word	.LANCHOR0
 2341              		.cfi_endproc
 2342              	.LFE44:
 2343              		.size	read_data, .-read_data
 2344              		.section	.text.recv_data_processing,"ax",%progbits
 2345              		.align	1
 2346              		.global	recv_data_processing
 2347              		.code	16
 2348              		.thumb_func
 2349              		.type	recv_data_processing, %function
 2350              	recv_data_processing:
 2351              	.LFB42:
 623:.\w5200.c     **** {
 2352              		.loc 1 623 0
 2353              		.cfi_startproc
 2354              	.LVL231:
 2355 0000 F7B5     		push	{r0, r1, r2, r4, r5, r6, r7, lr}
 2356              	.LCFI33:
 2357              		.cfi_def_cfa_offset 32
 2358              		.cfi_offset 0, -32
 2359              		.cfi_offset 1, -28
 2360              		.cfi_offset 2, -24
 2361              		.cfi_offset 4, -20
 2362              		.cfi_offset 5, -16
 2363              		.cfi_offset 6, -12
 2364              		.cfi_offset 7, -8
 2365              		.cfi_offset 14, -4
 625:.\w5200.c     **** 	ptr = IINCHIP_READ(Sn_RX_RD0(s));
 2366              		.loc 1 625 0
 2367 0002 041C     		mov	r4, r0
 2368 0004 4034     		add	r4, r4, #64
 623:.\w5200.c     **** {
 2369              		.loc 1 623 0
 2370 0006 071C     		mov	r7, r0
 625:.\w5200.c     **** 	ptr = IINCHIP_READ(Sn_RX_RD0(s));
 2371              		.loc 1 625 0
 2372 0008 2002     		lsl	r0, r4, #8
 2373              	.LVL232:
 2374 000a 84B2     		uxth	r4, r0
 2375 000c 251C     		mov	r5, r4
 2376 000e 2835     		add	r5, r5, #40
 2377 0010 ADB2     		uxth	r5, r5
 2378 0012 281C     		mov	r0, r5
 623:.\w5200.c     **** {
 2379              		.loc 1 623 0
 2380 0014 0191     		str	r1, [sp, #4]
 2381 0016 0092     		str	r2, [sp]
 625:.\w5200.c     **** 	ptr = IINCHIP_READ(Sn_RX_RD0(s));
 2382              		.loc 1 625 0
 2383 0018 FFF7FEFF 		bl	IINCHIP_READ
 2384              	.LVL233:
 626:.\w5200.c     **** 	ptr = ((ptr & 0x00ff) << 8) + IINCHIP_READ(Sn_RX_RD0(s) + 1);
 2385              		.loc 1 626 0
 2386 001c 2934     		add	r4, r4, #41
ARM GAS  C:\Users\atsu\AppData\Local\Temp\ccDwwNoN.s 			page 57


 2387 001e A4B2     		uxth	r4, r4
 625:.\w5200.c     **** 	ptr = IINCHIP_READ(Sn_RX_RD0(s));
 2388              		.loc 1 625 0
 2389 0020 061C     		mov	r6, r0
 2390              	.LVL234:
 626:.\w5200.c     **** 	ptr = ((ptr & 0x00ff) << 8) + IINCHIP_READ(Sn_RX_RD0(s) + 1);
 2391              		.loc 1 626 0
 2392 0022 201C     		mov	r0, r4
 2393              	.LVL235:
 2394 0024 FFF7FEFF 		bl	IINCHIP_READ
 2395              	.LVL236:
 2396 0028 3102     		lsl	r1, r6, #8
 2397 002a 4218     		add	r2, r0, r1
 2398 002c 96B2     		uxth	r6, r2
 2399              	.LVL237:
 632:.\w5200.c     **** 	read_data(s, (uint8_t *)ptr, data, len); // read data
 2400              		.loc 1 632 0
 2401 002e 381C     		mov	r0, r7
 2402 0030 019A     		ldr	r2, [sp, #4]
 2403              	.LVL238:
 2404 0032 311C     		mov	r1, r6
 2405 0034 009B     		ldr	r3, [sp]
 2406 0036 FFF7FEFF 		bl	read_data
 2407              	.LVL239:
 633:.\w5200.c     **** 	ptr += len;
 2408              		.loc 1 633 0
 2409 003a 009B     		ldr	r3, [sp]
 634:.\w5200.c     **** 	IINCHIP_WRITE(Sn_RX_RD0(s),(uint8_t)((ptr & 0xff00) >> 8));
 2410              		.loc 1 634 0
 2411 003c 281C     		mov	r0, r5
 633:.\w5200.c     **** 	ptr += len;
 2412              		.loc 1 633 0
 2413 003e F718     		add	r7, r6, r3
 2414 0040 BEB2     		uxth	r6, r7
 2415              	.LVL240:
 634:.\w5200.c     **** 	IINCHIP_WRITE(Sn_RX_RD0(s),(uint8_t)((ptr & 0xff00) >> 8));
 2416              		.loc 1 634 0
 2417 0042 310A     		lsr	r1, r6, #8
 2418 0044 FFF7FEFF 		bl	IINCHIP_WRITE
 2419              	.LVL241:
 635:.\w5200.c     **** 	IINCHIP_WRITE((Sn_RX_RD0(s) + 1),(uint8_t)(ptr & 0x00ff));
 2420              		.loc 1 635 0
 2421 0048 F1B2     		uxtb	r1, r6
 2422 004a 201C     		mov	r0, r4
 2423 004c FFF7FEFF 		bl	IINCHIP_WRITE
 2424              	.LVL242:
 636:.\w5200.c     **** }
 2425              		.loc 1 636 0
 2426              		@ sp needed for prologue
 2427              	.LVL243:
 2428 0050 F7BD     		pop	{r0, r1, r2, r4, r5, r6, r7, pc}
 2429              		.cfi_endproc
 2430              	.LFE42:
 2431              		.size	recv_data_processing, .-recv_data_processing
 2432              		.comm	sent_ptr,2,2
 2433              		.comm	pre_sent_ptr,2,2
 2434              		.comm	windowfull_retry_cnt,4,1
ARM GAS  C:\Users\atsu\AppData\Local\Temp\ccDwwNoN.s 			page 58


 2435              		.bss
 2436              		.align	1
 2437              		.set	.LANCHOR0,. + 0
 2438              		.type	I_STATUS, %object
 2439              		.size	I_STATUS, 4
 2440              	I_STATUS:
 2441 0000 00000000 		.space	4
 2442              		.type	RSIZE, %object
 2443              		.size	RSIZE, 8
 2444              	RSIZE:
 2445 0004 00000000 		.space	8
 2445      00000000 
 2446              		.type	SSIZE, %object
 2447              		.size	SSIZE, 8
 2448              	SSIZE:
 2449 000c 00000000 		.space	8
 2449      00000000 
 2450              		.type	RMASK, %object
 2451              		.size	RMASK, 8
 2452              	RMASK:
 2453 0014 00000000 		.space	8
 2453      00000000 
 2454              		.type	SMASK, %object
 2455              		.size	SMASK, 8
 2456              	SMASK:
 2457 001c 00000000 		.space	8
 2457      00000000 
 2458              		.type	RBUFBASEADDRESS, %object
 2459              		.size	RBUFBASEADDRESS, 8
 2460              	RBUFBASEADDRESS:
 2461 0024 00000000 		.space	8
 2461      00000000 
 2462              		.type	SBUFBASEADDRESS, %object
 2463              		.size	SBUFBASEADDRESS, 8
 2464              	SBUFBASEADDRESS:
 2465 002c 00000000 		.space	8
 2465      00000000 
 2466              		.type	SUBNET, %object
 2467              		.size	SUBNET, 4
 2468              	SUBNET:
 2469 0034 00000000 		.space	4
 2470              		.type	IPVAL, %object
 2471              		.size	IPVAL, 4
 2472              	IPVAL:
 2473 0038 00000000 		.space	4
 2474              		.text
 2475              	.Letext0:
 2476              		.file 2 "c:\\program files (x86)\\cypress\\psoc creator\\3.0\\psoc creator\\import\\gnu_cs\\arm\\4
 2477              		.file 3 ".\\util.h"
 2478              		.file 4 ".\\device_depend.h"